ARM GAS  C:\Users\Martin\AppData\Local\Temp\cc7vr5rA.s 			page 1


   1              		.syntax unified
   2              		.cpu cortex-m3
   3              		.fpu softvfp
   4              		.eabi_attribute 20, 1
   5              		.eabi_attribute 21, 1
   6              		.eabi_attribute 23, 3
   7              		.eabi_attribute 24, 1
   8              		.eabi_attribute 25, 1
   9              		.eabi_attribute 26, 1
  10              		.eabi_attribute 30, 6
  11              		.eabi_attribute 18, 4
  12              		.thumb
  13              		.file	"bal.c"
  20 0000 44010000 		.text
  20      0200D900 
  20      00000201 
  20      FB0E0D00 
  20      01010101 
  21              	.Ltext0:
  22              		.cfi_sections	.debug_frame
  23              		.section	.text.BAL_ServoMsg,"ax",%progbits
  24              		.align	2
  25              		.global	BAL_ServoMsg
  26              		.thumb
  27              		.thumb_func
  28              		.type	BAL_ServoMsg, %function
  29              	BAL_ServoMsg:
  30              	.LFB29:
  31              		.file 1 "..\\..\\..\\Drive_Platform\\DrivePlatform.cydsn\\bal.c"
   1:..\..\..\Drive_Platform\DrivePlatform.cydsn/bal.c **** /* Copyright (C) <2014> <Martin Schalk>
   2:..\..\..\Drive_Platform\DrivePlatform.cydsn/bal.c ****  * All rights reserved.
   3:..\..\..\Drive_Platform\DrivePlatform.cydsn/bal.c ****  *
   4:..\..\..\Drive_Platform\DrivePlatform.cydsn/bal.c ****  * This software may be modified and distributed under the terms
   5:..\..\..\Drive_Platform\DrivePlatform.cydsn/bal.c ****  * of the BSD license.  See the LICENSE file for details.
   6:..\..\..\Drive_Platform\DrivePlatform.cydsn/bal.c ****  */
   7:..\..\..\Drive_Platform\DrivePlatform.cydsn/bal.c **** 
   8:..\..\..\Drive_Platform\DrivePlatform.cydsn/bal.c **** #include <project.h>
   9:..\..\..\Drive_Platform\DrivePlatform.cydsn/bal.c **** #include <stdio.h>
  10:..\..\..\Drive_Platform\DrivePlatform.cydsn/bal.c **** #include "bal.h"
  11:..\..\..\Drive_Platform\DrivePlatform.cydsn/bal.c **** #include "bpl.h"
  12:..\..\..\Drive_Platform\DrivePlatform.cydsn/bal.c **** 
  13:..\..\..\Drive_Platform\DrivePlatform.cydsn/bal.c **** #include "servo_cds5500.h"
  14:..\..\..\Drive_Platform\DrivePlatform.cydsn/bal.c **** #include "global.h"
  15:..\..\..\Drive_Platform\DrivePlatform.cydsn/bal.c **** #include "tmr.h"
  16:..\..\..\Drive_Platform\DrivePlatform.cydsn/bal.c **** 
  17:..\..\..\Drive_Platform\DrivePlatform.cydsn/bal.c **** //static uint8 MsgReceiveBuffer[BAL_MSG_RECEIVE_BUFFER_SIZE];
  18:..\..\..\Drive_Platform\DrivePlatform.cydsn/bal.c **** //static uint8 MsgTransmitBuffer[BAL_MSG_RECEIVE_BUFFER_SIZE];
  19:..\..\..\Drive_Platform\DrivePlatform.cydsn/bal.c **** 
  20:..\..\..\Drive_Platform\DrivePlatform.cydsn/bal.c **** #ifdef BAL_MODULE_TEST   
  21:..\..\..\Drive_Platform\DrivePlatform.cydsn/bal.c ****     static void BAL_ModuleTest();
  22:..\..\..\Drive_Platform\DrivePlatform.cydsn/bal.c **** #endif
ARM GAS  C:\Users\Martin\AppData\Local\Temp\cc7vr5rA.s 			page 2


  23:..\..\..\Drive_Platform\DrivePlatform.cydsn/bal.c **** /*****************************************************************/
  24:..\..\..\Drive_Platform\DrivePlatform.cydsn/bal.c **** /* | startbyte0 | startbyte1 | motorId | length | instrId | instrParams[8] | checksum | 
  25:..\..\..\Drive_Platform\DrivePlatform.cydsn/bal.c ****      0            1            2         3        4         5                13       
  26:..\..\..\Drive_Platform\DrivePlatform.cydsn/bal.c ****      length = 1(instrId) + sizeof(instrParams) + 1(checksum)
  27:..\..\..\Drive_Platform\DrivePlatform.cydsn/bal.c **** */
  28:..\..\..\Drive_Platform\DrivePlatform.cydsn/bal.c **** STATUS BAL_ServoMsg(CDS5500_MSG* msg)
  29:..\..\..\Drive_Platform\DrivePlatform.cydsn/bal.c **** {
  32              		.loc 1 29 0
  33              		.cfi_startproc
  34              		@ args = 0, pretend = 0, frame = 16
  35              		@ frame_needed = 1, uses_anonymous_args = 0
  36 0000 80B5     		push	{r7, lr}
  37              	.LCFI0:
  38              		.cfi_def_cfa_offset 8
  39 0002 84B0     		sub	sp, sp, #16
  40              	.LCFI1:
  41              		.cfi_def_cfa_offset 24
  42 0004 00AF     		add	r7, sp, #0
  43              		.cfi_offset 14, -4
  44              		.cfi_offset 7, -8
  45              	.LCFI2:
  46              		.cfi_def_cfa_register 7
  47 0006 7860     		str	r0, [r7, #4]
  30:..\..\..\Drive_Platform\DrivePlatform.cydsn/bal.c ****     STATUS status;
  31:..\..\..\Drive_Platform\DrivePlatform.cydsn/bal.c ****             
  32:..\..\..\Drive_Platform\DrivePlatform.cydsn/bal.c ****     if (msg->motorId > 254)
  48              		.loc 1 32 0
  49 0008 7B68     		ldr	r3, [r7, #4]
  50 000a 9B78     		ldrb	r3, [r3, #2]	@ zero_extendqisi2
  51 000c FF2B     		cmp	r3, #255
  52 000e 03D1     		bne	.L2
  33:..\..\..\Drive_Platform\DrivePlatform.cydsn/bal.c ****         status = CDS5500_ERROR_MOTOR_ID;
  53              		.loc 1 33 0
  54 0010 6FF00903 		mvn	r3, #9
  55 0014 FB73     		strb	r3, [r7, #15]
  56 0016 28E0     		b	.L3
  57              	.L2:
  34:..\..\..\Drive_Platform\DrivePlatform.cydsn/bal.c ****     else  if (msg->length > CDS5500_INST_LENGTH_MAX) 
  58              		.loc 1 34 0
  59 0018 7B68     		ldr	r3, [r7, #4]
  60 001a DB78     		ldrb	r3, [r3, #3]	@ zero_extendqisi2
  61 001c 0A2B     		cmp	r3, #10
  62 001e 03D9     		bls	.L4
  35:..\..\..\Drive_Platform\DrivePlatform.cydsn/bal.c ****         status = CDS5500_ERROR_LENGTH;
  63              		.loc 1 35 0
  64 0020 6FF00A03 		mvn	r3, #10
  65 0024 FB73     		strb	r3, [r7, #15]
  66 0026 20E0     		b	.L3
  67              	.L4:
  36:..\..\..\Drive_Platform\DrivePlatform.cydsn/bal.c ****     else  if (msg->instrId == 0) 
  68              		.loc 1 36 0
  69 0028 7B68     		ldr	r3, [r7, #4]
  70 002a 1B79     		ldrb	r3, [r3, #4]	@ zero_extendqisi2
  71 002c 002B     		cmp	r3, #0
  72 002e 03D1     		bne	.L5
  37:..\..\..\Drive_Platform\DrivePlatform.cydsn/bal.c ****         status = CDS5500_ERROR_INSTR_ID;
  73              		.loc 1 37 0
ARM GAS  C:\Users\Martin\AppData\Local\Temp\cc7vr5rA.s 			page 3


  74 0030 6FF00B03 		mvn	r3, #11
  75 0034 FB73     		strb	r3, [r7, #15]
  76 0036 18E0     		b	.L3
  77              	.L5:
  38:..\..\..\Drive_Platform\DrivePlatform.cydsn/bal.c ****     else  if ((msg->instrParams)[msg->length - CDS5500_COMPLEMENTARY_BYTES] == 0) 
  78              		.loc 1 38 0
  79 0038 7B68     		ldr	r3, [r7, #4]
  80 003a DB78     		ldrb	r3, [r3, #3]	@ zero_extendqisi2
  81 003c A3F10202 		sub	r2, r3, #2
  82 0040 7B68     		ldr	r3, [r7, #4]
  83 0042 1344     		add	r3, r2, r3
  84 0044 5B79     		ldrb	r3, [r3, #5]	@ zero_extendqisi2
  85 0046 002B     		cmp	r3, #0
  86 0048 03D1     		bne	.L6
  39:..\..\..\Drive_Platform\DrivePlatform.cydsn/bal.c ****         status = CDS5500_ERROR_CHKSUM;
  87              		.loc 1 39 0
  88 004a 6FF00C03 		mvn	r3, #12
  89 004e FB73     		strb	r3, [r7, #15]
  90 0050 0BE0     		b	.L3
  91              	.L6:
  40:..\..\..\Drive_Platform\DrivePlatform.cydsn/bal.c ****     else
  41:..\..\..\Drive_Platform\DrivePlatform.cydsn/bal.c ****     {
  42:..\..\..\Drive_Platform\DrivePlatform.cydsn/bal.c ****         status = BPL_TransmitMessage((uint8*)msg, msg->length + 4); 
  92              		.loc 1 42 0
  93 0052 7A68     		ldr	r2, [r7, #4]
  94 0054 7B68     		ldr	r3, [r7, #4]
  95 0056 DB78     		ldrb	r3, [r3, #3]	@ zero_extendqisi2
  96 0058 03F10403 		add	r3, r3, #4
  97 005c DBB2     		uxtb	r3, r3
  98 005e 1046     		mov	r0, r2
  99 0060 1946     		mov	r1, r3
 100 0062 FFF7FEFF 		bl	BPL_TransmitMessage
 101 0066 0346     		mov	r3, r0
 102 0068 FB73     		strb	r3, [r7, #15]
 103              	.L3:
  43:..\..\..\Drive_Platform\DrivePlatform.cydsn/bal.c ****         // 1(startbyte0) + 1(startbyte1) + 1(motorId) + 1(length) = +4
  44:..\..\..\Drive_Platform\DrivePlatform.cydsn/bal.c ****         // 1(instrId) + 1(checksum) = +2
  45:..\..\..\Drive_Platform\DrivePlatform.cydsn/bal.c ****     }
  46:..\..\..\Drive_Platform\DrivePlatform.cydsn/bal.c ****     
  47:..\..\..\Drive_Platform\DrivePlatform.cydsn/bal.c **** 	return status;
 104              		.loc 1 47 0
 105 006a FB7B     		ldrb	r3, [r7, #15]	@ zero_extendqisi2
  48:..\..\..\Drive_Platform\DrivePlatform.cydsn/bal.c **** }
 106              		.loc 1 48 0
 107 006c 1846     		mov	r0, r3
 108 006e 07F11007 		add	r7, r7, #16
 109 0072 BD46     		mov	sp, r7
 110 0074 80BD     		pop	{r7, pc}
 111              		.cfi_endproc
 112              	.LFE29:
 113              		.size	BAL_ServoMsg, .-BAL_ServoMsg
 114 0076 00BF     		.section	.text.BAL_SendAck,"ax",%progbits
 115              		.align	2
 116              		.global	BAL_SendAck
 117              		.thumb
 118              		.thumb_func
 119              		.type	BAL_SendAck, %function
ARM GAS  C:\Users\Martin\AppData\Local\Temp\cc7vr5rA.s 			page 4


 120              	BAL_SendAck:
 121              	.LFB30:
  49:..\..\..\Drive_Platform\DrivePlatform.cydsn/bal.c **** 
  50:..\..\..\Drive_Platform\DrivePlatform.cydsn/bal.c **** 
  51:..\..\..\Drive_Platform\DrivePlatform.cydsn/bal.c **** /*****************************************************************/
  52:..\..\..\Drive_Platform\DrivePlatform.cydsn/bal.c **** /* | id0 | id1 | length | *content | 
  53:..\..\..\Drive_Platform\DrivePlatform.cydsn/bal.c ****      0     1     2        3     
  54:..\..\..\Drive_Platform\DrivePlatform.cydsn/bal.c ****      length = sizeof(content)
  55:..\..\..\Drive_Platform\DrivePlatform.cydsn/bal.c **** */
  56:..\..\..\Drive_Platform\DrivePlatform.cydsn/bal.c **** /*
  57:..\..\..\Drive_Platform\DrivePlatform.cydsn/bal.c **** !!!  if compiled, calling BAL_ServoMsg causes call of BAL_SendMsg instead 
  58:..\..\..\Drive_Platform\DrivePlatform.cydsn/bal.c ****        reason not yet found !!!
  59:..\..\..\Drive_Platform\DrivePlatform.cydsn/bal.c **** 
  60:..\..\..\Drive_Platform\DrivePlatform.cydsn/bal.c **** STATUS BAL_SendMsg(BAL_MSG* msg)
  61:..\..\..\Drive_Platform\DrivePlatform.cydsn/bal.c **** {
  62:..\..\..\Drive_Platform\DrivePlatform.cydsn/bal.c ****     STATUS status;
  63:..\..\..\Drive_Platform\DrivePlatform.cydsn/bal.c ****     uint8 buffer[3+msg->length];
  64:..\..\..\Drive_Platform\DrivePlatform.cydsn/bal.c ****     
  65:..\..\..\Drive_Platform\DrivePlatform.cydsn/bal.c ****     buffer[0] = (uint8)(msg->id << 8);
  66:..\..\..\Drive_Platform\DrivePlatform.cydsn/bal.c ****     buffer[1] = (uint8)(msg->id);
  67:..\..\..\Drive_Platform\DrivePlatform.cydsn/bal.c ****     buffer[2] = msg->length;
  68:..\..\..\Drive_Platform\DrivePlatform.cydsn/bal.c ****     memcpy(&buffer[3], msg->content, msg->length);
  69:..\..\..\Drive_Platform\DrivePlatform.cydsn/bal.c ****     
  70:..\..\..\Drive_Platform\DrivePlatform.cydsn/bal.c ****     status = BPL_TransmitMessage(buffer, msg->length + 3);
  71:..\..\..\Drive_Platform\DrivePlatform.cydsn/bal.c ****     
  72:..\..\..\Drive_Platform\DrivePlatform.cydsn/bal.c **** 	return SUCCESS;
  73:..\..\..\Drive_Platform\DrivePlatform.cydsn/bal.c **** }
  74:..\..\..\Drive_Platform\DrivePlatform.cydsn/bal.c **** */
  75:..\..\..\Drive_Platform\DrivePlatform.cydsn/bal.c **** 
  76:..\..\..\Drive_Platform\DrivePlatform.cydsn/bal.c **** 
  77:..\..\..\Drive_Platform\DrivePlatform.cydsn/bal.c **** /*****************************************************************/
  78:..\..\..\Drive_Platform\DrivePlatform.cydsn/bal.c **** /* range of val: BAL_ACK_OK, BAL_ACK_NOK */
  79:..\..\..\Drive_Platform\DrivePlatform.cydsn/bal.c **** STATUS BAL_SendAck(uint8 val)
  80:..\..\..\Drive_Platform\DrivePlatform.cydsn/bal.c **** {
 122              		.loc 1 80 0
 123              		.cfi_startproc
 124              		@ args = 0, pretend = 0, frame = 16
 125              		@ frame_needed = 1, uses_anonymous_args = 0
 126 0000 80B5     		push	{r7, lr}
 127              	.LCFI3:
 128              		.cfi_def_cfa_offset 8
 129 0002 84B0     		sub	sp, sp, #16
 130              	.LCFI4:
 131              		.cfi_def_cfa_offset 24
 132 0004 00AF     		add	r7, sp, #0
 133              		.cfi_offset 14, -4
 134              		.cfi_offset 7, -8
 135              	.LCFI5:
 136              		.cfi_def_cfa_register 7
 137 0006 0346     		mov	r3, r0
 138 0008 FB71     		strb	r3, [r7, #7]
  81:..\..\..\Drive_Platform\DrivePlatform.cydsn/bal.c ****     uint8 buffer[] = {  (uint8)(BAL_MSG_ID_ACK << 8), 
  82:..\..\..\Drive_Platform\DrivePlatform.cydsn/bal.c ****                         (uint8)(BAL_MSG_ID_ACK),
  83:..\..\..\Drive_Platform\DrivePlatform.cydsn/bal.c ****                         BAL_MSG_LENGTH_ACK, 
  84:..\..\..\Drive_Platform\DrivePlatform.cydsn/bal.c ****                         val
  85:..\..\..\Drive_Platform\DrivePlatform.cydsn/bal.c ****                      };
 139              		.loc 1 85 0
ARM GAS  C:\Users\Martin\AppData\Local\Temp\cc7vr5rA.s 			page 5


 140 000a 4FF00003 		mov	r3, #0
 141 000e 3B73     		strb	r3, [r7, #12]
 142 0010 4FF00103 		mov	r3, #1
 143 0014 7B73     		strb	r3, [r7, #13]
 144 0016 4FF00103 		mov	r3, #1
 145 001a BB73     		strb	r3, [r7, #14]
 146 001c FB79     		ldrb	r3, [r7, #7]
 147 001e FB73     		strb	r3, [r7, #15]
  86:..\..\..\Drive_Platform\DrivePlatform.cydsn/bal.c ****     
  87:..\..\..\Drive_Platform\DrivePlatform.cydsn/bal.c ****     
  88:..\..\..\Drive_Platform\DrivePlatform.cydsn/bal.c ****     return BPL_TransmitMessage(buffer, 4);
 148              		.loc 1 88 0
 149 0020 07F10C03 		add	r3, r7, #12
 150 0024 1846     		mov	r0, r3
 151 0026 4FF00401 		mov	r1, #4
 152 002a FFF7FEFF 		bl	BPL_TransmitMessage
 153 002e 0346     		mov	r3, r0
  89:..\..\..\Drive_Platform\DrivePlatform.cydsn/bal.c **** }
 154              		.loc 1 89 0
 155 0030 1846     		mov	r0, r3
 156 0032 07F11007 		add	r7, r7, #16
 157 0036 BD46     		mov	sp, r7
 158 0038 80BD     		pop	{r7, pc}
 159              		.cfi_endproc
 160              	.LFE30:
 161              		.size	BAL_SendAck, .-BAL_SendAck
 162 003a 00BF     		.section	.text.BAL_Init,"ax",%progbits
 163              		.align	2
 164              		.global	BAL_Init
 165              		.thumb
 166              		.thumb_func
 167              		.type	BAL_Init, %function
 168              	BAL_Init:
 169              	.LFB31:
  90:..\..\..\Drive_Platform\DrivePlatform.cydsn/bal.c **** 
  91:..\..\..\Drive_Platform\DrivePlatform.cydsn/bal.c **** /*****************************************************************/
  92:..\..\..\Drive_Platform\DrivePlatform.cydsn/bal.c **** STATUS BAL_Init(void)
  93:..\..\..\Drive_Platform\DrivePlatform.cydsn/bal.c **** {
 170              		.loc 1 93 0
 171              		.cfi_startproc
 172              		@ args = 0, pretend = 0, frame = 0
 173              		@ frame_needed = 1, uses_anonymous_args = 0
 174 0000 80B5     		push	{r7, lr}
 175              	.LCFI6:
 176              		.cfi_def_cfa_offset 8
 177 0002 82B0     		sub	sp, sp, #8
 178              	.LCFI7:
 179              		.cfi_def_cfa_offset 16
 180 0004 02AF     		add	r7, sp, #8
 181              		.cfi_offset 14, -4
 182              		.cfi_offset 7, -8
 183              	.LCFI8:
 184              		.cfi_def_cfa 7, 8
  94:..\..\..\Drive_Platform\DrivePlatform.cydsn/bal.c **** #ifdef BAL_MODULE_TEST
  95:..\..\..\Drive_Platform\DrivePlatform.cydsn/bal.c ****     //TST_SetModuleTest(BAL_ModuleTest);
  96:..\..\..\Drive_Platform\DrivePlatform.cydsn/bal.c ****     TMR_SetTimer(TIMER_4, TIMER_1SEC, BAL_ModuleTest, TIMER_MODE_CONTINUOUS, TIMER_ENABLED);
 185              		.loc 1 96 0
ARM GAS  C:\Users\Martin\AppData\Local\Temp\cc7vr5rA.s 			page 6


 186 0006 40F20003 		movw	r3, #:lower16:BAL_ModuleTest
 187 000a C0F20003 		movt	r3, #:upper16:BAL_ModuleTest
 188 000e 4FF00102 		mov	r2, #1
 189 0012 0092     		str	r2, [sp, #0]
 190 0014 4FF00400 		mov	r0, #4
 191 0018 44F24021 		movw	r1, #:lower16:1000000
 192 001c C0F20F01 		movt	r1, #:upper16:1000000
 193 0020 1A46     		mov	r2, r3
 194 0022 4FF00203 		mov	r3, #2
 195 0026 FFF7FEFF 		bl	TMR_SetTimer
  97:..\..\..\Drive_Platform\DrivePlatform.cydsn/bal.c **** #endif
  98:..\..\..\Drive_Platform\DrivePlatform.cydsn/bal.c ****     
  99:..\..\..\Drive_Platform\DrivePlatform.cydsn/bal.c **** 	return SUCCESS;
 196              		.loc 1 99 0
 197 002a 4FF00003 		mov	r3, #0
 100:..\..\..\Drive_Platform\DrivePlatform.cydsn/bal.c **** }
 198              		.loc 1 100 0
 199 002e 1846     		mov	r0, r3
 200 0030 BD46     		mov	sp, r7
 201 0032 80BD     		pop	{r7, pc}
 202              		.cfi_endproc
 203              	.LFE31:
 204              		.size	BAL_Init, .-BAL_Init
 205              		.section	.text.BAL_HandleTask,"ax",%progbits
 206              		.align	2
 207              		.global	BAL_HandleTask
 208              		.thumb
 209              		.thumb_func
 210              		.type	BAL_HandleTask, %function
 211              	BAL_HandleTask:
 212              	.LFB32:
 101:..\..\..\Drive_Platform\DrivePlatform.cydsn/bal.c **** 
 102:..\..\..\Drive_Platform\DrivePlatform.cydsn/bal.c **** 
 103:..\..\..\Drive_Platform\DrivePlatform.cydsn/bal.c **** /*****************************************************************/
 104:..\..\..\Drive_Platform\DrivePlatform.cydsn/bal.c **** STATUS BAL_HandleTask(void)
 105:..\..\..\Drive_Platform\DrivePlatform.cydsn/bal.c **** {
 213              		.loc 1 105 0
 214              		.cfi_startproc
 215              		@ args = 0, pretend = 0, frame = 0
 216              		@ frame_needed = 1, uses_anonymous_args = 0
 217              		@ link register save eliminated.
 218 0000 80B4     		push	{r7}
 219              	.LCFI9:
 220              		.cfi_def_cfa_offset 4
 221 0002 00AF     		add	r7, sp, #0
 222              		.cfi_offset 7, -4
 223              	.LCFI10:
 224              		.cfi_def_cfa_register 7
 106:..\..\..\Drive_Platform\DrivePlatform.cydsn/bal.c ****     return SUCCESS;
 225              		.loc 1 106 0
 226 0004 4FF00003 		mov	r3, #0
 107:..\..\..\Drive_Platform\DrivePlatform.cydsn/bal.c **** }
 227              		.loc 1 107 0
 228 0008 1846     		mov	r0, r3
 229 000a BD46     		mov	sp, r7
 230 000c 80BC     		pop	{r7}
 231 000e 7047     		bx	lr
ARM GAS  C:\Users\Martin\AppData\Local\Temp\cc7vr5rA.s 			page 7


 232              		.cfi_endproc
 233              	.LFE32:
 234              		.size	BAL_HandleTask, .-BAL_HandleTask
 235              		.section	.text.BAL_ModuleTest,"ax",%progbits
 236              		.align	2
 237              		.thumb
 238              		.thumb_func
 239              		.type	BAL_ModuleTest, %function
 240              	BAL_ModuleTest:
 241              	.LFB33:
 108:..\..\..\Drive_Platform\DrivePlatform.cydsn/bal.c **** 
 109:..\..\..\Drive_Platform\DrivePlatform.cydsn/bal.c **** 
 110:..\..\..\Drive_Platform\DrivePlatform.cydsn/bal.c **** /*****************************************************************/
 111:..\..\..\Drive_Platform\DrivePlatform.cydsn/bal.c **** #ifdef BAL_MODULE_TEST   
 112:..\..\..\Drive_Platform\DrivePlatform.cydsn/bal.c **** static void BAL_ModuleTest(void)
 113:..\..\..\Drive_Platform\DrivePlatform.cydsn/bal.c **** {
 242              		.loc 1 113 0
 243              		.cfi_startproc
 244              		@ args = 0, pretend = 0, frame = 0
 245              		@ frame_needed = 1, uses_anonymous_args = 0
 246 0000 80B5     		push	{r7, lr}
 247              	.LCFI11:
 248              		.cfi_def_cfa_offset 8
 249 0002 00AF     		add	r7, sp, #0
 250              		.cfi_offset 14, -4
 251              		.cfi_offset 7, -8
 252              	.LCFI12:
 253              		.cfi_def_cfa_register 7
 114:..\..\..\Drive_Platform\DrivePlatform.cydsn/bal.c ****     CDS5500_Ping(0x01);
 254              		.loc 1 114 0
 255 0004 4FF00100 		mov	r0, #1
 256 0008 FFF7FEFF 		bl	CDS5500_Ping
 115:..\..\..\Drive_Platform\DrivePlatform.cydsn/bal.c **** }
 257              		.loc 1 115 0
 258 000c 80BD     		pop	{r7, pc}
 259              		.cfi_endproc
 260              	.LFE33:
 261              		.size	BAL_ModuleTest, .-BAL_ModuleTest
 262 000e 00BF     		.text
 263              	.Letext0: