ARM GAS  C:\Users\Martin\AppData\Local\Temp\ccD9queR.s 			page 1


   1              		.syntax unified
   2              		.cpu cortex-m3
   3              		.fpu softvfp
   4              		.eabi_attribute 20, 1
   5              		.eabi_attribute 21, 1
   6              		.eabi_attribute 23, 3
   7              		.eabi_attribute 24, 1
   8              		.eabi_attribute 25, 1
   9              		.eabi_attribute 26, 1
  10              		.eabi_attribute 30, 6
  11              		.eabi_attribute 18, 4
  12              		.thumb
  13              		.file	"bpl.c"
  20 0000 DC010000 		.text
  20      02005A01 
  20      00000201 
  20      FB0E0D00 
  20      01010101 
  21              	.Ltext0:
  22              		.cfi_sections	.debug_frame
  23              		.bss
  24              		.align	2
  25              	BPL_aucReceiveBuffer:
  26 0000 00000000 		.space	256
  26      00000000 
  26      00000000 
  26      00000000 
  26      00000000 
  27              		.align	2
  28              	BPL_aucTransmitBuffer:
  29 0100 00000000 		.space	256
  29      00000000 
  29      00000000 
  29      00000000 
  29      00000000 
  30              	BPL_ucReceiveBufferIndex:
  31 0200 00       		.space	1
  32              	BPL_ucTransmitBufferIndex:
  33 0201 00       		.space	1
  34              		.section	.text.BPL_Init,"ax",%progbits
  35              		.align	2
  36              		.global	BPL_Init
  37              		.thumb
  38              		.thumb_func
  39              		.type	BPL_Init, %function
  40              	BPL_Init:
  41              	.LFB29:
  42              		.file 1 "..\\..\\..\\Drive_Platform\\DrivePlatform.cydsn\\bpl.c"
   1:..\..\..\Drive_Platform\DrivePlatform.cydsn/bpl.c **** /* Copyright (C) <2014> <Martin Schalk>
   2:..\..\..\Drive_Platform\DrivePlatform.cydsn/bpl.c ****  * All rights reserved.
   3:..\..\..\Drive_Platform\DrivePlatform.cydsn/bpl.c ****  *
ARM GAS  C:\Users\Martin\AppData\Local\Temp\ccD9queR.s 			page 2


   4:..\..\..\Drive_Platform\DrivePlatform.cydsn/bpl.c ****  * This software may be modified and distributed under the terms
   5:..\..\..\Drive_Platform\DrivePlatform.cydsn/bpl.c ****  * of the BSD license.  See the LICENSE file for details.
   6:..\..\..\Drive_Platform\DrivePlatform.cydsn/bpl.c ****  */
   7:..\..\..\Drive_Platform\DrivePlatform.cydsn/bpl.c **** 
   8:..\..\..\Drive_Platform\DrivePlatform.cydsn/bpl.c **** 
   9:..\..\..\Drive_Platform\DrivePlatform.cydsn/bpl.c **** #include <project.h>
  10:..\..\..\Drive_Platform\DrivePlatform.cydsn/bpl.c **** #include "global.h"
  11:..\..\..\Drive_Platform\DrivePlatform.cydsn/bpl.c **** #include <stdio.h>
  12:..\..\..\Drive_Platform\DrivePlatform.cydsn/bpl.c **** 
  13:..\..\..\Drive_Platform\DrivePlatform.cydsn/bpl.c **** #include "hal.h"
  14:..\..\..\Drive_Platform\DrivePlatform.cydsn/bpl.c **** #include "bpl.h"
  15:..\..\..\Drive_Platform\DrivePlatform.cydsn/bpl.c **** #include "error.h"
  16:..\..\..\Drive_Platform\DrivePlatform.cydsn/bpl.c **** #include "ring_buffer.h"
  17:..\..\..\Drive_Platform\DrivePlatform.cydsn/bpl.c **** 
  18:..\..\..\Drive_Platform\DrivePlatform.cydsn/bpl.c **** // buffers
  19:..\..\..\Drive_Platform\DrivePlatform.cydsn/bpl.c **** static uint8_t 	BPL_aucReceiveBuffer[BPL_RX_BUFFER_SIZE];
  20:..\..\..\Drive_Platform\DrivePlatform.cydsn/bpl.c **** static uint8_t 	BPL_aucTransmitBuffer[BPL_TX_BUFFER_SIZE];
  21:..\..\..\Drive_Platform\DrivePlatform.cydsn/bpl.c **** 
  22:..\..\..\Drive_Platform\DrivePlatform.cydsn/bpl.c **** static uint8_t  BPL_ucReceiveBufferIndex;
  23:..\..\..\Drive_Platform\DrivePlatform.cydsn/bpl.c **** static uint8_t  BPL_ucTransmitBufferIndex;
  24:..\..\..\Drive_Platform\DrivePlatform.cydsn/bpl.c **** 
  25:..\..\..\Drive_Platform\DrivePlatform.cydsn/bpl.c **** /*
  26:..\..\..\Drive_Platform\DrivePlatform.cydsn/bpl.c **** static STATUS BplStatus = BPL_STATUS_OK;
  27:..\..\..\Drive_Platform\DrivePlatform.cydsn/bpl.c **** */
  28:..\..\..\Drive_Platform\DrivePlatform.cydsn/bpl.c **** 
  29:..\..\..\Drive_Platform\DrivePlatform.cydsn/bpl.c **** /*******************************************************/
  30:..\..\..\Drive_Platform\DrivePlatform.cydsn/bpl.c **** STATUS BPL_Init(void)
  31:..\..\..\Drive_Platform\DrivePlatform.cydsn/bpl.c **** {
  43              		.loc 1 31 0
  44              		.cfi_startproc
  45              		@ args = 0, pretend = 0, frame = 0
  46              		@ frame_needed = 1, uses_anonymous_args = 0
  47 0000 80B5     		push	{r7, lr}
  48              	.LCFI0:
  49              		.cfi_def_cfa_offset 8
  50 0002 00AF     		add	r7, sp, #0
  51              		.cfi_offset 14, -4
  52              		.cfi_offset 7, -8
  53              	.LCFI1:
  54              		.cfi_def_cfa_register 7
  32:..\..\..\Drive_Platform\DrivePlatform.cydsn/bpl.c ****     //register buffers as ring buffers
  33:..\..\..\Drive_Platform\DrivePlatform.cydsn/bpl.c ****     BPL_ucReceiveBufferIndex = RBF_ucRegisterBuffer(BPL_aucReceiveBuffer, BPL_RX_BUFFER_SIZE);
  55              		.loc 1 33 0
  56 0004 40F20000 		movw	r0, #:lower16:BPL_aucReceiveBuffer
  57 0008 C0F20000 		movt	r0, #:upper16:BPL_aucReceiveBuffer
  58 000c 4FF48071 		mov	r1, #256
  59 0010 FFF7FEFF 		bl	RBF_ucRegisterBuffer
  60 0014 0346     		mov	r3, r0
  61 0016 1A46     		mov	r2, r3
  62 0018 40F20003 		movw	r3, #:lower16:BPL_ucReceiveBufferIndex
  63 001c C0F20003 		movt	r3, #:upper16:BPL_ucReceiveBufferIndex
  64 0020 1A70     		strb	r2, [r3, #0]
  34:..\..\..\Drive_Platform\DrivePlatform.cydsn/bpl.c ****     BPL_ucTransmitBufferIndex = RBF_ucRegisterBuffer(BPL_aucTransmitBuffer, BPL_TX_BUFFER_SIZE);
  65              		.loc 1 34 0
  66 0022 40F20000 		movw	r0, #:lower16:BPL_aucTransmitBuffer
  67 0026 C0F20000 		movt	r0, #:upper16:BPL_aucTransmitBuffer
  68 002a 4FF48071 		mov	r1, #256
ARM GAS  C:\Users\Martin\AppData\Local\Temp\ccD9queR.s 			page 3


  69 002e FFF7FEFF 		bl	RBF_ucRegisterBuffer
  70 0032 0346     		mov	r3, r0
  71 0034 1A46     		mov	r2, r3
  72 0036 40F20003 		movw	r3, #:lower16:BPL_ucTransmitBufferIndex
  73 003a C0F20003 		movt	r3, #:upper16:BPL_ucTransmitBufferIndex
  74 003e 1A70     		strb	r2, [r3, #0]
  35:..\..\..\Drive_Platform\DrivePlatform.cydsn/bpl.c ****     
  36:..\..\..\Drive_Platform\DrivePlatform.cydsn/bpl.c ****     return SUCCESS;	
  75              		.loc 1 36 0
  76 0040 4FF00003 		mov	r3, #0
  37:..\..\..\Drive_Platform\DrivePlatform.cydsn/bpl.c **** }
  77              		.loc 1 37 0
  78 0044 1846     		mov	r0, r3
  79 0046 80BD     		pop	{r7, pc}
  80              		.cfi_endproc
  81              	.LFE29:
  82              		.size	BPL_Init, .-BPL_Init
  83              		.section	.text.BPL_GetReceiveMsgCount,"ax",%progbits
  84              		.align	2
  85              		.global	BPL_GetReceiveMsgCount
  86              		.thumb
  87              		.thumb_func
  88              		.type	BPL_GetReceiveMsgCount, %function
  89              	BPL_GetReceiveMsgCount:
  90              	.LFB30:
  38:..\..\..\Drive_Platform\DrivePlatform.cydsn/bpl.c **** 
  39:..\..\..\Drive_Platform\DrivePlatform.cydsn/bpl.c **** 
  40:..\..\..\Drive_Platform\DrivePlatform.cydsn/bpl.c **** /*******************************************************/
  41:..\..\..\Drive_Platform\DrivePlatform.cydsn/bpl.c **** uint8 BPL_GetReceiveMsgCount(void)
  42:..\..\..\Drive_Platform\DrivePlatform.cydsn/bpl.c **** {
  91              		.loc 1 42 0
  92              		.cfi_startproc
  93              		@ args = 0, pretend = 0, frame = 0
  94              		@ frame_needed = 1, uses_anonymous_args = 0
  95 0000 80B5     		push	{r7, lr}
  96              	.LCFI2:
  97              		.cfi_def_cfa_offset 8
  98 0002 00AF     		add	r7, sp, #0
  99              		.cfi_offset 14, -4
 100              		.cfi_offset 7, -8
 101              	.LCFI3:
 102              		.cfi_def_cfa_register 7
  43:..\..\..\Drive_Platform\DrivePlatform.cydsn/bpl.c ****     return RBF_ucGetByteCount(BPL_ucReceiveBufferIndex);
 103              		.loc 1 43 0
 104 0004 40F20003 		movw	r3, #:lower16:BPL_ucReceiveBufferIndex
 105 0008 C0F20003 		movt	r3, #:upper16:BPL_ucReceiveBufferIndex
 106 000c 1B78     		ldrb	r3, [r3, #0]	@ zero_extendqisi2
 107 000e 1846     		mov	r0, r3
 108 0010 FFF7FEFF 		bl	RBF_ucGetByteCount
 109 0014 0346     		mov	r3, r0
  44:..\..\..\Drive_Platform\DrivePlatform.cydsn/bpl.c **** }
 110              		.loc 1 44 0
 111 0016 1846     		mov	r0, r3
 112 0018 80BD     		pop	{r7, pc}
 113              		.cfi_endproc
 114              	.LFE30:
 115              		.size	BPL_GetReceiveMsgCount, .-BPL_GetReceiveMsgCount
ARM GAS  C:\Users\Martin\AppData\Local\Temp\ccD9queR.s 			page 4


 116 001a 00BF     		.section	.text.BPL_GetMessage,"ax",%progbits
 117              		.align	2
 118              		.global	BPL_GetMessage
 119              		.thumb
 120              		.thumb_func
 121              		.type	BPL_GetMessage, %function
 122              	BPL_GetMessage:
 123              	.LFB31:
  45:..\..\..\Drive_Platform\DrivePlatform.cydsn/bpl.c **** 
  46:..\..\..\Drive_Platform\DrivePlatform.cydsn/bpl.c **** /*******************************************************/
  47:..\..\..\Drive_Platform\DrivePlatform.cydsn/bpl.c **** uint8 BPL_GetMessage(uint8* target)
  48:..\..\..\Drive_Platform\DrivePlatform.cydsn/bpl.c **** {
 124              		.loc 1 48 0
 125              		.cfi_startproc
 126              		@ args = 0, pretend = 0, frame = 16
 127              		@ frame_needed = 1, uses_anonymous_args = 0
 128 0000 80B5     		push	{r7, lr}
 129              	.LCFI4:
 130              		.cfi_def_cfa_offset 8
 131 0002 84B0     		sub	sp, sp, #16
 132              	.LCFI5:
 133              		.cfi_def_cfa_offset 24
 134 0004 00AF     		add	r7, sp, #0
 135              		.cfi_offset 14, -4
 136              		.cfi_offset 7, -8
 137              	.LCFI6:
 138              		.cfi_def_cfa_register 7
 139 0006 7860     		str	r0, [r7, #4]
  49:..\..\..\Drive_Platform\DrivePlatform.cydsn/bpl.c ****     STATUS rbfStatus;
  50:..\..\..\Drive_Platform\DrivePlatform.cydsn/bpl.c ****     uint8_t ucNumBytes;
  51:..\..\..\Drive_Platform\DrivePlatform.cydsn/bpl.c ****     
  52:..\..\..\Drive_Platform\DrivePlatform.cydsn/bpl.c ****     if (RBF_ucGetMsgCount(BPL_ucReceiveBufferIndex) == 0)
 140              		.loc 1 52 0
 141 0008 40F20003 		movw	r3, #:lower16:BPL_ucReceiveBufferIndex
 142 000c C0F20003 		movt	r3, #:upper16:BPL_ucReceiveBufferIndex
 143 0010 1B78     		ldrb	r3, [r3, #0]	@ zero_extendqisi2
 144 0012 1846     		mov	r0, r3
 145 0014 FFF7FEFF 		bl	RBF_ucGetMsgCount
 146 0018 0346     		mov	r3, r0
 147 001a 002B     		cmp	r3, #0
 148 001c 02D1     		bne	.L6
  53:..\..\..\Drive_Platform\DrivePlatform.cydsn/bpl.c ****         return 0;
 149              		.loc 1 53 0
 150 001e 4FF00003 		mov	r3, #0
 151 0022 0EE0     		b	.L7
 152              	.L6:
  54:..\..\..\Drive_Platform\DrivePlatform.cydsn/bpl.c ****     
  55:..\..\..\Drive_Platform\DrivePlatform.cydsn/bpl.c ****     rbfStatus = RBF_ucTailMsgOut(BPL_ucReceiveBufferIndex, target, &ucNumBytes);
 153              		.loc 1 55 0
 154 0024 40F20003 		movw	r3, #:lower16:BPL_ucReceiveBufferIndex
 155 0028 C0F20003 		movt	r3, #:upper16:BPL_ucReceiveBufferIndex
 156 002c 1A78     		ldrb	r2, [r3, #0]	@ zero_extendqisi2
 157 002e 07F10E03 		add	r3, r7, #14
 158 0032 1046     		mov	r0, r2
 159 0034 7968     		ldr	r1, [r7, #4]
 160 0036 1A46     		mov	r2, r3
 161 0038 FFF7FEFF 		bl	RBF_ucTailMsgOut
ARM GAS  C:\Users\Martin\AppData\Local\Temp\ccD9queR.s 			page 5


 162 003c 0346     		mov	r3, r0
 163 003e FB73     		strb	r3, [r7, #15]
  56:..\..\..\Drive_Platform\DrivePlatform.cydsn/bpl.c ****     
  57:..\..\..\Drive_Platform\DrivePlatform.cydsn/bpl.c ****     return ucNumBytes;
 164              		.loc 1 57 0
 165 0040 BB7B     		ldrb	r3, [r7, #14]	@ zero_extendqisi2
 166              	.L7:
  58:..\..\..\Drive_Platform\DrivePlatform.cydsn/bpl.c **** }
 167              		.loc 1 58 0
 168 0042 1846     		mov	r0, r3
 169 0044 07F11007 		add	r7, r7, #16
 170 0048 BD46     		mov	sp, r7
 171 004a 80BD     		pop	{r7, pc}
 172              		.cfi_endproc
 173              	.LFE31:
 174              		.size	BPL_GetMessage, .-BPL_GetMessage
 175              		.section	.text.BPL_TransmitMessage,"ax",%progbits
 176              		.align	2
 177              		.global	BPL_TransmitMessage
 178              		.thumb
 179              		.thumb_func
 180              		.type	BPL_TransmitMessage, %function
 181              	BPL_TransmitMessage:
 182              	.LFB32:
  59:..\..\..\Drive_Platform\DrivePlatform.cydsn/bpl.c **** 
  60:..\..\..\Drive_Platform\DrivePlatform.cydsn/bpl.c **** /*******************************************************/
  61:..\..\..\Drive_Platform\DrivePlatform.cydsn/bpl.c **** /**
  62:..\..\..\Drive_Platform\DrivePlatform.cydsn/bpl.c ****     Example:    Transmit servo message "CDS5500_INST_PING"
  63:..\..\..\Drive_Platform\DrivePlatform.cydsn/bpl.c ****     
  64:..\..\..\Drive_Platform\DrivePlatform.cydsn/bpl.c ****         BAL message                              BPL message:
  65:..\..\..\Drive_Platform\DrivePlatform.cydsn/bpl.c ****         
  66:..\..\..\Drive_Platform\DrivePlatform.cydsn/bpl.c ****         SB0  SB1  MID  LEN  INID PAR CHKS        LEN  SRC                           LEN
  67:..\..\..\Drive_Platform\DrivePlatform.cydsn/bpl.c ****         ---------------------------------   ==>  ---------------------------------------
  68:..\..\..\Drive_Platform\DrivePlatform.cydsn/bpl.c ****         0xFF 0xFF 0x01 0x02 0x01 -   0xFB        0x06 0xFF 0xFF 0x01 0x02 0x01 0xFB 0x06
  69:..\..\..\Drive_Platform\DrivePlatform.cydsn/bpl.c ****     
  70:..\..\..\Drive_Platform\DrivePlatform.cydsn/bpl.c ****         -> msgLength = 6
  71:..\..\..\Drive_Platform\DrivePlatform.cydsn/bpl.c **** */
  72:..\..\..\Drive_Platform\DrivePlatform.cydsn/bpl.c **** STATUS BPL_TransmitMessage(uint8* source, uint8 msgLength)
  73:..\..\..\Drive_Platform\DrivePlatform.cydsn/bpl.c **** {
 183              		.loc 1 73 0
 184              		.cfi_startproc
 185              		@ args = 0, pretend = 0, frame = 16
 186              		@ frame_needed = 1, uses_anonymous_args = 0
 187 0000 80B5     		push	{r7, lr}
 188              	.LCFI7:
 189              		.cfi_def_cfa_offset 8
 190 0002 84B0     		sub	sp, sp, #16
 191              	.LCFI8:
 192              		.cfi_def_cfa_offset 24
 193 0004 00AF     		add	r7, sp, #0
 194              		.cfi_offset 14, -4
 195              		.cfi_offset 7, -8
 196              	.LCFI9:
 197              		.cfi_def_cfa_register 7
 198 0006 7860     		str	r0, [r7, #4]
 199 0008 0B46     		mov	r3, r1
 200 000a FB70     		strb	r3, [r7, #3]
ARM GAS  C:\Users\Martin\AppData\Local\Temp\ccD9queR.s 			page 6


  74:..\..\..\Drive_Platform\DrivePlatform.cydsn/bpl.c ****     STATUS rbfStatus;
  75:..\..\..\Drive_Platform\DrivePlatform.cydsn/bpl.c ****     
  76:..\..\..\Drive_Platform\DrivePlatform.cydsn/bpl.c ****     // read message into ring buffer
  77:..\..\..\Drive_Platform\DrivePlatform.cydsn/bpl.c ****     rbfStatus = RBF_ucMsgIn(BPL_ucTransmitBufferIndex, source, msgLength);
 201              		.loc 1 77 0
 202 000c 40F20003 		movw	r3, #:lower16:BPL_ucTransmitBufferIndex
 203 0010 C0F20003 		movt	r3, #:upper16:BPL_ucTransmitBufferIndex
 204 0014 1A78     		ldrb	r2, [r3, #0]	@ zero_extendqisi2
 205 0016 FB78     		ldrb	r3, [r7, #3]	@ zero_extendqisi2
 206 0018 1046     		mov	r0, r2
 207 001a 7968     		ldr	r1, [r7, #4]
 208 001c 1A46     		mov	r2, r3
 209 001e FFF7FEFF 		bl	RBF_ucMsgIn
 210 0022 0346     		mov	r3, r0
 211 0024 FB73     		strb	r3, [r7, #15]
  78:..\..\..\Drive_Platform\DrivePlatform.cydsn/bpl.c **** 
  79:..\..\..\Drive_Platform\DrivePlatform.cydsn/bpl.c ****     return rbfStatus;	
 212              		.loc 1 79 0
 213 0026 FB7B     		ldrb	r3, [r7, #15]	@ zero_extendqisi2
  80:..\..\..\Drive_Platform\DrivePlatform.cydsn/bpl.c **** }
 214              		.loc 1 80 0
 215 0028 1846     		mov	r0, r3
 216 002a 07F11007 		add	r7, r7, #16
 217 002e BD46     		mov	sp, r7
 218 0030 80BD     		pop	{r7, pc}
 219              		.cfi_endproc
 220              	.LFE32:
 221              		.size	BPL_TransmitMessage, .-BPL_TransmitMessage
 222 0032 00BF     		.section	.text.BPL_HandleTask,"ax",%progbits
 223              		.align	2
 224              		.global	BPL_HandleTask
 225              		.thumb
 226              		.thumb_func
 227              		.type	BPL_HandleTask, %function
 228              	BPL_HandleTask:
 229              	.LFB33:
  81:..\..\..\Drive_Platform\DrivePlatform.cydsn/bpl.c **** 
  82:..\..\..\Drive_Platform\DrivePlatform.cydsn/bpl.c **** /*******************************************************/
  83:..\..\..\Drive_Platform\DrivePlatform.cydsn/bpl.c **** STATUS BPL_HandleTask(void)
  84:..\..\..\Drive_Platform\DrivePlatform.cydsn/bpl.c **** {
 230              		.loc 1 84 0
 231              		.cfi_startproc
 232              		@ args = 0, pretend = 0, frame = 40
 233              		@ frame_needed = 1, uses_anonymous_args = 0
 234 0000 80B5     		push	{r7, lr}
 235              	.LCFI10:
 236              		.cfi_def_cfa_offset 8
 237 0002 8AB0     		sub	sp, sp, #40
 238              	.LCFI11:
 239              		.cfi_def_cfa_offset 48
 240 0004 00AF     		add	r7, sp, #0
 241              		.cfi_offset 14, -4
 242              		.cfi_offset 7, -8
 243              	.LCFI12:
 244              		.cfi_def_cfa_register 7
  85:..\..\..\Drive_Platform\DrivePlatform.cydsn/bpl.c ****     STATUS rbfStatus, BplStatus;
  86:..\..\..\Drive_Platform\DrivePlatform.cydsn/bpl.c **** 	uint8_t ucNumBytes;
ARM GAS  C:\Users\Martin\AppData\Local\Temp\ccD9queR.s 			page 7


  87:..\..\..\Drive_Platform\DrivePlatform.cydsn/bpl.c ****     uint8_t ucByte;
  88:..\..\..\Drive_Platform\DrivePlatform.cydsn/bpl.c **** 	uint8_t ucMessageBuffer[BPL_MAX_MESSAGE_LENGTH];
  89:..\..\..\Drive_Platform\DrivePlatform.cydsn/bpl.c ****     
  90:..\..\..\Drive_Platform\DrivePlatform.cydsn/bpl.c **** 	/* Handle received bytes */
  91:..\..\..\Drive_Platform\DrivePlatform.cydsn/bpl.c **** 	/* --------------------- */
  92:..\..\..\Drive_Platform\DrivePlatform.cydsn/bpl.c **** 	while (HAL_GetRxIsrCount() > 0)
 245              		.loc 1 92 0
 246 0006 12E0     		b	.L12
 247              	.L13:
  93:..\..\..\Drive_Platform\DrivePlatform.cydsn/bpl.c **** 	{
  94:..\..\..\Drive_Platform\DrivePlatform.cydsn/bpl.c ****         ucByte = HAL_GetByte();
 248              		.loc 1 94 0
 249 0008 FFF7FEFF 		bl	HAL_GetByte
 250 000c 0346     		mov	r3, r0
 251 000e 87F82730 		strb	r3, [r7, #39]
  95:..\..\..\Drive_Platform\DrivePlatform.cydsn/bpl.c ****         rbfStatus = RBF_ucByteIn(BPL_ucReceiveBufferIndex, ucByte);
 252              		.loc 1 95 0
 253 0012 40F20003 		movw	r3, #:lower16:BPL_ucReceiveBufferIndex
 254 0016 C0F20003 		movt	r3, #:upper16:BPL_ucReceiveBufferIndex
 255 001a 1A78     		ldrb	r2, [r3, #0]	@ zero_extendqisi2
 256 001c 97F82730 		ldrb	r3, [r7, #39]	@ zero_extendqisi2
 257 0020 1046     		mov	r0, r2
 258 0022 1946     		mov	r1, r3
 259 0024 FFF7FEFF 		bl	RBF_ucByteIn
 260 0028 0346     		mov	r3, r0
 261 002a 87F82530 		strb	r3, [r7, #37]
 262              	.L12:
 263              		.loc 1 92 0
 264 002e FFF7FEFF 		bl	HAL_GetRxIsrCount
 265 0032 0346     		mov	r3, r0
 266 0034 002B     		cmp	r3, #0
 267 0036 E7D1     		bne	.L13
  96:..\..\..\Drive_Platform\DrivePlatform.cydsn/bpl.c ****         
  97:..\..\..\Drive_Platform\DrivePlatform.cydsn/bpl.c **** 		if (rbfStatus != RBF_SUCCESS)
  98:..\..\..\Drive_Platform\DrivePlatform.cydsn/bpl.c **** 		{
  99:..\..\..\Drive_Platform\DrivePlatform.cydsn/bpl.c **** 			//error handling
 100:..\..\..\Drive_Platform\DrivePlatform.cydsn/bpl.c **** 		}
 101:..\..\..\Drive_Platform\DrivePlatform.cydsn/bpl.c **** 	}
 102:..\..\..\Drive_Platform\DrivePlatform.cydsn/bpl.c **** 
 103:..\..\..\Drive_Platform\DrivePlatform.cydsn/bpl.c **** 	
 104:..\..\..\Drive_Platform\DrivePlatform.cydsn/bpl.c **** 	/* Handle transmission of bytes */
 105:..\..\..\Drive_Platform\DrivePlatform.cydsn/bpl.c **** 	/* ---------------------------- */
 106:..\..\..\Drive_Platform\DrivePlatform.cydsn/bpl.c ****     if (RBF_ucGetMsgCount(BPL_ucTransmitBufferIndex) > 0)
 268              		.loc 1 106 0
 269 0038 40F20003 		movw	r3, #:lower16:BPL_ucTransmitBufferIndex
 270 003c C0F20003 		movt	r3, #:upper16:BPL_ucTransmitBufferIndex
 271 0040 1B78     		ldrb	r3, [r3, #0]	@ zero_extendqisi2
 272 0042 1846     		mov	r0, r3
 273 0044 FFF7FEFF 		bl	RBF_ucGetMsgCount
 274 0048 0346     		mov	r3, r0
 275 004a 002B     		cmp	r3, #0
 276 004c 1BD0     		beq	.L14
 107:..\..\..\Drive_Platform\DrivePlatform.cydsn/bpl.c ****     {
 108:..\..\..\Drive_Platform\DrivePlatform.cydsn/bpl.c ****         rbfStatus = RBF_ucTailMsgOut(BPL_ucTransmitBufferIndex, ucMessageBuffer, &ucNumBytes);
 277              		.loc 1 108 0
 278 004e 40F20003 		movw	r3, #:lower16:BPL_ucTransmitBufferIndex
 279 0052 C0F20003 		movt	r3, #:upper16:BPL_ucTransmitBufferIndex
ARM GAS  C:\Users\Martin\AppData\Local\Temp\ccD9queR.s 			page 8


 280 0056 1978     		ldrb	r1, [r3, #0]	@ zero_extendqisi2
 281 0058 07F10402 		add	r2, r7, #4
 282 005c 07F12403 		add	r3, r7, #36
 283 0060 0846     		mov	r0, r1
 284 0062 1146     		mov	r1, r2
 285 0064 1A46     		mov	r2, r3
 286 0066 FFF7FEFF 		bl	RBF_ucTailMsgOut
 287 006a 0346     		mov	r3, r0
 288 006c 87F82530 		strb	r3, [r7, #37]
 109:..\..\..\Drive_Platform\DrivePlatform.cydsn/bpl.c ****         
 110:..\..\..\Drive_Platform\DrivePlatform.cydsn/bpl.c ****         // LENGTH | CONTENT | LENGTH
 111:..\..\..\Drive_Platform\DrivePlatform.cydsn/bpl.c **** 		BplStatus = HAL_TransmitArray(&ucMessageBuffer[0], ucNumBytes);
 289              		.loc 1 111 0
 290 0070 97F82430 		ldrb	r3, [r7, #36]	@ zero_extendqisi2
 291 0074 07F10402 		add	r2, r7, #4
 292 0078 1046     		mov	r0, r2
 293 007a 1946     		mov	r1, r3
 294 007c FFF7FEFF 		bl	HAL_TransmitArray
 295 0080 0346     		mov	r3, r0
 296 0082 87F82630 		strb	r3, [r7, #38]
 297              	.L14:
 112:..\..\..\Drive_Platform\DrivePlatform.cydsn/bpl.c ****             
 113:..\..\..\Drive_Platform\DrivePlatform.cydsn/bpl.c ****         if (rbfStatus != RBF_SUCCESS)
 114:..\..\..\Drive_Platform\DrivePlatform.cydsn/bpl.c **** 		{
 115:..\..\..\Drive_Platform\DrivePlatform.cydsn/bpl.c **** 			//error handling
 116:..\..\..\Drive_Platform\DrivePlatform.cydsn/bpl.c **** 		}
 117:..\..\..\Drive_Platform\DrivePlatform.cydsn/bpl.c **** 	}
 118:..\..\..\Drive_Platform\DrivePlatform.cydsn/bpl.c **** 	
 119:..\..\..\Drive_Platform\DrivePlatform.cydsn/bpl.c ****     
 120:..\..\..\Drive_Platform\DrivePlatform.cydsn/bpl.c ****     return BplStatus;
 298              		.loc 1 120 0
 299 0086 97F82630 		ldrb	r3, [r7, #38]	@ zero_extendqisi2
 121:..\..\..\Drive_Platform\DrivePlatform.cydsn/bpl.c **** }
 300              		.loc 1 121 0
 301 008a 1846     		mov	r0, r3
 302 008c 07F12807 		add	r7, r7, #40
 303 0090 BD46     		mov	sp, r7
 304 0092 80BD     		pop	{r7, pc}
 305              		.cfi_endproc
 306              	.LFE33:
 307              		.size	BPL_HandleTask, .-BPL_HandleTask
 308              		.section	.text.BPL_ucTest,"ax",%progbits
 309              		.align	2
 310              		.global	BPL_ucTest
 311              		.thumb
 312              		.thumb_func
 313              		.type	BPL_ucTest, %function
 314              	BPL_ucTest:
 315              	.LFB34:
 122:..\..\..\Drive_Platform\DrivePlatform.cydsn/bpl.c **** 
 123:..\..\..\Drive_Platform\DrivePlatform.cydsn/bpl.c **** /*****************************************************************/
 124:..\..\..\Drive_Platform\DrivePlatform.cydsn/bpl.c **** /*****************************************************************/
 125:..\..\..\Drive_Platform\DrivePlatform.cydsn/bpl.c **** #ifdef BPL_MODULE_TEST
 126:..\..\..\Drive_Platform\DrivePlatform.cydsn/bpl.c **** 
 127:..\..\..\Drive_Platform\DrivePlatform.cydsn/bpl.c **** void BPL_ucTest(void)
 128:..\..\..\Drive_Platform\DrivePlatform.cydsn/bpl.c **** {
 316              		.loc 1 128 0
ARM GAS  C:\Users\Martin\AppData\Local\Temp\ccD9queR.s 			page 9


 317              		.cfi_startproc
 318              		@ args = 0, pretend = 0, frame = 8
 319              		@ frame_needed = 1, uses_anonymous_args = 0
 320 0000 80B5     		push	{r7, lr}
 321              	.LCFI13:
 322              		.cfi_def_cfa_offset 8
 323 0002 82B0     		sub	sp, sp, #8
 324              	.LCFI14:
 325              		.cfi_def_cfa_offset 16
 326 0004 00AF     		add	r7, sp, #0
 327              		.cfi_offset 14, -4
 328              		.cfi_offset 7, -8
 329              	.LCFI15:
 330              		.cfi_def_cfa_register 7
 129:..\..\..\Drive_Platform\DrivePlatform.cydsn/bpl.c ****     STATUS status;
 130:..\..\..\Drive_Platform\DrivePlatform.cydsn/bpl.c ****     static uint8_t x = 0;
 131:..\..\..\Drive_Platform\DrivePlatform.cydsn/bpl.c ****     static uint8_t msg[] = {0x05, 0x06, 0x07, 0x08, 0x09};
 132:..\..\..\Drive_Platform\DrivePlatform.cydsn/bpl.c ****     
 133:..\..\..\Drive_Platform\DrivePlatform.cydsn/bpl.c ****     if (x)
 331              		.loc 1 133 0
 332 0006 40F20003 		movw	r3, #:lower16:x.3607
 333 000a C0F20003 		movt	r3, #:upper16:x.3607
 334 000e 1B78     		ldrb	r3, [r3, #0]	@ zero_extendqisi2
 335 0010 002B     		cmp	r3, #0
 336 0012 09D0     		beq	.L18
 134:..\..\..\Drive_Platform\DrivePlatform.cydsn/bpl.c ****     {
 135:..\..\..\Drive_Platform\DrivePlatform.cydsn/bpl.c ****         status = BPL_TransmitMessage(msg, 5);
 337              		.loc 1 135 0
 338 0014 40F20000 		movw	r0, #:lower16:msg.3608
 339 0018 C0F20000 		movt	r0, #:upper16:msg.3608
 340 001c 4FF00501 		mov	r1, #5
 341 0020 FFF7FEFF 		bl	BPL_TransmitMessage
 342 0024 0346     		mov	r3, r0
 343 0026 FB71     		strb	r3, [r7, #7]
 344              	.L18:
 136:..\..\..\Drive_Platform\DrivePlatform.cydsn/bpl.c ****     }
 137:..\..\..\Drive_Platform\DrivePlatform.cydsn/bpl.c **** }
 345              		.loc 1 137 0
 346 0028 07F10807 		add	r7, r7, #8
 347 002c BD46     		mov	sp, r7
 348 002e 80BD     		pop	{r7, pc}
 349              		.cfi_endproc
 350              	.LFE34:
 351              		.size	BPL_ucTest, .-BPL_ucTest
 352              		.bss
 353              	x.3607:
 354 0202 00       		.space	1
 355 0203 00       		.data
 356              		.align	2
 357              		.type	msg.3608, %object
 358              		.size	msg.3608, 5
 359              	msg.3608:
 360 0000 05       		.byte	5
 361 0001 06       		.byte	6
 362 0002 07       		.byte	7
 363 0003 08       		.byte	8
 364 0004 09       		.byte	9
ARM GAS  C:\Users\Martin\AppData\Local\Temp\ccD9queR.s 			page 10


 365 0005 000000   		.text
 366              	.Letext0: