ARM GAS  C:\Users\Martin\AppData\Local\Temp\ccnuRwY4.s 			page 1


   1              		.syntax unified
   2              		.cpu cortex-m3
   3              		.fpu softvfp
   4              		.eabi_attribute 20, 1
   5              		.eabi_attribute 21, 1
   6              		.eabi_attribute 23, 3
   7              		.eabi_attribute 24, 1
   8              		.eabi_attribute 25, 1
   9              		.eabi_attribute 26, 1
  10              		.eabi_attribute 30, 6
  11              		.eabi_attribute 18, 4
  12              		.thumb
  13              		.file	"error.c"
  20 0000 56010000 		.text
  20      0200C100 
  20      00000201 
  20      FB0E0D00 
  20      01010101 
  21              	.Ltext0:
  22              		.cfi_sections	.debug_frame
  23              		.bss
  24              		.align	2
  25              	UcVar:
  26 0000 00000000 		.space	80
  26      00000000 
  26      00000000 
  26      00000000 
  26      00000000 
  27              		.align	2
  28              	UiVar:
  29 0050 00000000 		.space	80
  29      00000000 
  29      00000000 
  29      00000000 
  29      00000000 
  30              		.section	.text.ERR_Error,"ax",%progbits
  31              		.align	2
  32              		.global	ERR_Error
  33              		.thumb
  34              		.thumb_func
  35              		.type	ERR_Error, %function
  36              	ERR_Error:
  37              	.LFB29:
  38              		.file 1 "..\\..\\..\\Drive_Platform\\DrivePlatform.cydsn\\error.c"
   1:..\..\..\Drive_Platform\DrivePlatform.cydsn/error.c **** /* Copyright (C) <2014> <Martin Schalk>
   2:..\..\..\Drive_Platform\DrivePlatform.cydsn/error.c ****  * All rights reserved.
   3:..\..\..\Drive_Platform\DrivePlatform.cydsn/error.c ****  *
   4:..\..\..\Drive_Platform\DrivePlatform.cydsn/error.c ****  * This software may be modified and distributed under the terms
   5:..\..\..\Drive_Platform\DrivePlatform.cydsn/error.c ****  * of the BSD license.  See the LICENSE file for details.
   6:..\..\..\Drive_Platform\DrivePlatform.cydsn/error.c ****  */
   7:..\..\..\Drive_Platform\DrivePlatform.cydsn/error.c **** 
ARM GAS  C:\Users\Martin\AppData\Local\Temp\ccnuRwY4.s 			page 2


   8:..\..\..\Drive_Platform\DrivePlatform.cydsn/error.c **** #include <project.h>
   9:..\..\..\Drive_Platform\DrivePlatform.cydsn/error.c **** #include "global.h"
  10:..\..\..\Drive_Platform\DrivePlatform.cydsn/error.c **** #include "error.h"
  11:..\..\..\Drive_Platform\DrivePlatform.cydsn/error.c **** #include <stdio.h>
  12:..\..\..\Drive_Platform\DrivePlatform.cydsn/error.c **** 
  13:..\..\..\Drive_Platform\DrivePlatform.cydsn/error.c **** 
  14:..\..\..\Drive_Platform\DrivePlatform.cydsn/error.c **** 
  15:..\..\..\Drive_Platform\DrivePlatform.cydsn/error.c **** static ERR_UC_VAR UcVar[ERR_NUM_UC_VARIABLES];
  16:..\..\..\Drive_Platform\DrivePlatform.cydsn/error.c **** static ERR_UI_VAR UiVar[ERR_NUM_UI_VARIABLES];
  17:..\..\..\Drive_Platform\DrivePlatform.cydsn/error.c **** //static ERR_UL_VAR UlVar[ERR_NUM_UL_VARIABLES];
  18:..\..\..\Drive_Platform\DrivePlatform.cydsn/error.c **** 
  19:..\..\..\Drive_Platform\DrivePlatform.cydsn/error.c **** /*****************************************************************/
  20:..\..\..\Drive_Platform\DrivePlatform.cydsn/error.c **** void ERR_Error(uchar type)
  21:..\..\..\Drive_Platform\DrivePlatform.cydsn/error.c **** {
  39              		.loc 1 21 0
  40              		.cfi_startproc
  41              		@ args = 0, pretend = 0, frame = 8
  42              		@ frame_needed = 1, uses_anonymous_args = 0
  43              		@ link register save eliminated.
  44 0000 80B4     		push	{r7}
  45              	.LCFI0:
  46              		.cfi_def_cfa_offset 4
  47 0002 83B0     		sub	sp, sp, #12
  48              	.LCFI1:
  49              		.cfi_def_cfa_offset 16
  50 0004 00AF     		add	r7, sp, #0
  51              		.cfi_offset 7, -4
  52              	.LCFI2:
  53              		.cfi_def_cfa_register 7
  54 0006 0346     		mov	r3, r0
  55 0008 FB71     		strb	r3, [r7, #7]
  22:..\..\..\Drive_Platform\DrivePlatform.cydsn/error.c ****     switch(type)
  56              		.loc 1 22 0
  57 000a FB79     		ldrb	r3, [r7, #7]	@ zero_extendqisi2
  58 000c A3F1FC03 		sub	r3, r3, #252
  59 0010 032B     		cmp	r3, #3
  60 0012 0DD8     		bhi	.L2
  61 0014 01A2     		adr	r2, .L7
  62 0016 52F823F0 		ldr	pc, [r2, r3, lsl #2]
  63 001a 00BF     		.align	2
  64              	.L7:
  65 001c 33000000 		.word	.L10+1
  66 0020 33000000 		.word	.L10+1
  67 0024 2F000000 		.word	.L5+1
  68 0028 2D000000 		.word	.L6+1
  69              	.L6:
  23:..\..\..\Drive_Platform\DrivePlatform.cydsn/error.c ****     {
  24:..\..\..\Drive_Platform\DrivePlatform.cydsn/error.c ****         case ERROR_CRITICAL:        
  25:..\..\..\Drive_Platform\DrivePlatform.cydsn/error.c ****                                     break;
  70              		.loc 1 25 0
  71 002c 00E0     		b	.L2
  72              	.L5:
  26:..\..\..\Drive_Platform\DrivePlatform.cydsn/error.c **** 
  27:..\..\..\Drive_Platform\DrivePlatform.cydsn/error.c ****         case ERROR_MEMORY:          
  28:..\..\..\Drive_Platform\DrivePlatform.cydsn/error.c ****                                     break;
  73              		.loc 1 28 0
  74 002e 00BF     		nop
ARM GAS  C:\Users\Martin\AppData\Local\Temp\ccnuRwY4.s 			page 3


  75              	.L2:
  29:..\..\..\Drive_Platform\DrivePlatform.cydsn/error.c ****                                     
  30:..\..\..\Drive_Platform\DrivePlatform.cydsn/error.c ****         case ERROR_WARNING:         return;
  31:..\..\..\Drive_Platform\DrivePlatform.cydsn/error.c ****                                     break;
  32:..\..\..\Drive_Platform\DrivePlatform.cydsn/error.c ****                                     
  33:..\..\..\Drive_Platform\DrivePlatform.cydsn/error.c ****         case ERROR_DEBUG:           return;
  34:..\..\..\Drive_Platform\DrivePlatform.cydsn/error.c ****                                     break;                                    
  35:..\..\..\Drive_Platform\DrivePlatform.cydsn/error.c ****                                     
  36:..\..\..\Drive_Platform\DrivePlatform.cydsn/error.c ****         default:                    break;                            
  37:..\..\..\Drive_Platform\DrivePlatform.cydsn/error.c ****     }
  38:..\..\..\Drive_Platform\DrivePlatform.cydsn/error.c ****     
  39:..\..\..\Drive_Platform\DrivePlatform.cydsn/error.c ****     while(1)
  40:..\..\..\Drive_Platform\DrivePlatform.cydsn/error.c ****     {
  41:..\..\..\Drive_Platform\DrivePlatform.cydsn/error.c ****         /* do nothing */
  42:..\..\..\Drive_Platform\DrivePlatform.cydsn/error.c ****     }
  76              		.loc 1 42 0
  77 0030 FEE7     		b	.L2
  78              	.L10:
  79              		.loc 1 33 0
  80 0032 00BF     		nop
  81              	.L9:
  43:..\..\..\Drive_Platform\DrivePlatform.cydsn/error.c **** }
  82              		.loc 1 43 0
  83 0034 07F10C07 		add	r7, r7, #12
  84 0038 BD46     		mov	sp, r7
  85 003a 80BC     		pop	{r7}
  86 003c 7047     		bx	lr
  87              		.cfi_endproc
  88              	.LFE29:
  89              		.size	ERR_Error, .-ERR_Error
  90 003e 00BF     		.section	.text.ERR_Init,"ax",%progbits
  91              		.align	2
  92              		.global	ERR_Init
  93              		.thumb
  94              		.thumb_func
  95              		.type	ERR_Init, %function
  96              	ERR_Init:
  97              	.LFB30:
  44:..\..\..\Drive_Platform\DrivePlatform.cydsn/error.c **** 
  45:..\..\..\Drive_Platform\DrivePlatform.cydsn/error.c **** 
  46:..\..\..\Drive_Platform\DrivePlatform.cydsn/error.c **** /*****************************************************************/
  47:..\..\..\Drive_Platform\DrivePlatform.cydsn/error.c **** STATUS ERR_Init(void)
  48:..\..\..\Drive_Platform\DrivePlatform.cydsn/error.c **** {  
  98              		.loc 1 48 0
  99              		.cfi_startproc
 100              		@ args = 0, pretend = 0, frame = 0
 101              		@ frame_needed = 1, uses_anonymous_args = 0
 102 0000 80B5     		push	{r7, lr}
 103              	.LCFI3:
 104              		.cfi_def_cfa_offset 8
 105 0002 00AF     		add	r7, sp, #0
 106              		.cfi_offset 14, -4
 107              		.cfi_offset 7, -8
 108              	.LCFI4:
 109              		.cfi_def_cfa_register 7
  49:..\..\..\Drive_Platform\DrivePlatform.cydsn/error.c ****     memset(UcVar, 0x00, sizeof(UcVar));
 110              		.loc 1 49 0
ARM GAS  C:\Users\Martin\AppData\Local\Temp\ccnuRwY4.s 			page 4


 111 0004 40F20000 		movw	r0, #:lower16:UcVar
 112 0008 C0F20000 		movt	r0, #:upper16:UcVar
 113 000c 4FF00001 		mov	r1, #0
 114 0010 4FF05002 		mov	r2, #80
 115 0014 FFF7FEFF 		bl	memset
  50:..\..\..\Drive_Platform\DrivePlatform.cydsn/error.c ****     memset(UiVar, 0x00, sizeof(UcVar));
 116              		.loc 1 50 0
 117 0018 40F20000 		movw	r0, #:lower16:UiVar
 118 001c C0F20000 		movt	r0, #:upper16:UiVar
 119 0020 4FF00001 		mov	r1, #0
 120 0024 4FF05002 		mov	r2, #80
 121 0028 FFF7FEFF 		bl	memset
  51:..\..\..\Drive_Platform\DrivePlatform.cydsn/error.c ****     //memset(UlVar, 0x00, sizeof(UcVar));
  52:..\..\..\Drive_Platform\DrivePlatform.cydsn/error.c ****     
  53:..\..\..\Drive_Platform\DrivePlatform.cydsn/error.c ****     return SUCCESS; 
 122              		.loc 1 53 0
 123 002c 4FF00003 		mov	r3, #0
  54:..\..\..\Drive_Platform\DrivePlatform.cydsn/error.c **** }
 124              		.loc 1 54 0
 125 0030 1846     		mov	r0, r3
 126 0032 80BD     		pop	{r7, pc}
 127              		.cfi_endproc
 128              	.LFE30:
 129              		.size	ERR_Init, .-ERR_Init
 130              		.section	.text.ERR_RegisterUcVariable,"ax",%progbits
 131              		.align	2
 132              		.global	ERR_RegisterUcVariable
 133              		.thumb
 134              		.thumb_func
 135              		.type	ERR_RegisterUcVariable, %function
 136              	ERR_RegisterUcVariable:
 137              	.LFB31:
  55:..\..\..\Drive_Platform\DrivePlatform.cydsn/error.c **** 
  56:..\..\..\Drive_Platform\DrivePlatform.cydsn/error.c **** 
  57:..\..\..\Drive_Platform\DrivePlatform.cydsn/error.c **** /*****************************************************************/
  58:..\..\..\Drive_Platform\DrivePlatform.cydsn/error.c **** uchar ERR_RegisterUcVariable(const uint8* ptrUcVar, const char* name, const uint8 min, const uint8 
  59:..\..\..\Drive_Platform\DrivePlatform.cydsn/error.c **** {  
 138              		.loc 1 59 0
 139              		.cfi_startproc
 140              		@ args = 0, pretend = 0, frame = 24
 141              		@ frame_needed = 1, uses_anonymous_args = 0
 142 0000 80B5     		push	{r7, lr}
 143              	.LCFI5:
 144              		.cfi_def_cfa_offset 8
 145 0002 86B0     		sub	sp, sp, #24
 146              	.LCFI6:
 147              		.cfi_def_cfa_offset 32
 148 0004 00AF     		add	r7, sp, #0
 149              		.cfi_offset 14, -4
 150              		.cfi_offset 7, -8
 151              	.LCFI7:
 152              		.cfi_def_cfa_register 7
 153 0006 F860     		str	r0, [r7, #12]
 154 0008 B960     		str	r1, [r7, #8]
 155 000a FA71     		strb	r2, [r7, #7]
 156 000c BB71     		strb	r3, [r7, #6]
  60:..\..\..\Drive_Platform\DrivePlatform.cydsn/error.c ****     uchar idx = 0;
ARM GAS  C:\Users\Martin\AppData\Local\Temp\ccnuRwY4.s 			page 5


 157              		.loc 1 60 0
 158 000e 4FF00003 		mov	r3, #0
 159 0012 FB75     		strb	r3, [r7, #23]
  61:..\..\..\Drive_Platform\DrivePlatform.cydsn/error.c ****     
  62:..\..\..\Drive_Platform\DrivePlatform.cydsn/error.c ****     /* search for free index */
  63:..\..\..\Drive_Platform\DrivePlatform.cydsn/error.c ****     while ((UcVar[idx].ucAddr != NULL) && (idx < ERR_NUM_UC_VARIABLES))
 160              		.loc 1 63 0
 161 0014 03E0     		b	.L14
 162              	.L16:
  64:..\..\..\Drive_Platform\DrivePlatform.cydsn/error.c ****     {
  65:..\..\..\Drive_Platform\DrivePlatform.cydsn/error.c ****         idx++;
 163              		.loc 1 65 0
 164 0016 FB7D     		ldrb	r3, [r7, #23]
 165 0018 03F10103 		add	r3, r3, #1
 166 001c FB75     		strb	r3, [r7, #23]
 167              	.L14:
 168              		.loc 1 63 0
 169 001e FA7D     		ldrb	r2, [r7, #23]	@ zero_extendqisi2
 170 0020 40F20003 		movw	r3, #:lower16:UcVar
 171 0024 C0F20003 		movt	r3, #:upper16:UcVar
 172 0028 4FEA0212 		lsl	r2, r2, #4
 173 002c 1344     		add	r3, r2, r3
 174 002e 1B68     		ldr	r3, [r3, #0]
 175 0030 002B     		cmp	r3, #0
 176 0032 02D0     		beq	.L15
 177 0034 FB7D     		ldrb	r3, [r7, #23]	@ zero_extendqisi2
 178 0036 042B     		cmp	r3, #4
 179 0038 EDD9     		bls	.L16
 180              	.L15:
  66:..\..\..\Drive_Platform\DrivePlatform.cydsn/error.c ****     }
  67:..\..\..\Drive_Platform\DrivePlatform.cydsn/error.c ****     
  68:..\..\..\Drive_Platform\DrivePlatform.cydsn/error.c ****     /* if free index available, save variable pointer */
  69:..\..\..\Drive_Platform\DrivePlatform.cydsn/error.c ****     if (idx < ERR_NUM_UC_VARIABLES)
 181              		.loc 1 69 0
 182 003a FB7D     		ldrb	r3, [r7, #23]	@ zero_extendqisi2
 183 003c 042B     		cmp	r3, #4
 184 003e 36D8     		bhi	.L17
  70:..\..\..\Drive_Platform\DrivePlatform.cydsn/error.c ****     {
  71:..\..\..\Drive_Platform\DrivePlatform.cydsn/error.c ****         UcVar[idx].ucAddr = ptrUcVar;
 185              		.loc 1 71 0
 186 0040 FA7D     		ldrb	r2, [r7, #23]	@ zero_extendqisi2
 187 0042 40F20003 		movw	r3, #:lower16:UcVar
 188 0046 C0F20003 		movt	r3, #:upper16:UcVar
 189 004a 4FEA0212 		lsl	r2, r2, #4
 190 004e 1344     		add	r3, r2, r3
 191 0050 FA68     		ldr	r2, [r7, #12]
 192 0052 1A60     		str	r2, [r3, #0]
  72:..\..\..\Drive_Platform\DrivePlatform.cydsn/error.c ****         strncpy(UcVar[idx].ucName, name, ERR_NAME_LENGTH);
 193              		.loc 1 72 0
 194 0054 FB7D     		ldrb	r3, [r7, #23]	@ zero_extendqisi2
 195 0056 4FEA0312 		lsl	r2, r3, #4
 196 005a 40F20003 		movw	r3, #:lower16:UcVar
 197 005e C0F20003 		movt	r3, #:upper16:UcVar
 198 0062 1344     		add	r3, r2, r3
 199 0064 03F10403 		add	r3, r3, #4
 200 0068 1846     		mov	r0, r3
 201 006a B968     		ldr	r1, [r7, #8]
ARM GAS  C:\Users\Martin\AppData\Local\Temp\ccnuRwY4.s 			page 6


 202 006c 4FF00802 		mov	r2, #8
 203 0070 FFF7FEFF 		bl	strncpy
  73:..\..\..\Drive_Platform\DrivePlatform.cydsn/error.c ****         UcVar[idx].ucMin = min;
 204              		.loc 1 73 0
 205 0074 FB7D     		ldrb	r3, [r7, #23]	@ zero_extendqisi2
 206 0076 40F20002 		movw	r2, #:lower16:UcVar
 207 007a C0F20002 		movt	r2, #:upper16:UcVar
 208 007e 4FEA4303 		lsl	r3, r3, #1
 209 0082 03F10103 		add	r3, r3, #1
 210 0086 4FEAC303 		lsl	r3, r3, #3
 211 008a 1344     		add	r3, r3, r2
 212 008c FA79     		ldrb	r2, [r7, #7]
 213 008e 5A71     		strb	r2, [r3, #5]
  74:..\..\..\Drive_Platform\DrivePlatform.cydsn/error.c ****         UcVar[idx].ucMax = max;
 214              		.loc 1 74 0
 215 0090 FB7D     		ldrb	r3, [r7, #23]	@ zero_extendqisi2
 216 0092 40F20002 		movw	r2, #:lower16:UcVar
 217 0096 C0F20002 		movt	r2, #:upper16:UcVar
 218 009a 4FEA4303 		lsl	r3, r3, #1
 219 009e 03F10103 		add	r3, r3, #1
 220 00a2 4FEAC303 		lsl	r3, r3, #3
 221 00a6 1344     		add	r3, r3, r2
 222 00a8 BA79     		ldrb	r2, [r7, #6]
 223 00aa 1A71     		strb	r2, [r3, #4]
 224 00ac 02E0     		b	.L18
 225              	.L17:
  75:..\..\..\Drive_Platform\DrivePlatform.cydsn/error.c ****     }
  76:..\..\..\Drive_Platform\DrivePlatform.cydsn/error.c ****     /* if not return !SUCCESS */
  77:..\..\..\Drive_Platform\DrivePlatform.cydsn/error.c ****     else
  78:..\..\..\Drive_Platform\DrivePlatform.cydsn/error.c ****     {
  79:..\..\..\Drive_Platform\DrivePlatform.cydsn/error.c ****         idx = !SUCCESS;
 226              		.loc 1 79 0
 227 00ae 4FF00103 		mov	r3, #1
 228 00b2 FB75     		strb	r3, [r7, #23]
 229              	.L18:
  80:..\..\..\Drive_Platform\DrivePlatform.cydsn/error.c ****     }
  81:..\..\..\Drive_Platform\DrivePlatform.cydsn/error.c ****     
  82:..\..\..\Drive_Platform\DrivePlatform.cydsn/error.c ****     return idx;
 230              		.loc 1 82 0
 231 00b4 FB7D     		ldrb	r3, [r7, #23]	@ zero_extendqisi2
  83:..\..\..\Drive_Platform\DrivePlatform.cydsn/error.c **** }
 232              		.loc 1 83 0
 233 00b6 1846     		mov	r0, r3
 234 00b8 07F11807 		add	r7, r7, #24
 235 00bc BD46     		mov	sp, r7
 236 00be 80BD     		pop	{r7, pc}
 237              		.cfi_endproc
 238              	.LFE31:
 239              		.size	ERR_RegisterUcVariable, .-ERR_RegisterUcVariable
 240              		.section	.text.ERR_RegisterUiVariable,"ax",%progbits
 241              		.align	2
 242              		.global	ERR_RegisterUiVariable
 243              		.thumb
 244              		.thumb_func
 245              		.type	ERR_RegisterUiVariable, %function
 246              	ERR_RegisterUiVariable:
 247              	.LFB32:
ARM GAS  C:\Users\Martin\AppData\Local\Temp\ccnuRwY4.s 			page 7


  84:..\..\..\Drive_Platform\DrivePlatform.cydsn/error.c **** 
  85:..\..\..\Drive_Platform\DrivePlatform.cydsn/error.c **** /*****************************************************************/
  86:..\..\..\Drive_Platform\DrivePlatform.cydsn/error.c **** uchar ERR_RegisterUiVariable(const uint16* ptrUiVar, const char* name, const uint16 min, const uint
  87:..\..\..\Drive_Platform\DrivePlatform.cydsn/error.c **** {  
 248              		.loc 1 87 0
 249              		.cfi_startproc
 250              		@ args = 0, pretend = 0, frame = 24
 251              		@ frame_needed = 1, uses_anonymous_args = 0
 252 0000 80B5     		push	{r7, lr}
 253              	.LCFI8:
 254              		.cfi_def_cfa_offset 8
 255 0002 86B0     		sub	sp, sp, #24
 256              	.LCFI9:
 257              		.cfi_def_cfa_offset 32
 258 0004 00AF     		add	r7, sp, #0
 259              		.cfi_offset 14, -4
 260              		.cfi_offset 7, -8
 261              	.LCFI10:
 262              		.cfi_def_cfa_register 7
 263 0006 F860     		str	r0, [r7, #12]
 264 0008 B960     		str	r1, [r7, #8]
 265 000a FA80     		strh	r2, [r7, #6]	@ movhi
 266 000c BB80     		strh	r3, [r7, #4]	@ movhi
  88:..\..\..\Drive_Platform\DrivePlatform.cydsn/error.c ****     uchar idx = 0;
 267              		.loc 1 88 0
 268 000e 4FF00003 		mov	r3, #0
 269 0012 FB75     		strb	r3, [r7, #23]
  89:..\..\..\Drive_Platform\DrivePlatform.cydsn/error.c ****     
  90:..\..\..\Drive_Platform\DrivePlatform.cydsn/error.c ****     /* search for free index */
  91:..\..\..\Drive_Platform\DrivePlatform.cydsn/error.c ****     while ((UiVar[idx].uiAddr != NULL) && (idx < ERR_NUM_UI_VARIABLES))
 270              		.loc 1 91 0
 271 0014 03E0     		b	.L21
 272              	.L23:
  92:..\..\..\Drive_Platform\DrivePlatform.cydsn/error.c ****     {
  93:..\..\..\Drive_Platform\DrivePlatform.cydsn/error.c ****         idx++;
 273              		.loc 1 93 0
 274 0016 FB7D     		ldrb	r3, [r7, #23]
 275 0018 03F10103 		add	r3, r3, #1
 276 001c FB75     		strb	r3, [r7, #23]
 277              	.L21:
 278              		.loc 1 91 0
 279 001e FA7D     		ldrb	r2, [r7, #23]	@ zero_extendqisi2
 280 0020 40F20003 		movw	r3, #:lower16:UiVar
 281 0024 C0F20003 		movt	r3, #:upper16:UiVar
 282 0028 4FEA0212 		lsl	r2, r2, #4
 283 002c 1344     		add	r3, r2, r3
 284 002e 1B68     		ldr	r3, [r3, #0]
 285 0030 002B     		cmp	r3, #0
 286 0032 02D0     		beq	.L22
 287 0034 FB7D     		ldrb	r3, [r7, #23]	@ zero_extendqisi2
 288 0036 042B     		cmp	r3, #4
 289 0038 EDD9     		bls	.L23
 290              	.L22:
  94:..\..\..\Drive_Platform\DrivePlatform.cydsn/error.c ****     }
  95:..\..\..\Drive_Platform\DrivePlatform.cydsn/error.c ****     
  96:..\..\..\Drive_Platform\DrivePlatform.cydsn/error.c ****     /* if free index available, save variable pointer */
  97:..\..\..\Drive_Platform\DrivePlatform.cydsn/error.c ****     if (idx < ERR_NUM_UI_VARIABLES)
ARM GAS  C:\Users\Martin\AppData\Local\Temp\ccnuRwY4.s 			page 8


 291              		.loc 1 97 0
 292 003a FB7D     		ldrb	r3, [r7, #23]	@ zero_extendqisi2
 293 003c 042B     		cmp	r3, #4
 294 003e 36D8     		bhi	.L24
  98:..\..\..\Drive_Platform\DrivePlatform.cydsn/error.c ****     {
  99:..\..\..\Drive_Platform\DrivePlatform.cydsn/error.c ****         UiVar[idx].uiAddr = ptrUiVar;
 295              		.loc 1 99 0
 296 0040 FA7D     		ldrb	r2, [r7, #23]	@ zero_extendqisi2
 297 0042 40F20003 		movw	r3, #:lower16:UiVar
 298 0046 C0F20003 		movt	r3, #:upper16:UiVar
 299 004a 4FEA0212 		lsl	r2, r2, #4
 300 004e 1344     		add	r3, r2, r3
 301 0050 FA68     		ldr	r2, [r7, #12]
 302 0052 1A60     		str	r2, [r3, #0]
 100:..\..\..\Drive_Platform\DrivePlatform.cydsn/error.c ****         strncpy(UiVar[idx].ucName, name, ERR_NAME_LENGTH);
 303              		.loc 1 100 0
 304 0054 FB7D     		ldrb	r3, [r7, #23]	@ zero_extendqisi2
 305 0056 4FEA0312 		lsl	r2, r3, #4
 306 005a 40F20003 		movw	r3, #:lower16:UiVar
 307 005e C0F20003 		movt	r3, #:upper16:UiVar
 308 0062 1344     		add	r3, r2, r3
 309 0064 03F10403 		add	r3, r3, #4
 310 0068 1846     		mov	r0, r3
 311 006a B968     		ldr	r1, [r7, #8]
 312 006c 4FF00802 		mov	r2, #8
 313 0070 FFF7FEFF 		bl	strncpy
 101:..\..\..\Drive_Platform\DrivePlatform.cydsn/error.c ****         UiVar[idx].uiMin = min;
 314              		.loc 1 101 0
 315 0074 FB7D     		ldrb	r3, [r7, #23]	@ zero_extendqisi2
 316 0076 40F20002 		movw	r2, #:lower16:UiVar
 317 007a C0F20002 		movt	r2, #:upper16:UiVar
 318 007e 4FEA4303 		lsl	r3, r3, #1
 319 0082 03F10103 		add	r3, r3, #1
 320 0086 4FEAC303 		lsl	r3, r3, #3
 321 008a 1344     		add	r3, r3, r2
 322 008c FA88     		ldrh	r2, [r7, #6]	@ movhi
 323 008e DA80     		strh	r2, [r3, #6]	@ movhi
 102:..\..\..\Drive_Platform\DrivePlatform.cydsn/error.c ****         UiVar[idx].uiMax = max;
 324              		.loc 1 102 0
 325 0090 FB7D     		ldrb	r3, [r7, #23]	@ zero_extendqisi2
 326 0092 40F20002 		movw	r2, #:lower16:UiVar
 327 0096 C0F20002 		movt	r2, #:upper16:UiVar
 328 009a 4FEA4303 		lsl	r3, r3, #1
 329 009e 03F10103 		add	r3, r3, #1
 330 00a2 4FEAC303 		lsl	r3, r3, #3
 331 00a6 1344     		add	r3, r3, r2
 332 00a8 BA88     		ldrh	r2, [r7, #4]	@ movhi
 333 00aa 9A80     		strh	r2, [r3, #4]	@ movhi
 334 00ac 02E0     		b	.L25
 335              	.L24:
 103:..\..\..\Drive_Platform\DrivePlatform.cydsn/error.c ****     }
 104:..\..\..\Drive_Platform\DrivePlatform.cydsn/error.c ****     /* if not return !SUCCESS */
 105:..\..\..\Drive_Platform\DrivePlatform.cydsn/error.c ****     else
 106:..\..\..\Drive_Platform\DrivePlatform.cydsn/error.c ****     {
 107:..\..\..\Drive_Platform\DrivePlatform.cydsn/error.c ****         idx = !SUCCESS;
 336              		.loc 1 107 0
 337 00ae 4FF00103 		mov	r3, #1
ARM GAS  C:\Users\Martin\AppData\Local\Temp\ccnuRwY4.s 			page 9


 338 00b2 FB75     		strb	r3, [r7, #23]
 339              	.L25:
 108:..\..\..\Drive_Platform\DrivePlatform.cydsn/error.c ****     }
 109:..\..\..\Drive_Platform\DrivePlatform.cydsn/error.c ****     
 110:..\..\..\Drive_Platform\DrivePlatform.cydsn/error.c ****     return idx;
 340              		.loc 1 110 0
 341 00b4 FB7D     		ldrb	r3, [r7, #23]	@ zero_extendqisi2
 111:..\..\..\Drive_Platform\DrivePlatform.cydsn/error.c **** }
 342              		.loc 1 111 0
 343 00b6 1846     		mov	r0, r3
 344 00b8 07F11807 		add	r7, r7, #24
 345 00bc BD46     		mov	sp, r7
 346 00be 80BD     		pop	{r7, pc}
 347              		.cfi_endproc
 348              	.LFE32:
 349              		.size	ERR_RegisterUiVariable, .-ERR_RegisterUiVariable
 350              		.section	.text.ERR_HandleTask,"ax",%progbits
 351              		.align	2
 352              		.global	ERR_HandleTask
 353              		.thumb
 354              		.thumb_func
 355              		.type	ERR_HandleTask, %function
 356              	ERR_HandleTask:
 357              	.LFB33:
 112:..\..\..\Drive_Platform\DrivePlatform.cydsn/error.c **** 
 113:..\..\..\Drive_Platform\DrivePlatform.cydsn/error.c **** 
 114:..\..\..\Drive_Platform\DrivePlatform.cydsn/error.c **** 
 115:..\..\..\Drive_Platform\DrivePlatform.cydsn/error.c **** /*****************************************************************/
 116:..\..\..\Drive_Platform\DrivePlatform.cydsn/error.c **** STATUS ERR_HandleTask(void)
 117:..\..\..\Drive_Platform\DrivePlatform.cydsn/error.c **** {
 358              		.loc 1 117 0
 359              		.cfi_startproc
 360              		@ args = 0, pretend = 0, frame = 8
 361              		@ frame_needed = 1, uses_anonymous_args = 0
 362 0000 80B5     		push	{r7, lr}
 363              	.LCFI11:
 364              		.cfi_def_cfa_offset 8
 365 0002 82B0     		sub	sp, sp, #8
 366              	.LCFI12:
 367              		.cfi_def_cfa_offset 16
 368 0004 00AF     		add	r7, sp, #0
 369              		.cfi_offset 14, -4
 370              		.cfi_offset 7, -8
 371              	.LCFI13:
 372              		.cfi_def_cfa_register 7
 118:..\..\..\Drive_Platform\DrivePlatform.cydsn/error.c ****     uchar idx = 0;
 373              		.loc 1 118 0
 374 0006 4FF00003 		mov	r3, #0
 375 000a 3B71     		strb	r3, [r7, #4]
 119:..\..\..\Drive_Platform\DrivePlatform.cydsn/error.c ****     uint8 ucVal;
 120:..\..\..\Drive_Platform\DrivePlatform.cydsn/error.c ****     uint16 uiVal;
 121:..\..\..\Drive_Platform\DrivePlatform.cydsn/error.c ****     
 122:..\..\..\Drive_Platform\DrivePlatform.cydsn/error.c ****     /* check uc variables */
 123:..\..\..\Drive_Platform\DrivePlatform.cydsn/error.c ****     while ((UcVar[idx].ucAddr != NULL) && (idx < ERR_NUM_UC_VARIABLES))
 376              		.loc 1 123 0
 377 000c 32E0     		b	.L28
 378              	.L32:
ARM GAS  C:\Users\Martin\AppData\Local\Temp\ccnuRwY4.s 			page 10


 124:..\..\..\Drive_Platform\DrivePlatform.cydsn/error.c ****     {
 125:..\..\..\Drive_Platform\DrivePlatform.cydsn/error.c ****         ucVal = *(UcVar[idx].ucAddr);
 379              		.loc 1 125 0
 380 000e 3A79     		ldrb	r2, [r7, #4]	@ zero_extendqisi2
 381 0010 40F20003 		movw	r3, #:lower16:UcVar
 382 0014 C0F20003 		movt	r3, #:upper16:UcVar
 383 0018 4FEA0212 		lsl	r2, r2, #4
 384 001c 1344     		add	r3, r2, r3
 385 001e 1B68     		ldr	r3, [r3, #0]
 386 0020 1B78     		ldrb	r3, [r3, #0]
 387 0022 7B71     		strb	r3, [r7, #5]
 126:..\..\..\Drive_Platform\DrivePlatform.cydsn/error.c ****         if ((ucVal < UcVar[idx].ucMin) || (ucVal > UcVar[idx].ucMax))
 388              		.loc 1 126 0
 389 0024 3B79     		ldrb	r3, [r7, #4]	@ zero_extendqisi2
 390 0026 40F20002 		movw	r2, #:lower16:UcVar
 391 002a C0F20002 		movt	r2, #:upper16:UcVar
 392 002e 4FEA4303 		lsl	r3, r3, #1
 393 0032 03F10103 		add	r3, r3, #1
 394 0036 4FEAC303 		lsl	r3, r3, #3
 395 003a 1344     		add	r3, r3, r2
 396 003c 5B79     		ldrb	r3, [r3, #5]	@ zero_extendqisi2
 397 003e 7A79     		ldrb	r2, [r7, #5]	@ zero_extendqisi2
 398 0040 9A42     		cmp	r2, r3
 399 0042 0FD3     		bcc	.L29
 400 0044 3B79     		ldrb	r3, [r7, #4]	@ zero_extendqisi2
 401 0046 40F20002 		movw	r2, #:lower16:UcVar
 402 004a C0F20002 		movt	r2, #:upper16:UcVar
 403 004e 4FEA4303 		lsl	r3, r3, #1
 404 0052 03F10103 		add	r3, r3, #1
 405 0056 4FEAC303 		lsl	r3, r3, #3
 406 005a 1344     		add	r3, r3, r2
 407 005c 1B79     		ldrb	r3, [r3, #4]	@ zero_extendqisi2
 408 005e 7A79     		ldrb	r2, [r7, #5]	@ zero_extendqisi2
 409 0060 9A42     		cmp	r2, r3
 410 0062 03D9     		bls	.L30
 411              	.L29:
 127:..\..\..\Drive_Platform\DrivePlatform.cydsn/error.c ****         {
 128:..\..\..\Drive_Platform\DrivePlatform.cydsn/error.c ****             ERR_Error(ERROR_MEMORY);
 412              		.loc 1 128 0
 413 0064 4FF0FE00 		mov	r0, #254
 414 0068 FFF7FEFF 		bl	ERR_Error
 415              	.L30:
 129:..\..\..\Drive_Platform\DrivePlatform.cydsn/error.c ****         }
 130:..\..\..\Drive_Platform\DrivePlatform.cydsn/error.c ****         idx++;
 416              		.loc 1 130 0
 417 006c 3B79     		ldrb	r3, [r7, #4]
 418 006e 03F10103 		add	r3, r3, #1
 419 0072 3B71     		strb	r3, [r7, #4]
 420              	.L28:
 421              		.loc 1 123 0
 422 0074 3A79     		ldrb	r2, [r7, #4]	@ zero_extendqisi2
 423 0076 40F20003 		movw	r3, #:lower16:UcVar
 424 007a C0F20003 		movt	r3, #:upper16:UcVar
 425 007e 4FEA0212 		lsl	r2, r2, #4
 426 0082 1344     		add	r3, r2, r3
 427 0084 1B68     		ldr	r3, [r3, #0]
 428 0086 002B     		cmp	r3, #0
ARM GAS  C:\Users\Martin\AppData\Local\Temp\ccnuRwY4.s 			page 11


 429 0088 37D0     		beq	.L39
 430 008a 3B79     		ldrb	r3, [r7, #4]	@ zero_extendqisi2
 431 008c 042B     		cmp	r3, #4
 432 008e BED9     		bls	.L32
 131:..\..\..\Drive_Platform\DrivePlatform.cydsn/error.c ****     }
 132:..\..\..\Drive_Platform\DrivePlatform.cydsn/error.c ****     
 133:..\..\..\Drive_Platform\DrivePlatform.cydsn/error.c ****     /* check ui variables */
 134:..\..\..\Drive_Platform\DrivePlatform.cydsn/error.c ****     while ((UiVar[idx].uiAddr != NULL) && (idx < ERR_NUM_UI_VARIABLES))
 433              		.loc 1 134 0
 434 0090 34E0     		b	.L33
 435              	.L37:
 135:..\..\..\Drive_Platform\DrivePlatform.cydsn/error.c ****     {
 136:..\..\..\Drive_Platform\DrivePlatform.cydsn/error.c ****         uiVal = *(UiVar[idx].uiAddr);
 436              		.loc 1 136 0
 437 0092 3A79     		ldrb	r2, [r7, #4]	@ zero_extendqisi2
 438 0094 40F20003 		movw	r3, #:lower16:UiVar
 439 0098 C0F20003 		movt	r3, #:upper16:UiVar
 440 009c 4FEA0212 		lsl	r2, r2, #4
 441 00a0 1344     		add	r3, r2, r3
 442 00a2 1B68     		ldr	r3, [r3, #0]
 443 00a4 1B88     		ldrh	r3, [r3, #0]	@ movhi
 444 00a6 FB80     		strh	r3, [r7, #6]	@ movhi
 137:..\..\..\Drive_Platform\DrivePlatform.cydsn/error.c ****         if ((uiVal < UiVar[idx].uiMin) || (uiVal > UiVar[idx].uiMax))
 445              		.loc 1 137 0
 446 00a8 3B79     		ldrb	r3, [r7, #4]	@ zero_extendqisi2
 447 00aa 40F20002 		movw	r2, #:lower16:UiVar
 448 00ae C0F20002 		movt	r2, #:upper16:UiVar
 449 00b2 4FEA4303 		lsl	r3, r3, #1
 450 00b6 03F10103 		add	r3, r3, #1
 451 00ba 4FEAC303 		lsl	r3, r3, #3
 452 00be 1344     		add	r3, r3, r2
 453 00c0 DB88     		ldrh	r3, [r3, #6]
 454 00c2 FA88     		ldrh	r2, [r7, #6]
 455 00c4 9A42     		cmp	r2, r3
 456 00c6 0FD3     		bcc	.L34
 457 00c8 3B79     		ldrb	r3, [r7, #4]	@ zero_extendqisi2
 458 00ca 40F20002 		movw	r2, #:lower16:UiVar
 459 00ce C0F20002 		movt	r2, #:upper16:UiVar
 460 00d2 4FEA4303 		lsl	r3, r3, #1
 461 00d6 03F10103 		add	r3, r3, #1
 462 00da 4FEAC303 		lsl	r3, r3, #3
 463 00de 1344     		add	r3, r3, r2
 464 00e0 9B88     		ldrh	r3, [r3, #4]
 465 00e2 FA88     		ldrh	r2, [r7, #6]
 466 00e4 9A42     		cmp	r2, r3
 467 00e6 03D9     		bls	.L35
 468              	.L34:
 138:..\..\..\Drive_Platform\DrivePlatform.cydsn/error.c ****         {
 139:..\..\..\Drive_Platform\DrivePlatform.cydsn/error.c ****             ERR_Error(ERROR_MEMORY);
 469              		.loc 1 139 0
 470 00e8 4FF0FE00 		mov	r0, #254
 471 00ec FFF7FEFF 		bl	ERR_Error
 472              	.L35:
 140:..\..\..\Drive_Platform\DrivePlatform.cydsn/error.c ****         }
 141:..\..\..\Drive_Platform\DrivePlatform.cydsn/error.c ****         idx++;
 473              		.loc 1 141 0
 474 00f0 3B79     		ldrb	r3, [r7, #4]
ARM GAS  C:\Users\Martin\AppData\Local\Temp\ccnuRwY4.s 			page 12


 475 00f2 03F10103 		add	r3, r3, #1
 476 00f6 3B71     		strb	r3, [r7, #4]
 477 00f8 00E0     		b	.L33
 478              	.L39:
 479              		.loc 1 134 0
 480 00fa 00BF     		nop
 481              	.L33:
 482 00fc 3A79     		ldrb	r2, [r7, #4]	@ zero_extendqisi2
 483 00fe 40F20003 		movw	r3, #:lower16:UiVar
 484 0102 C0F20003 		movt	r3, #:upper16:UiVar
 485 0106 4FEA0212 		lsl	r2, r2, #4
 486 010a 1344     		add	r3, r2, r3
 487 010c 1B68     		ldr	r3, [r3, #0]
 488 010e 002B     		cmp	r3, #0
 489 0110 02D0     		beq	.L36
 490 0112 3B79     		ldrb	r3, [r7, #4]	@ zero_extendqisi2
 491 0114 042B     		cmp	r3, #4
 492 0116 BCD9     		bls	.L37
 493              	.L36:
 142:..\..\..\Drive_Platform\DrivePlatform.cydsn/error.c ****     }
 143:..\..\..\Drive_Platform\DrivePlatform.cydsn/error.c **** 
 144:..\..\..\Drive_Platform\DrivePlatform.cydsn/error.c ****     return SUCCESS;
 494              		.loc 1 144 0
 495 0118 4FF00003 		mov	r3, #0
 145:..\..\..\Drive_Platform\DrivePlatform.cydsn/error.c **** }...
 496              		.loc 1 145 0
 497 011c 1846     		mov	r0, r3
 498 011e 07F10807 		add	r7, r7, #8
 499 0122 BD46     		mov	sp, r7
 500 0124 80BD     		pop	{r7, pc}
 501              		.cfi_endproc
 502              	.LFE33:
 503              		.size	ERR_HandleTask, .-ERR_HandleTask
 504 0126 00BF     		.text
 505              	.Letext0: