ARM GAS  C:\Users\Martin\AppData\Local\Temp\ccyFYqsT.s 			page 1


   1              		.syntax unified
   2              		.cpu cortex-m3
   3              		.fpu softvfp
   4              		.eabi_attribute 20, 1
   5              		.eabi_attribute 21, 1
   6              		.eabi_attribute 23, 3
   7              		.eabi_attribute 24, 1
   8              		.eabi_attribute 25, 1
   9              		.eabi_attribute 26, 1
  10              		.eabi_attribute 30, 6
  11              		.eabi_attribute 18, 4
  12              		.thumb
  13              		.file	"main.c"
  20 0000 81000000 		.text
  20      02006000 
  20      00000201 
  20      FB0E0D00 
  20      01010101 
  21              	.Ltext0:
  22              		.cfi_sections	.debug_frame
  23              		.section	.text.main,"ax",%progbits
  24              		.align	2
  25              		.global	main
  26              		.thumb
  27              		.thumb_func
  28              		.type	main, %function
  29              	main:
  30              	.LFB29:
  31              		.file 1 ".\\main.c"
   1:.\main.c      **** /* Copyright (C) <2014> <Martin Schalk>
   2:.\main.c      ****  * All rights reserved.
   3:.\main.c      ****  *
   4:.\main.c      ****  * This software may be modified and distributed under the terms
   5:.\main.c      ****  * of the BSD license.  See the LICENSE file for details.
   6:.\main.c      ****  */
   7:.\main.c      **** 
   8:.\main.c      **** #include <project.h>
   9:.\main.c      **** #include "servo_cds5500.h"
  10:.\main.c      **** #include "bal.h"
  11:.\main.c      **** #include "hal.h"
  12:.\main.c      **** #include "bpl.h"
  13:.\main.c      **** #include "tmr.h"
  14:.\main.c      **** #include "test.h"
  15:.\main.c      **** #include "scheduler.h"
  16:.\main.c      **** 
  17:.\main.c      **** #include "global.h"
  18:.\main.c      **** 
  19:.\main.c      **** int main()
  20:.\main.c      **** {
  32              		.loc 1 20 0
  33              		.cfi_startproc
ARM GAS  C:\Users\Martin\AppData\Local\Temp\ccyFYqsT.s 			page 2


  34              		@ args = 0, pretend = 0, frame = 16
  35              		@ frame_needed = 1, uses_anonymous_args = 0
  36 0000 80B5     		push	{r7, lr}
  37              	.LCFI0:
  38              		.cfi_def_cfa_offset 8
  39 0002 84B0     		sub	sp, sp, #16
  40              	.LCFI1:
  41              		.cfi_def_cfa_offset 24
  42 0004 00AF     		add	r7, sp, #0
  43              		.cfi_offset 14, -4
  44              		.cfi_offset 7, -8
  45              	.LCFI2:
  46              		.cfi_def_cfa_register 7
  21:.\main.c      **** 	STATUS status;
  22:.\main.c      ****     
  23:.\main.c      **** #ifdef SCH_DEBUG    
  24:.\main.c      ****     int loopCount=0;
  47              		.loc 1 24 0
  48 0006 4FF00003 		mov	r3, #0
  49 000a BB60     		str	r3, [r7, #8]
  25:.\main.c      ****     uchar debug = 1;
  50              		.loc 1 25 0
  51 000c 4FF00103 		mov	r3, #1
  52 0010 FB73     		strb	r3, [r7, #15]
  26:.\main.c      **** #endif
  27:.\main.c      **** 
  28:.\main.c      **** 	/* Initialization */
  29:.\main.c      **** 	/* -------------- */
  30:.\main.c      **** 	CyGlobalIntEnable; /* Enable interrupts */
  53              		.loc 1 30 0
  54              	@ 30 ".\main.c" 1
  55 0012 62B6     		CPSIE   i
  56              	@ 0 "" 2
  57              		.thumb
  58 0014 02E0     		b	.L3
  59              	.L5:
  31:.\main.c      **** 
  32:.\main.c      **** 
  33:.\main.c      **** #ifdef SCH_DEBUG
  34:.\main.c      ****     //SCH_ShowCurrentTasks();
  35:.\main.c      **** #endif
  36:.\main.c      **** 
  37:.\main.c      ****     for(;;)
  38:.\main.c      ****     {
  39:.\main.c      ****         SCH_TaskHandler();
  40:.\main.c      **** 
  41:.\main.c      **** #ifdef SCH_DEBUG
  42:.\main.c      ****         if ((debug == 1) && (++loopCount > 10)) 
  43:.\main.c      ****         {
  44:.\main.c      ****             //SCH_ShowCurrentTasks();
  45:.\main.c      ****             debug = 0;
  46:.\main.c      ****         }
  47:.\main.c      **** #endif
  48:.\main.c      **** 
  49:.\main.c      **** 
  50:.\main.c      ****     }
  60              		.loc 1 50 0
ARM GAS  C:\Users\Martin\AppData\Local\Temp\ccyFYqsT.s 			page 3


  61 0016 00BF     		nop
  62 0018 00E0     		b	.L3
  63              	.L6:
  64 001a 00BF     		nop
  65              	.L3:
  66              		.loc 1 39 0
  67 001c FFF7FEFF 		bl	SCH_TaskHandler
  68              		.loc 1 42 0
  69 0020 FB7B     		ldrb	r3, [r7, #15]	@ zero_extendqisi2
  70 0022 012B     		cmp	r3, #1
  71 0024 F7D1     		bne	.L5
  72 0026 BB68     		ldr	r3, [r7, #8]
  73 0028 03F10103 		add	r3, r3, #1
  74 002c BB60     		str	r3, [r7, #8]
  75 002e BB68     		ldr	r3, [r7, #8]
  76 0030 0A2B     		cmp	r3, #10
  77 0032 F2DD     		ble	.L6
  78              		.loc 1 45 0
  79 0034 4FF00003 		mov	r3, #0
  80 0038 FB73     		strb	r3, [r7, #15]
  81              		.loc 1 50 0
  82 003a EFE7     		b	.L3
  83              		.cfi_endproc
  84              	.LFE29:
  85              		.size	main, .-main
  86              		.text
  87              	.Letext0: