ARM GAS  C:\Users\Martin\AppData\Local\Temp\cc3Gs5ox.s 			page 1


   1              		.syntax unified
   2              		.cpu cortex-m3
   3              		.fpu softvfp
   4              		.eabi_attribute 20, 1
   5              		.eabi_attribute 21, 1
   6              		.eabi_attribute 23, 3
   7              		.eabi_attribute 24, 1
   8              		.eabi_attribute 25, 1
   9              		.eabi_attribute 26, 1
  10              		.eabi_attribute 30, 6
  11              		.eabi_attribute 18, 4
  12              		.thumb
  13              		.file	"move.c"
  20 0000 89000000 		.text
  20      02006100 
  20      00000201 
  20      FB0E0D00 
  20      01010101 
  21              	.Ltext0:
  22              		.cfi_sections	.debug_frame
  23              		.section	.text.MOV_Init,"ax",%progbits
  24              		.align	2
  25              		.global	MOV_Init
  26              		.thumb
  27              		.thumb_func
  28              		.type	MOV_Init, %function
  29              	MOV_Init:
  30              	.LFB29:
  31              		.file 1 ".\\move.c"
   1:.\move.c      **** /* Copyright (C) <2014> <Martin Schalk>
   2:.\move.c      ****  * All rights reserved.
   3:.\move.c      ****  *
   4:.\move.c      ****  * This software may be modified and distributed under the terms
   5:.\move.c      ****  * of the BSD license.  See the LICENSE file for details.
   6:.\move.c      ****  */
   7:.\move.c      ****  
   8:.\move.c      **** #include <project.h>
   9:.\move.c      **** #include <stdio.h>
  10:.\move.c      **** #include "types.h"
  11:.\move.c      **** #include "move.h"
  12:.\move.c      **** #include "servo_cds5500.h"
  13:.\move.c      **** 
  14:.\move.c      **** //#include "bal.h"
  15:.\move.c      **** #include "global.h"
  16:.\move.c      **** //#include "tmr.h"
  17:.\move.c      **** 
  18:.\move.c      **** //static CDS5500_STATUS Servo1;
  19:.\move.c      **** 
  20:.\move.c      **** 
  21:.\move.c      **** 
  22:.\move.c      **** /*****************************************************************/
ARM GAS  C:\Users\Martin\AppData\Local\Temp\cc3Gs5ox.s 			page 2


  23:.\move.c      **** STATUS MOV_Init(void)
  24:.\move.c      **** {
  32              		.loc 1 24 0
  33              		.cfi_startproc
  34              		@ args = 0, pretend = 0, frame = 0
  35              		@ frame_needed = 1, uses_anonymous_args = 0
  36              		@ link register save eliminated.
  37 0000 80B4     		push	{r7}
  38              	.LCFI0:
  39              		.cfi_def_cfa_offset 4
  40 0002 00AF     		add	r7, sp, #0
  41              		.cfi_offset 7, -4
  42              	.LCFI1:
  43              		.cfi_def_cfa_register 7
  25:.\move.c      ****     return SUCCESS;
  44              		.loc 1 25 0
  45 0004 4FF00003 		mov	r3, #0
  26:.\move.c      **** }
  46              		.loc 1 26 0
  47 0008 1846     		mov	r0, r3
  48 000a BD46     		mov	sp, r7
  49 000c 80BC     		pop	{r7}
  50 000e 7047     		bx	lr
  51              		.cfi_endproc
  52              	.LFE29:
  53              		.size	MOV_Init, .-MOV_Init
  54              		.section	.text.MOV_HandleTask,"ax",%progbits
  55              		.align	2
  56              		.global	MOV_HandleTask
  57              		.thumb
  58              		.thumb_func
  59              		.type	MOV_HandleTask, %function
  60              	MOV_HandleTask:
  61              	.LFB30:
  27:.\move.c      **** 
  28:.\move.c      **** /*****************************************************************/
  29:.\move.c      **** STATUS MOV_HandleTask(void)
  30:.\move.c      **** {
  62              		.loc 1 30 0
  63              		.cfi_startproc
  64              		@ args = 0, pretend = 0, frame = 8
  65              		@ frame_needed = 1, uses_anonymous_args = 0
  66              		@ link register save eliminated.
  67 0000 80B4     		push	{r7}
  68              	.LCFI2:
  69              		.cfi_def_cfa_offset 4
  70 0002 83B0     		sub	sp, sp, #12
  71              	.LCFI3:
  72              		.cfi_def_cfa_offset 16
  73 0004 00AF     		add	r7, sp, #0
  74              		.cfi_offset 7, -4
  75              	.LCFI4:
  76              		.cfi_def_cfa_register 7
  31:.\move.c      ****     STATUS balStatus;
  32:.\move.c      **** 
  33:.\move.c      ****     return balStatus;
  77              		.loc 1 33 0
ARM GAS  C:\Users\Martin\AppData\Local\Temp\cc3Gs5ox.s 			page 3


  78 0006 FB79     		ldrb	r3, [r7, #7]	@ zero_extendqisi2
  34:.\move.c      **** }
  79              		.loc 1 34 0
  80 0008 1846     		mov	r0, r3
  81 000a 07F10C07 		add	r7, r7, #12
  82 000e BD46     		mov	sp, r7
  83 0010 80BC     		pop	{r7}
  84 0012 7047     		bx	lr
  85              		.cfi_endproc
  86              	.LFE30:
  87              		.size	MOV_HandleTask, .-MOV_HandleTask
  88              		.text
  89              	.Letext0: