ARM GAS  C:\Users\Martin\AppData\Local\Temp\ccvCCZX2.s 			page 1


   1              		.syntax unified
   2              		.cpu cortex-m3
   3              		.fpu softvfp
   4              		.eabi_attribute 20, 1
   5              		.eabi_attribute 21, 1
   6              		.eabi_attribute 23, 3
   7              		.eabi_attribute 24, 1
   8              		.eabi_attribute 25, 1
   9              		.eabi_attribute 26, 1
  10              		.eabi_attribute 30, 6
  11              		.eabi_attribute 18, 4
  12              		.thumb
  13              		.file	"ring_buffer.c"
  20 0000 96030000 		.text
  20      02002201 
  20      00000201 
  20      FB0E0D00 
  20      01010101 
  21              	.Ltext0:
  22              		.cfi_sections	.debug_frame
  23              		.bss
  24              		.align	2
  25              	RingBuffer:
  26 0000 00000000 		.space	40
  26      00000000 
  26      00000000 
  26      00000000 
  26      00000000 
  27              		.section	.text.RBF_ucInit,"ax",%progbits
  28              		.align	2
  29              		.global	RBF_ucInit
  30              		.thumb
  31              		.thumb_func
  32              		.type	RBF_ucInit, %function
  33              	RBF_ucInit:
  34              	.LFB29:
  35              		.file 1 ".\\ring_buffer.c"
   1:.\ring_buffer.c **** /* Copyright (C) <2014> <Martin Schalk>
   2:.\ring_buffer.c ****  * All rights reserved.
   3:.\ring_buffer.c ****  *
   4:.\ring_buffer.c ****  * This software may be modified and distributed under the terms
   5:.\ring_buffer.c ****  * of the BSD license.  See the LICENSE file for details.
   6:.\ring_buffer.c ****  */
   7:.\ring_buffer.c **** 
   8:.\ring_buffer.c ****  
   9:.\ring_buffer.c ****  
  10:.\ring_buffer.c ****  
  11:.\ring_buffer.c **** /** COMMENTS
  12:.\ring_buffer.c **** 
  13:.\ring_buffer.c **** */
  14:.\ring_buffer.c **** 
ARM GAS  C:\Users\Martin\AppData\Local\Temp\ccvCCZX2.s 			page 2


  15:.\ring_buffer.c **** #include "global.h"
  16:.\ring_buffer.c **** #include "types.h"
  17:.\ring_buffer.c **** #include "ring_buffer.h"
  18:.\ring_buffer.c **** #include <stdio.h>
  19:.\ring_buffer.c ****  
  20:.\ring_buffer.c **** 
  21:.\ring_buffer.c **** static RING_BUFFER RingBuffer[RBF_NUM];
  22:.\ring_buffer.c ****  
  23:.\ring_buffer.c **** /* ----------------------------------------------------------------- */
  24:.\ring_buffer.c **** /* --------------------- STATIC FUNCTIONS -------------------------- */ 
  25:.\ring_buffer.c **** /* ----------------------------------------------------------------- */
  26:.\ring_buffer.c **** static uint8_t IncHead(uint8_t ucIdx);
  27:.\ring_buffer.c **** static uint8_t DecHead(uint8_t ucIdx);
  28:.\ring_buffer.c **** static uint8_t IncTail(uint8_t ucIdx);
  29:.\ring_buffer.c **** //static uint8_t DecTail(uint8_t ucIdx);
  30:.\ring_buffer.c **** 
  31:.\ring_buffer.c **** /* ----------------------------------------------------------------- */
  32:.\ring_buffer.c **** /* --------------------- GLOBAL FUNCTIONS -------------------------- */
  33:.\ring_buffer.c **** /* ----------------------------------------------------------------- */
  34:.\ring_buffer.c **** /*****************************************************************/
  35:.\ring_buffer.c **** STATUS RBF_ucInit(void)
  36:.\ring_buffer.c **** {
  36              		.loc 1 36 0
  37              		.cfi_startproc
  38              		@ args = 0, pretend = 0, frame = 0
  39              		@ frame_needed = 1, uses_anonymous_args = 0
  40 0000 80B5     		push	{r7, lr}
  41              	.LCFI0:
  42              		.cfi_def_cfa_offset 8
  43 0002 00AF     		add	r7, sp, #0
  44              		.cfi_offset 14, -4
  45              		.cfi_offset 7, -8
  46              	.LCFI1:
  47              		.cfi_def_cfa_register 7
  37:.\ring_buffer.c ****     static int stest = sizeof(RingBuffer);
  38:.\ring_buffer.c ****     (void)stest;
  39:.\ring_buffer.c ****      
  40:.\ring_buffer.c ****     memset(RingBuffer, 0x00, sizeof(RingBuffer));
  48              		.loc 1 40 0
  49 0004 40F20000 		movw	r0, #:lower16:RingBuffer
  50 0008 C0F20000 		movt	r0, #:upper16:RingBuffer
  51 000c 4FF00001 		mov	r1, #0
  52 0010 4FF02802 		mov	r2, #40
  53 0014 FFF7FEFF 		bl	memset
  41:.\ring_buffer.c ****     
  42:.\ring_buffer.c ****     return SUCCESS;
  54              		.loc 1 42 0
  55 0018 4FF00003 		mov	r3, #0
  43:.\ring_buffer.c **** } 
  56              		.loc 1 43 0
  57 001c 1846     		mov	r0, r3
  58 001e 80BD     		pop	{r7, pc}
  59              		.cfi_endproc
  60              	.LFE29:
  61              		.size	RBF_ucInit, .-RBF_ucInit
  62              		.section	.text.RBF_ucClearBuffer,"ax",%progbits
  63              		.align	2
ARM GAS  C:\Users\Martin\AppData\Local\Temp\ccvCCZX2.s 			page 3


  64              		.global	RBF_ucClearBuffer
  65              		.thumb
  66              		.thumb_func
  67              		.type	RBF_ucClearBuffer, %function
  68              	RBF_ucClearBuffer:
  69              	.LFB30:
  44:.\ring_buffer.c **** 
  45:.\ring_buffer.c **** /*****************************************************************/
  46:.\ring_buffer.c **** uint8_t RBF_ucClearBuffer(uint8_t ucIndex)
  47:.\ring_buffer.c **** {
  70              		.loc 1 47 0
  71              		.cfi_startproc
  72              		@ args = 0, pretend = 0, frame = 16
  73              		@ frame_needed = 1, uses_anonymous_args = 0
  74 0000 80B5     		push	{r7, lr}
  75              	.LCFI2:
  76              		.cfi_def_cfa_offset 8
  77 0002 84B0     		sub	sp, sp, #16
  78              	.LCFI3:
  79              		.cfi_def_cfa_offset 24
  80 0004 00AF     		add	r7, sp, #0
  81              		.cfi_offset 14, -4
  82              		.cfi_offset 7, -8
  83              	.LCFI4:
  84              		.cfi_def_cfa_register 7
  85 0006 0346     		mov	r3, r0
  86 0008 FB71     		strb	r3, [r7, #7]
  48:.\ring_buffer.c **** 	STATUS status;
  49:.\ring_buffer.c **** 
  50:.\ring_buffer.c ****     if ((RingBuffer[ucIndex].address != NULLPTR) && (RingBuffer[ucIndex].size > 1))
  87              		.loc 1 50 0
  88 000a F979     		ldrb	r1, [r7, #7]	@ zero_extendqisi2
  89 000c 40F20002 		movw	r2, #:lower16:RingBuffer
  90 0010 C0F20002 		movt	r2, #:upper16:RingBuffer
  91 0014 0B46     		mov	r3, r1
  92 0016 4FEA8303 		lsl	r3, r3, #2
  93 001a 0B44     		add	r3, r3, r1
  94 001c 4FEA8303 		lsl	r3, r3, #2
  95 0020 1344     		add	r3, r3, r2
  96 0022 03F10403 		add	r3, r3, #4
  97 0026 1B68     		ldr	r3, [r3, #0]
  98 0028 002B     		cmp	r3, #0
  99 002a 7BD0     		beq	.L4
 100 002c F979     		ldrb	r1, [r7, #7]	@ zero_extendqisi2
 101 002e 40F20002 		movw	r2, #:lower16:RingBuffer
 102 0032 C0F20002 		movt	r2, #:upper16:RingBuffer
 103 0036 0B46     		mov	r3, r1
 104 0038 4FEA8303 		lsl	r3, r3, #2
 105 003c 0B44     		add	r3, r3, r1
 106 003e 4FEA8303 		lsl	r3, r3, #2
 107 0042 1344     		add	r3, r3, r2
 108 0044 03F10803 		add	r3, r3, #8
 109 0048 1B88     		ldrh	r3, [r3, #0]
 110 004a 012B     		cmp	r3, #1
 111 004c 6AD9     		bls	.L4
  51:.\ring_buffer.c **** 	{		
  52:.\ring_buffer.c **** 		memset(RingBuffer[ucIndex].address, 0x00, RingBuffer[ucIndex].size);
ARM GAS  C:\Users\Martin\AppData\Local\Temp\ccvCCZX2.s 			page 4


 112              		.loc 1 52 0
 113 004e F979     		ldrb	r1, [r7, #7]	@ zero_extendqisi2
 114 0050 40F20002 		movw	r2, #:lower16:RingBuffer
 115 0054 C0F20002 		movt	r2, #:upper16:RingBuffer
 116 0058 0B46     		mov	r3, r1
 117 005a 4FEA8303 		lsl	r3, r3, #2
 118 005e 0B44     		add	r3, r3, r1
 119 0060 4FEA8303 		lsl	r3, r3, #2
 120 0064 1344     		add	r3, r3, r2
 121 0066 03F10403 		add	r3, r3, #4
 122 006a 1868     		ldr	r0, [r3, #0]
 123 006c F979     		ldrb	r1, [r7, #7]	@ zero_extendqisi2
 124 006e 40F20002 		movw	r2, #:lower16:RingBuffer
 125 0072 C0F20002 		movt	r2, #:upper16:RingBuffer
 126 0076 0B46     		mov	r3, r1
 127 0078 4FEA8303 		lsl	r3, r3, #2
 128 007c 0B44     		add	r3, r3, r1
 129 007e 4FEA8303 		lsl	r3, r3, #2
 130 0082 1344     		add	r3, r3, r2
 131 0084 03F10803 		add	r3, r3, #8
 132 0088 1B88     		ldrh	r3, [r3, #0]
 133 008a 4FF00001 		mov	r1, #0
 134 008e 1A46     		mov	r2, r3
 135 0090 FFF7FEFF 		bl	memset
  53:.\ring_buffer.c **** 		RingBuffer[ucIndex].head = 0;
 136              		.loc 1 53 0
 137 0094 F979     		ldrb	r1, [r7, #7]	@ zero_extendqisi2
 138 0096 40F20002 		movw	r2, #:lower16:RingBuffer
 139 009a C0F20002 		movt	r2, #:upper16:RingBuffer
 140 009e 0B46     		mov	r3, r1
 141 00a0 4FEA8303 		lsl	r3, r3, #2
 142 00a4 0B44     		add	r3, r3, r1
 143 00a6 4FEA8303 		lsl	r3, r3, #2
 144 00aa 1344     		add	r3, r3, r2
 145 00ac 03F10803 		add	r3, r3, #8
 146 00b0 4FF00002 		mov	r2, #0
 147 00b4 5A80     		strh	r2, [r3, #2]	@ movhi
  54:.\ring_buffer.c **** 		RingBuffer[ucIndex].tail = 0;
 148              		.loc 1 54 0
 149 00b6 F979     		ldrb	r1, [r7, #7]	@ zero_extendqisi2
 150 00b8 40F20002 		movw	r2, #:lower16:RingBuffer
 151 00bc C0F20002 		movt	r2, #:upper16:RingBuffer
 152 00c0 0B46     		mov	r3, r1
 153 00c2 4FEA8303 		lsl	r3, r3, #2
 154 00c6 0B44     		add	r3, r3, r1
 155 00c8 4FEA8303 		lsl	r3, r3, #2
 156 00cc 1344     		add	r3, r3, r2
 157 00ce 03F10803 		add	r3, r3, #8
 158 00d2 4FF00002 		mov	r2, #0
 159 00d6 9A80     		strh	r2, [r3, #4]	@ movhi
  55:.\ring_buffer.c ****         RingBuffer[ucIndex].zb = 0;
 160              		.loc 1 55 0
 161 00d8 F979     		ldrb	r1, [r7, #7]	@ zero_extendqisi2
 162 00da 40F20002 		movw	r2, #:lower16:RingBuffer
 163 00de C0F20002 		movt	r2, #:upper16:RingBuffer
 164 00e2 0B46     		mov	r3, r1
 165 00e4 4FEA8303 		lsl	r3, r3, #2
ARM GAS  C:\Users\Martin\AppData\Local\Temp\ccvCCZX2.s 			page 5


 166 00e8 0B44     		add	r3, r3, r1
 167 00ea 4FEA8303 		lsl	r3, r3, #2
 168 00ee 1344     		add	r3, r3, r2
 169 00f0 03F10803 		add	r3, r3, #8
 170 00f4 4FF00002 		mov	r2, #0
 171 00f8 9A71     		strb	r2, [r3, #6]
  56:.\ring_buffer.c **** 		RingBuffer[ucIndex].msgcount = 0;
 172              		.loc 1 56 0
 173 00fa F979     		ldrb	r1, [r7, #7]	@ zero_extendqisi2
 174 00fc 40F20002 		movw	r2, #:lower16:RingBuffer
 175 0100 C0F20002 		movt	r2, #:upper16:RingBuffer
 176 0104 0B46     		mov	r3, r1
 177 0106 4FEA8303 		lsl	r3, r3, #2
 178 010a 0B44     		add	r3, r3, r1
 179 010c 4FEA8303 		lsl	r3, r3, #2
 180 0110 1344     		add	r3, r3, r2
 181 0112 03F11003 		add	r3, r3, #16
 182 0116 4FF00002 		mov	r2, #0
 183 011a 1A80     		strh	r2, [r3, #0]	@ movhi
  57:.\ring_buffer.c **** 		
  58:.\ring_buffer.c **** 		status = RBF_SUCCESS;
 184              		.loc 1 58 0
 185 011c 4FF00003 		mov	r3, #0
 186 0120 FB73     		strb	r3, [r7, #15]
 187              		.loc 1 50 0
 188 0122 02E0     		b	.L5
 189              	.L4:
  59:.\ring_buffer.c **** 	}
  60:.\ring_buffer.c **** 	else
  61:.\ring_buffer.c ****     {
  62:.\ring_buffer.c ****         status = RBF_INVALID_PARAMETERS;
 190              		.loc 1 62 0
 191 0124 6FF00103 		mvn	r3, #1
 192 0128 FB73     		strb	r3, [r7, #15]
 193              	.L5:
  63:.\ring_buffer.c ****     }
  64:.\ring_buffer.c **** 	
  65:.\ring_buffer.c **** 	return status;
 194              		.loc 1 65 0
 195 012a FB7B     		ldrb	r3, [r7, #15]	@ zero_extendqisi2
  66:.\ring_buffer.c **** } 
 196              		.loc 1 66 0
 197 012c 1846     		mov	r0, r3
 198 012e 07F11007 		add	r7, r7, #16
 199 0132 BD46     		mov	sp, r7
 200 0134 80BD     		pop	{r7, pc}
 201              		.cfi_endproc
 202              	.LFE30:
 203              		.size	RBF_ucClearBuffer, .-RBF_ucClearBuffer
 204 0136 00BF     		.section	.text.RBF_ucRegisterBuffer,"ax",%progbits
 205              		.align	2
 206              		.global	RBF_ucRegisterBuffer
 207              		.thumb
 208              		.thumb_func
 209              		.type	RBF_ucRegisterBuffer, %function
 210              	RBF_ucRegisterBuffer:
 211              	.LFB31:
ARM GAS  C:\Users\Martin\AppData\Local\Temp\ccvCCZX2.s 			page 6


  67:.\ring_buffer.c **** /*****************************************************************/
  68:.\ring_buffer.c **** uint8_t RBF_ucRegisterBuffer(uint8_t* pucAddr, uint16_t uiSize)
  69:.\ring_buffer.c **** {
 212              		.loc 1 69 0
 213              		.cfi_startproc
 214              		@ args = 0, pretend = 0, frame = 16
 215              		@ frame_needed = 1, uses_anonymous_args = 0
 216 0000 80B5     		push	{r7, lr}
 217              	.LCFI5:
 218              		.cfi_def_cfa_offset 8
 219 0002 84B0     		sub	sp, sp, #16
 220              	.LCFI6:
 221              		.cfi_def_cfa_offset 24
 222 0004 00AF     		add	r7, sp, #0
 223              		.cfi_offset 14, -4
 224              		.cfi_offset 7, -8
 225              	.LCFI7:
 226              		.cfi_def_cfa_register 7
 227 0006 7860     		str	r0, [r7, #4]
 228 0008 0B46     		mov	r3, r1
 229 000a 7B80     		strh	r3, [r7, #2]	@ movhi
  70:.\ring_buffer.c ****     uint8_t ucIndex = 0;
 230              		.loc 1 70 0
 231 000c 4FF00003 		mov	r3, #0
 232 0010 FB73     		strb	r3, [r7, #15]
  71:.\ring_buffer.c ****     
  72:.\ring_buffer.c ****     if ((pucAddr != NULLPTR) && (uiSize > 1))
 233              		.loc 1 72 0
 234 0012 7B68     		ldr	r3, [r7, #4]
 235 0014 002B     		cmp	r3, #0
 236 0016 00F0AE80 		beq	.L8
 237 001a 7B88     		ldrh	r3, [r7, #2]
 238 001c 012B     		cmp	r3, #1
 239 001e 40F2AA80 		bls	.L8
  73:.\ring_buffer.c ****     {
  74:.\ring_buffer.c ****         while (ucIndex < RBF_NUM)
 240              		.loc 1 74 0
 241 0022 9DE0     		b	.L9
 242              	.L12:
  75:.\ring_buffer.c ****         {
  76:.\ring_buffer.c ****             if (RingBuffer[ucIndex].address == 0)
 243              		.loc 1 76 0
 244 0024 F97B     		ldrb	r1, [r7, #15]	@ zero_extendqisi2
 245 0026 40F20002 		movw	r2, #:lower16:RingBuffer
 246 002a C0F20002 		movt	r2, #:upper16:RingBuffer
 247 002e 0B46     		mov	r3, r1
 248 0030 4FEA8303 		lsl	r3, r3, #2
 249 0034 0B44     		add	r3, r3, r1
 250 0036 4FEA8303 		lsl	r3, r3, #2
 251 003a 1344     		add	r3, r3, r2
 252 003c 03F10403 		add	r3, r3, #4
 253 0040 1B68     		ldr	r3, [r3, #0]
 254 0042 002B     		cmp	r3, #0
 255 0044 40F08880 		bne	.L10
  77:.\ring_buffer.c ****             {
  78:.\ring_buffer.c ****                 RingBuffer[ucIndex].address = pucAddr;
 256              		.loc 1 78 0
ARM GAS  C:\Users\Martin\AppData\Local\Temp\ccvCCZX2.s 			page 7


 257 0048 F97B     		ldrb	r1, [r7, #15]	@ zero_extendqisi2
 258 004a 40F20002 		movw	r2, #:lower16:RingBuffer
 259 004e C0F20002 		movt	r2, #:upper16:RingBuffer
 260 0052 0B46     		mov	r3, r1
 261 0054 4FEA8303 		lsl	r3, r3, #2
 262 0058 0B44     		add	r3, r3, r1
 263 005a 4FEA8303 		lsl	r3, r3, #2
 264 005e 1344     		add	r3, r3, r2
 265 0060 03F10403 		add	r3, r3, #4
 266 0064 7A68     		ldr	r2, [r7, #4]
 267 0066 1A60     		str	r2, [r3, #0]
  79:.\ring_buffer.c ****                 RingBuffer[ucIndex].size = uiSize;
 268              		.loc 1 79 0
 269 0068 F97B     		ldrb	r1, [r7, #15]	@ zero_extendqisi2
 270 006a 40F20002 		movw	r2, #:lower16:RingBuffer
 271 006e C0F20002 		movt	r2, #:upper16:RingBuffer
 272 0072 0B46     		mov	r3, r1
 273 0074 4FEA8303 		lsl	r3, r3, #2
 274 0078 0B44     		add	r3, r3, r1
 275 007a 4FEA8303 		lsl	r3, r3, #2
 276 007e 1344     		add	r3, r3, r2
 277 0080 03F10803 		add	r3, r3, #8
 278 0084 7A88     		ldrh	r2, [r7, #2]	@ movhi
 279 0086 1A80     		strh	r2, [r3, #0]	@ movhi
  80:.\ring_buffer.c ****                 RingBuffer[ucIndex].head = 0;
 280              		.loc 1 80 0
 281 0088 F97B     		ldrb	r1, [r7, #15]	@ zero_extendqisi2
 282 008a 40F20002 		movw	r2, #:lower16:RingBuffer
 283 008e C0F20002 		movt	r2, #:upper16:RingBuffer
 284 0092 0B46     		mov	r3, r1
 285 0094 4FEA8303 		lsl	r3, r3, #2
 286 0098 0B44     		add	r3, r3, r1
 287 009a 4FEA8303 		lsl	r3, r3, #2
 288 009e 1344     		add	r3, r3, r2
 289 00a0 03F10803 		add	r3, r3, #8
 290 00a4 4FF00002 		mov	r2, #0
 291 00a8 5A80     		strh	r2, [r3, #2]	@ movhi
  81:.\ring_buffer.c ****                 RingBuffer[ucIndex].tail = 0;
 292              		.loc 1 81 0
 293 00aa F97B     		ldrb	r1, [r7, #15]	@ zero_extendqisi2
 294 00ac 40F20002 		movw	r2, #:lower16:RingBuffer
 295 00b0 C0F20002 		movt	r2, #:upper16:RingBuffer
 296 00b4 0B46     		mov	r3, r1
 297 00b6 4FEA8303 		lsl	r3, r3, #2
 298 00ba 0B44     		add	r3, r3, r1
 299 00bc 4FEA8303 		lsl	r3, r3, #2
 300 00c0 1344     		add	r3, r3, r2
 301 00c2 03F10803 		add	r3, r3, #8
 302 00c6 4FF00002 		mov	r2, #0
 303 00ca 9A80     		strh	r2, [r3, #4]	@ movhi
  82:.\ring_buffer.c ****                 RingBuffer[ucIndex].zb = 0;
 304              		.loc 1 82 0
 305 00cc F97B     		ldrb	r1, [r7, #15]	@ zero_extendqisi2
 306 00ce 40F20002 		movw	r2, #:lower16:RingBuffer
 307 00d2 C0F20002 		movt	r2, #:upper16:RingBuffer
 308 00d6 0B46     		mov	r3, r1
 309 00d8 4FEA8303 		lsl	r3, r3, #2
ARM GAS  C:\Users\Martin\AppData\Local\Temp\ccvCCZX2.s 			page 8


 310 00dc 0B44     		add	r3, r3, r1
 311 00de 4FEA8303 		lsl	r3, r3, #2
 312 00e2 1344     		add	r3, r3, r2
 313 00e4 03F10803 		add	r3, r3, #8
 314 00e8 4FF00002 		mov	r2, #0
 315 00ec 9A71     		strb	r2, [r3, #6]
  83:.\ring_buffer.c **** 				RingBuffer[ucIndex].msgcount = 0;
 316              		.loc 1 83 0
 317 00ee F97B     		ldrb	r1, [r7, #15]	@ zero_extendqisi2
 318 00f0 40F20002 		movw	r2, #:lower16:RingBuffer
 319 00f4 C0F20002 		movt	r2, #:upper16:RingBuffer
 320 00f8 0B46     		mov	r3, r1
 321 00fa 4FEA8303 		lsl	r3, r3, #2
 322 00fe 0B44     		add	r3, r3, r1
 323 0100 4FEA8303 		lsl	r3, r3, #2
 324 0104 1344     		add	r3, r3, r2
 325 0106 03F11003 		add	r3, r3, #16
 326 010a 4FF00002 		mov	r2, #0
 327 010e 1A80     		strh	r2, [r3, #0]	@ movhi
  84:.\ring_buffer.c ****                 
  85:.\ring_buffer.c ****                 memset(RingBuffer[ucIndex].address, 0x00, RingBuffer[ucIndex].size);
 328              		.loc 1 85 0
 329 0110 F97B     		ldrb	r1, [r7, #15]	@ zero_extendqisi2
 330 0112 40F20002 		movw	r2, #:lower16:RingBuffer
 331 0116 C0F20002 		movt	r2, #:upper16:RingBuffer
 332 011a 0B46     		mov	r3, r1
 333 011c 4FEA8303 		lsl	r3, r3, #2
 334 0120 0B44     		add	r3, r3, r1
 335 0122 4FEA8303 		lsl	r3, r3, #2
 336 0126 1344     		add	r3, r3, r2
 337 0128 03F10403 		add	r3, r3, #4
 338 012c 1868     		ldr	r0, [r3, #0]
 339 012e F97B     		ldrb	r1, [r7, #15]	@ zero_extendqisi2
 340 0130 40F20002 		movw	r2, #:lower16:RingBuffer
 341 0134 C0F20002 		movt	r2, #:upper16:RingBuffer
 342 0138 0B46     		mov	r3, r1
 343 013a 4FEA8303 		lsl	r3, r3, #2
 344 013e 0B44     		add	r3, r3, r1
 345 0140 4FEA8303 		lsl	r3, r3, #2
 346 0144 1344     		add	r3, r3, r2
 347 0146 03F10803 		add	r3, r3, #8
 348 014a 1B88     		ldrh	r3, [r3, #0]
 349 014c 4FF00001 		mov	r1, #0
 350 0150 1A46     		mov	r2, r3
 351 0152 FFF7FEFF 		bl	memset
  86:.\ring_buffer.c ****                 
  87:.\ring_buffer.c ****                 break;
 352              		.loc 1 87 0
 353 0156 07E0     		b	.L11
 354              	.L10:
  88:.\ring_buffer.c ****             }
  89:.\ring_buffer.c ****             else
  90:.\ring_buffer.c ****             {
  91:.\ring_buffer.c ****                 ucIndex++;
 355              		.loc 1 91 0
 356 0158 FB7B     		ldrb	r3, [r7, #15]
 357 015a 03F10103 		add	r3, r3, #1
ARM GAS  C:\Users\Martin\AppData\Local\Temp\ccvCCZX2.s 			page 9


 358 015e FB73     		strb	r3, [r7, #15]
 359              	.L9:
 360              		.loc 1 74 0
 361 0160 FB7B     		ldrb	r3, [r7, #15]	@ zero_extendqisi2
 362 0162 012B     		cmp	r3, #1
 363 0164 7FF65EAF 		bls	.L12
 364              	.L11:
  92:.\ring_buffer.c ****             }
  93:.\ring_buffer.c ****         }
  94:.\ring_buffer.c ****         
  95:.\ring_buffer.c ****         if (ucIndex == RBF_NUM)
 365              		.loc 1 95 0
 366 0168 FB7B     		ldrb	r3, [r7, #15]	@ zero_extendqisi2
 367 016a 022B     		cmp	r3, #2
 368 016c 07D1     		bne	.L16
  96:.\ring_buffer.c ****             ucIndex = RBF_NOT_AVAILABLE;
 369              		.loc 1 96 0
 370 016e 6FF00203 		mvn	r3, #2
 371 0172 FB73     		strb	r3, [r7, #15]
 372              		.loc 1 72 0
 373 0174 04E0     		b	.L14
 374              	.L8:
  97:.\ring_buffer.c ****     }
  98:.\ring_buffer.c ****     else
  99:.\ring_buffer.c ****     {
 100:.\ring_buffer.c ****         ucIndex = RBF_INVALID_PARAMETERS;
 375              		.loc 1 100 0
 376 0176 6FF00103 		mvn	r3, #1
 377 017a FB73     		strb	r3, [r7, #15]
 378 017c 00E0     		b	.L14
 379              	.L16:
 380              		.loc 1 72 0
 381 017e 00BF     		nop
 382              	.L14:
 101:.\ring_buffer.c ****     }
 102:.\ring_buffer.c ****     
 103:.\ring_buffer.c ****     
 104:.\ring_buffer.c ****     return ucIndex;
 383              		.loc 1 104 0
 384 0180 FB7B     		ldrb	r3, [r7, #15]	@ zero_extendqisi2
 105:.\ring_buffer.c **** }
 385              		.loc 1 105 0
 386 0182 1846     		mov	r0, r3
 387 0184 07F11007 		add	r7, r7, #16
 388 0188 BD46     		mov	sp, r7
 389 018a 80BD     		pop	{r7, pc}
 390              		.cfi_endproc
 391              	.LFE31:
 392              		.size	RBF_ucRegisterBuffer, .-RBF_ucRegisterBuffer
 393              		.section	.text.RBF_ucUnregisterBuffer,"ax",%progbits
 394              		.align	2
 395              		.global	RBF_ucUnregisterBuffer
 396              		.thumb
 397              		.thumb_func
 398              		.type	RBF_ucUnregisterBuffer, %function
 399              	RBF_ucUnregisterBuffer:
 400              	.LFB32:
ARM GAS  C:\Users\Martin\AppData\Local\Temp\ccvCCZX2.s 			page 10


 106:.\ring_buffer.c **** 
 107:.\ring_buffer.c **** /*****************************************************************/
 108:.\ring_buffer.c **** uint8_t RBF_ucUnregisterBuffer(uint8_t ucIndex)
 109:.\ring_buffer.c **** {
 401              		.loc 1 109 0
 402              		.cfi_startproc
 403              		@ args = 0, pretend = 0, frame = 16
 404              		@ frame_needed = 1, uses_anonymous_args = 0
 405 0000 80B5     		push	{r7, lr}
 406              	.LCFI8:
 407              		.cfi_def_cfa_offset 8
 408 0002 84B0     		sub	sp, sp, #16
 409              	.LCFI9:
 410              		.cfi_def_cfa_offset 24
 411 0004 00AF     		add	r7, sp, #0
 412              		.cfi_offset 14, -4
 413              		.cfi_offset 7, -8
 414              	.LCFI10:
 415              		.cfi_def_cfa_register 7
 416 0006 0346     		mov	r3, r0
 417 0008 FB71     		strb	r3, [r7, #7]
 110:.\ring_buffer.c ****     STATUS status;
 111:.\ring_buffer.c ****     
 112:.\ring_buffer.c ****     if (RingBuffer[ucIndex].address)
 418              		.loc 1 112 0
 419 000a F979     		ldrb	r1, [r7, #7]	@ zero_extendqisi2
 420 000c 40F20002 		movw	r2, #:lower16:RingBuffer
 421 0010 C0F20002 		movt	r2, #:upper16:RingBuffer
 422 0014 0B46     		mov	r3, r1
 423 0016 4FEA8303 		lsl	r3, r3, #2
 424 001a 0B44     		add	r3, r3, r1
 425 001c 4FEA8303 		lsl	r3, r3, #2
 426 0020 1344     		add	r3, r3, r2
 427 0022 03F10403 		add	r3, r3, #4
 428 0026 1B68     		ldr	r3, [r3, #0]
 429 0028 002B     		cmp	r3, #0
 430 002a 00F08D80 		beq	.L18
 113:.\ring_buffer.c ****     {
 114:.\ring_buffer.c ****         RingBuffer[ucIndex].address = 0;
 431              		.loc 1 114 0
 432 002e F979     		ldrb	r1, [r7, #7]	@ zero_extendqisi2
 433 0030 40F20002 		movw	r2, #:lower16:RingBuffer
 434 0034 C0F20002 		movt	r2, #:upper16:RingBuffer
 435 0038 0B46     		mov	r3, r1
 436 003a 4FEA8303 		lsl	r3, r3, #2
 437 003e 0B44     		add	r3, r3, r1
 438 0040 4FEA8303 		lsl	r3, r3, #2
 439 0044 1344     		add	r3, r3, r2
 440 0046 03F10403 		add	r3, r3, #4
 441 004a 4FF00002 		mov	r2, #0
 442 004e 1A60     		str	r2, [r3, #0]
 115:.\ring_buffer.c ****         RingBuffer[ucIndex].size = 0;
 443              		.loc 1 115 0
 444 0050 F979     		ldrb	r1, [r7, #7]	@ zero_extendqisi2
 445 0052 40F20002 		movw	r2, #:lower16:RingBuffer
 446 0056 C0F20002 		movt	r2, #:upper16:RingBuffer
 447 005a 0B46     		mov	r3, r1
ARM GAS  C:\Users\Martin\AppData\Local\Temp\ccvCCZX2.s 			page 11


 448 005c 4FEA8303 		lsl	r3, r3, #2
 449 0060 0B44     		add	r3, r3, r1
 450 0062 4FEA8303 		lsl	r3, r3, #2
 451 0066 1344     		add	r3, r3, r2
 452 0068 03F10803 		add	r3, r3, #8
 453 006c 4FF00002 		mov	r2, #0
 454 0070 1A80     		strh	r2, [r3, #0]	@ movhi
 116:.\ring_buffer.c ****         RingBuffer[ucIndex].head = 0;
 455              		.loc 1 116 0
 456 0072 F979     		ldrb	r1, [r7, #7]	@ zero_extendqisi2
 457 0074 40F20002 		movw	r2, #:lower16:RingBuffer
 458 0078 C0F20002 		movt	r2, #:upper16:RingBuffer
 459 007c 0B46     		mov	r3, r1
 460 007e 4FEA8303 		lsl	r3, r3, #2
 461 0082 0B44     		add	r3, r3, r1
 462 0084 4FEA8303 		lsl	r3, r3, #2
 463 0088 1344     		add	r3, r3, r2
 464 008a 03F10803 		add	r3, r3, #8
 465 008e 4FF00002 		mov	r2, #0
 466 0092 5A80     		strh	r2, [r3, #2]	@ movhi
 117:.\ring_buffer.c ****         RingBuffer[ucIndex].tail = 0;
 467              		.loc 1 117 0
 468 0094 F979     		ldrb	r1, [r7, #7]	@ zero_extendqisi2
 469 0096 40F20002 		movw	r2, #:lower16:RingBuffer
 470 009a C0F20002 		movt	r2, #:upper16:RingBuffer
 471 009e 0B46     		mov	r3, r1
 472 00a0 4FEA8303 		lsl	r3, r3, #2
 473 00a4 0B44     		add	r3, r3, r1
 474 00a6 4FEA8303 		lsl	r3, r3, #2
 475 00aa 1344     		add	r3, r3, r2
 476 00ac 03F10803 		add	r3, r3, #8
 477 00b0 4FF00002 		mov	r2, #0
 478 00b4 9A80     		strh	r2, [r3, #4]	@ movhi
 118:.\ring_buffer.c ****         RingBuffer[ucIndex].zb = 0;
 479              		.loc 1 118 0
 480 00b6 F979     		ldrb	r1, [r7, #7]	@ zero_extendqisi2
 481 00b8 40F20002 		movw	r2, #:lower16:RingBuffer
 482 00bc C0F20002 		movt	r2, #:upper16:RingBuffer
 483 00c0 0B46     		mov	r3, r1
 484 00c2 4FEA8303 		lsl	r3, r3, #2
 485 00c6 0B44     		add	r3, r3, r1
 486 00c8 4FEA8303 		lsl	r3, r3, #2
 487 00cc 1344     		add	r3, r3, r2
 488 00ce 03F10803 		add	r3, r3, #8
 489 00d2 4FF00002 		mov	r2, #0
 490 00d6 9A71     		strb	r2, [r3, #6]
 119:.\ring_buffer.c **** 		RingBuffer[ucIndex].msgcount = 0;
 491              		.loc 1 119 0
 492 00d8 F979     		ldrb	r1, [r7, #7]	@ zero_extendqisi2
 493 00da 40F20002 		movw	r2, #:lower16:RingBuffer
 494 00de C0F20002 		movt	r2, #:upper16:RingBuffer
 495 00e2 0B46     		mov	r3, r1
 496 00e4 4FEA8303 		lsl	r3, r3, #2
 497 00e8 0B44     		add	r3, r3, r1
 498 00ea 4FEA8303 		lsl	r3, r3, #2
 499 00ee 1344     		add	r3, r3, r2
 500 00f0 03F11003 		add	r3, r3, #16
ARM GAS  C:\Users\Martin\AppData\Local\Temp\ccvCCZX2.s 			page 12


 501 00f4 4FF00002 		mov	r2, #0
 502 00f8 1A80     		strh	r2, [r3, #0]	@ movhi
 120:.\ring_buffer.c ****         
 121:.\ring_buffer.c ****         memset(RingBuffer[ucIndex].address, 0x00, RingBuffer[ucIndex].size);
 503              		.loc 1 121 0
 504 00fa F979     		ldrb	r1, [r7, #7]	@ zero_extendqisi2
 505 00fc 40F20002 		movw	r2, #:lower16:RingBuffer
 506 0100 C0F20002 		movt	r2, #:upper16:RingBuffer
 507 0104 0B46     		mov	r3, r1
 508 0106 4FEA8303 		lsl	r3, r3, #2
 509 010a 0B44     		add	r3, r3, r1
 510 010c 4FEA8303 		lsl	r3, r3, #2
 511 0110 1344     		add	r3, r3, r2
 512 0112 03F10403 		add	r3, r3, #4
 513 0116 1868     		ldr	r0, [r3, #0]
 514 0118 F979     		ldrb	r1, [r7, #7]	@ zero_extendqisi2
 515 011a 40F20002 		movw	r2, #:lower16:RingBuffer
 516 011e C0F20002 		movt	r2, #:upper16:RingBuffer
 517 0122 0B46     		mov	r3, r1
 518 0124 4FEA8303 		lsl	r3, r3, #2
 519 0128 0B44     		add	r3, r3, r1
 520 012a 4FEA8303 		lsl	r3, r3, #2
 521 012e 1344     		add	r3, r3, r2
 522 0130 03F10803 		add	r3, r3, #8
 523 0134 1B88     		ldrh	r3, [r3, #0]
 524 0136 4FF00001 		mov	r1, #0
 525 013a 1A46     		mov	r2, r3
 526 013c FFF7FEFF 		bl	memset
 122:.\ring_buffer.c ****         
 123:.\ring_buffer.c ****         status = RBF_SUCCESS;
 527              		.loc 1 123 0
 528 0140 4FF00003 		mov	r3, #0
 529 0144 FB73     		strb	r3, [r7, #15]
 530 0146 02E0     		b	.L19
 531              	.L18:
 124:.\ring_buffer.c ****     }
 125:.\ring_buffer.c ****     else
 126:.\ring_buffer.c ****     {
 127:.\ring_buffer.c ****         status = RBF_FAIL;
 532              		.loc 1 127 0
 533 0148 4FF00103 		mov	r3, #1
 534 014c FB73     		strb	r3, [r7, #15]
 535              	.L19:
 128:.\ring_buffer.c ****     }
 129:.\ring_buffer.c ****     
 130:.\ring_buffer.c ****     return status;
 536              		.loc 1 130 0
 537 014e FB7B     		ldrb	r3, [r7, #15]	@ zero_extendqisi2
 131:.\ring_buffer.c **** }
 538              		.loc 1 131 0
 539 0150 1846     		mov	r0, r3
 540 0152 07F11007 		add	r7, r7, #16
 541 0156 BD46     		mov	sp, r7
 542 0158 80BD     		pop	{r7, pc}
 543              		.cfi_endproc
 544              	.LFE32:
 545              		.size	RBF_ucUnregisterBuffer, .-RBF_ucUnregisterBuffer
ARM GAS  C:\Users\Martin\AppData\Local\Temp\ccvCCZX2.s 			page 13


 546 015a 00BF     		.section	.text.RBF_ucByteIn,"ax",%progbits
 547              		.align	2
 548              		.global	RBF_ucByteIn
 549              		.thumb
 550              		.thumb_func
 551              		.type	RBF_ucByteIn, %function
 552              	RBF_ucByteIn:
 553              	.LFB33:
 132:.\ring_buffer.c **** /*****************************************************************/
 133:.\ring_buffer.c **** uint8_t RBF_ucByteIn(uint8_t ucIndex, uint8_t byte)
 134:.\ring_buffer.c **** {
 554              		.loc 1 134 0
 555              		.cfi_startproc
 556              		@ args = 0, pretend = 0, frame = 16
 557              		@ frame_needed = 1, uses_anonymous_args = 0
 558 0000 80B5     		push	{r7, lr}
 559              	.LCFI11:
 560              		.cfi_def_cfa_offset 8
 561 0002 84B0     		sub	sp, sp, #16
 562              	.LCFI12:
 563              		.cfi_def_cfa_offset 24
 564 0004 00AF     		add	r7, sp, #0
 565              		.cfi_offset 14, -4
 566              		.cfi_offset 7, -8
 567              	.LCFI13:
 568              		.cfi_def_cfa_register 7
 569 0006 0246     		mov	r2, r0
 570 0008 0B46     		mov	r3, r1
 571 000a FA71     		strb	r2, [r7, #7]
 572 000c BB71     		strb	r3, [r7, #6]
 135:.\ring_buffer.c ****     STATUS status;
 136:.\ring_buffer.c **** 	
 137:.\ring_buffer.c ****     // is head == tail ?
 138:.\ring_buffer.c ****     if (RingBuffer[ucIndex].head == RingBuffer[ucIndex].tail)
 573              		.loc 1 138 0
 574 000e F979     		ldrb	r1, [r7, #7]	@ zero_extendqisi2
 575 0010 40F20002 		movw	r2, #:lower16:RingBuffer
 576 0014 C0F20002 		movt	r2, #:upper16:RingBuffer
 577 0018 0B46     		mov	r3, r1
 578 001a 4FEA8303 		lsl	r3, r3, #2
 579 001e 0B44     		add	r3, r3, r1
 580 0020 4FEA8303 		lsl	r3, r3, #2
 581 0024 1344     		add	r3, r3, r2
 582 0026 03F10803 		add	r3, r3, #8
 583 002a 5888     		ldrh	r0, [r3, #2]
 584 002c F979     		ldrb	r1, [r7, #7]	@ zero_extendqisi2
 585 002e 40F20002 		movw	r2, #:lower16:RingBuffer
 586 0032 C0F20002 		movt	r2, #:upper16:RingBuffer
 587 0036 0B46     		mov	r3, r1
 588 0038 4FEA8303 		lsl	r3, r3, #2
 589 003c 0B44     		add	r3, r3, r1
 590 003e 4FEA8303 		lsl	r3, r3, #2
 591 0042 1344     		add	r3, r3, r2
 592 0044 03F10803 		add	r3, r3, #8
 593 0048 9B88     		ldrh	r3, [r3, #4]
 594 004a 9842     		cmp	r0, r3
 595 004c 2CD1     		bne	.L22
ARM GAS  C:\Users\Martin\AppData\Local\Temp\ccvCCZX2.s 			page 14


 139:.\ring_buffer.c ****     {
 140:.\ring_buffer.c ****         // if head = tail, is zero byte empty?
 141:.\ring_buffer.c ****         if (RingBuffer[ucIndex].zb == 0)
 596              		.loc 1 141 0
 597 004e F979     		ldrb	r1, [r7, #7]	@ zero_extendqisi2
 598 0050 40F20002 		movw	r2, #:lower16:RingBuffer
 599 0054 C0F20002 		movt	r2, #:upper16:RingBuffer
 600 0058 0B46     		mov	r3, r1
 601 005a 4FEA8303 		lsl	r3, r3, #2
 602 005e 0B44     		add	r3, r3, r1
 603 0060 4FEA8303 		lsl	r3, r3, #2
 604 0064 1344     		add	r3, r3, r2
 605 0066 03F10803 		add	r3, r3, #8
 606 006a 9B79     		ldrb	r3, [r3, #6]	@ zero_extendqisi2
 607 006c 002B     		cmp	r3, #0
 608 006e 14D1     		bne	.L23
 142:.\ring_buffer.c ****         {
 143:.\ring_buffer.c ****             RingBuffer[ucIndex].zb = 1;
 609              		.loc 1 143 0
 610 0070 F979     		ldrb	r1, [r7, #7]	@ zero_extendqisi2
 611 0072 40F20002 		movw	r2, #:lower16:RingBuffer
 612 0076 C0F20002 		movt	r2, #:upper16:RingBuffer
 613 007a 0B46     		mov	r3, r1
 614 007c 4FEA8303 		lsl	r3, r3, #2
 615 0080 0B44     		add	r3, r3, r1
 616 0082 4FEA8303 		lsl	r3, r3, #2
 617 0086 1344     		add	r3, r3, r2
 618 0088 03F10803 		add	r3, r3, #8
 619 008c 4FF00102 		mov	r2, #1
 620 0090 9A71     		strb	r2, [r3, #6]
 144:.\ring_buffer.c ****             status = RBF_SUCCESS;
 621              		.loc 1 144 0
 622 0092 4FF00003 		mov	r3, #0
 623 0096 FB73     		strb	r3, [r7, #15]
 145:.\ring_buffer.c ****         }
 146:.\ring_buffer.c ****         else
 147:.\ring_buffer.c ****         {
 148:.\ring_buffer.c ****             status = IncHead(ucIndex);
 624              		.loc 1 148 0
 625 0098 0CE0     		b	.L25
 626              	.L23:
 627 009a FB79     		ldrb	r3, [r7, #7]	@ zero_extendqisi2
 628 009c 1846     		mov	r0, r3
 629 009e FFF7FEFF 		bl	IncHead
 630 00a2 0346     		mov	r3, r0
 631 00a4 FB73     		strb	r3, [r7, #15]
 632 00a6 05E0     		b	.L25
 633              	.L22:
 149:.\ring_buffer.c ****         }
 150:.\ring_buffer.c ****     }
 151:.\ring_buffer.c ****     else // is head != tail 
 152:.\ring_buffer.c ****     {
 153:.\ring_buffer.c ****         status = IncHead(ucIndex);
 634              		.loc 1 153 0
 635 00a8 FB79     		ldrb	r3, [r7, #7]	@ zero_extendqisi2
 636 00aa 1846     		mov	r0, r3
 637 00ac FFF7FEFF 		bl	IncHead
ARM GAS  C:\Users\Martin\AppData\Local\Temp\ccvCCZX2.s 			page 15


 638 00b0 0346     		mov	r3, r0
 639 00b2 FB73     		strb	r3, [r7, #15]
 640              	.L25:
 154:.\ring_buffer.c ****     }
 155:.\ring_buffer.c ****     
 156:.\ring_buffer.c ****     if (status == RBF_SUCCESS)
 641              		.loc 1 156 0
 642 00b4 FB7B     		ldrb	r3, [r7, #15]	@ zero_extendqisi2
 643 00b6 002B     		cmp	r3, #0
 644 00b8 20D1     		bne	.L26
 157:.\ring_buffer.c ****     {
 158:.\ring_buffer.c **** 		(RingBuffer[ucIndex].address)[RingBuffer[ucIndex].head] = byte;
 645              		.loc 1 158 0
 646 00ba F979     		ldrb	r1, [r7, #7]	@ zero_extendqisi2
 647 00bc 40F20002 		movw	r2, #:lower16:RingBuffer
 648 00c0 C0F20002 		movt	r2, #:upper16:RingBuffer
 649 00c4 0B46     		mov	r3, r1
 650 00c6 4FEA8303 		lsl	r3, r3, #2
 651 00ca 0B44     		add	r3, r3, r1
 652 00cc 4FEA8303 		lsl	r3, r3, #2
 653 00d0 1344     		add	r3, r3, r2
 654 00d2 03F10403 		add	r3, r3, #4
 655 00d6 1868     		ldr	r0, [r3, #0]
 656 00d8 F979     		ldrb	r1, [r7, #7]	@ zero_extendqisi2
 657 00da 40F20002 		movw	r2, #:lower16:RingBuffer
 658 00de C0F20002 		movt	r2, #:upper16:RingBuffer
 659 00e2 0B46     		mov	r3, r1
 660 00e4 4FEA8303 		lsl	r3, r3, #2
 661 00e8 0B44     		add	r3, r3, r1
 662 00ea 4FEA8303 		lsl	r3, r3, #2
 663 00ee 1344     		add	r3, r3, r2
 664 00f0 03F10803 		add	r3, r3, #8
 665 00f4 5B88     		ldrh	r3, [r3, #2]
 666 00f6 0344     		add	r3, r0, r3
 667 00f8 BA79     		ldrb	r2, [r7, #6]
 668 00fa 1A70     		strb	r2, [r3, #0]
 669              	.L26:
 159:.\ring_buffer.c **** 	}
 160:.\ring_buffer.c **** 	
 161:.\ring_buffer.c **** 	return status;
 670              		.loc 1 161 0
 671 00fc FB7B     		ldrb	r3, [r7, #15]	@ zero_extendqisi2
 162:.\ring_buffer.c **** }
 672              		.loc 1 162 0
 673 00fe 1846     		mov	r0, r3
 674 0100 07F11007 		add	r7, r7, #16
 675 0104 BD46     		mov	sp, r7
 676 0106 80BD     		pop	{r7, pc}
 677              		.cfi_endproc
 678              	.LFE33:
 679              		.size	RBF_ucByteIn, .-RBF_ucByteIn
 680              		.section	.text.RBF_ucHeadByteOut,"ax",%progbits
 681              		.align	2
 682              		.global	RBF_ucHeadByteOut
 683              		.thumb
 684              		.thumb_func
 685              		.type	RBF_ucHeadByteOut, %function
ARM GAS  C:\Users\Martin\AppData\Local\Temp\ccvCCZX2.s 			page 16


 686              	RBF_ucHeadByteOut:
 687              	.LFB34:
 163:.\ring_buffer.c **** /*****************************************************************/
 164:.\ring_buffer.c **** uint8_t RBF_ucHeadByteOut(uint8_t ucIndex, uint8_t* byte)
 165:.\ring_buffer.c **** {
 688              		.loc 1 165 0
 689              		.cfi_startproc
 690              		@ args = 0, pretend = 0, frame = 16
 691              		@ frame_needed = 1, uses_anonymous_args = 0
 692 0000 80B5     		push	{r7, lr}
 693              	.LCFI14:
 694              		.cfi_def_cfa_offset 8
 695 0002 84B0     		sub	sp, sp, #16
 696              	.LCFI15:
 697              		.cfi_def_cfa_offset 24
 698 0004 00AF     		add	r7, sp, #0
 699              		.cfi_offset 14, -4
 700              		.cfi_offset 7, -8
 701              	.LCFI16:
 702              		.cfi_def_cfa_register 7
 703 0006 0346     		mov	r3, r0
 704 0008 3960     		str	r1, [r7, #0]
 705 000a FB71     		strb	r3, [r7, #7]
 166:.\ring_buffer.c ****     STATUS status;
 167:.\ring_buffer.c **** 	
 168:.\ring_buffer.c ****     // is head == tail ?
 169:.\ring_buffer.c **** 	if (RingBuffer[ucIndex].tail == RingBuffer[ucIndex].head)
 706              		.loc 1 169 0
 707 000c F979     		ldrb	r1, [r7, #7]	@ zero_extendqisi2
 708 000e 40F20002 		movw	r2, #:lower16:RingBuffer
 709 0012 C0F20002 		movt	r2, #:upper16:RingBuffer
 710 0016 0B46     		mov	r3, r1
 711 0018 4FEA8303 		lsl	r3, r3, #2
 712 001c 0B44     		add	r3, r3, r1
 713 001e 4FEA8303 		lsl	r3, r3, #2
 714 0022 1344     		add	r3, r3, r2
 715 0024 03F10803 		add	r3, r3, #8
 716 0028 9888     		ldrh	r0, [r3, #4]
 717 002a F979     		ldrb	r1, [r7, #7]	@ zero_extendqisi2
 718 002c 40F20002 		movw	r2, #:lower16:RingBuffer
 719 0030 C0F20002 		movt	r2, #:upper16:RingBuffer
 720 0034 0B46     		mov	r3, r1
 721 0036 4FEA8303 		lsl	r3, r3, #2
 722 003a 0B44     		add	r3, r3, r1
 723 003c 4FEA8303 		lsl	r3, r3, #2
 724 0040 1344     		add	r3, r3, r2
 725 0042 03F10803 		add	r3, r3, #8
 726 0046 5B88     		ldrh	r3, [r3, #2]
 727 0048 9842     		cmp	r0, r3
 728 004a 29D1     		bne	.L29
 170:.\ring_buffer.c **** 	{
 171:.\ring_buffer.c ****         // if head = tail, is zero byte set?
 172:.\ring_buffer.c ****         if (RingBuffer[ucIndex].zb == 1)
 729              		.loc 1 172 0
 730 004c F979     		ldrb	r1, [r7, #7]	@ zero_extendqisi2
 731 004e 40F20002 		movw	r2, #:lower16:RingBuffer
 732 0052 C0F20002 		movt	r2, #:upper16:RingBuffer
ARM GAS  C:\Users\Martin\AppData\Local\Temp\ccvCCZX2.s 			page 17


 733 0056 0B46     		mov	r3, r1
 734 0058 4FEA8303 		lsl	r3, r3, #2
 735 005c 0B44     		add	r3, r3, r1
 736 005e 4FEA8303 		lsl	r3, r3, #2
 737 0062 1344     		add	r3, r3, r2
 738 0064 03F10803 		add	r3, r3, #8
 739 0068 9B79     		ldrb	r3, [r3, #6]	@ zero_extendqisi2
 740 006a 012B     		cmp	r3, #1
 741 006c 14D1     		bne	.L30
 173:.\ring_buffer.c ****         {
 174:.\ring_buffer.c ****            RingBuffer[ucIndex].zb = 0; 
 742              		.loc 1 174 0
 743 006e F979     		ldrb	r1, [r7, #7]	@ zero_extendqisi2
 744 0070 40F20002 		movw	r2, #:lower16:RingBuffer
 745 0074 C0F20002 		movt	r2, #:upper16:RingBuffer
 746 0078 0B46     		mov	r3, r1
 747 007a 4FEA8303 		lsl	r3, r3, #2
 748 007e 0B44     		add	r3, r3, r1
 749 0080 4FEA8303 		lsl	r3, r3, #2
 750 0084 1344     		add	r3, r3, r2
 751 0086 03F10803 		add	r3, r3, #8
 752 008a 4FF00002 		mov	r2, #0
 753 008e 9A71     		strb	r2, [r3, #6]
 175:.\ring_buffer.c ****            status = RBF_SUCCESS;
 754              		.loc 1 175 0
 755 0090 4FF00003 		mov	r3, #0
 756 0094 FB73     		strb	r3, [r7, #15]
 176:.\ring_buffer.c ****         }
 177:.\ring_buffer.c ****         else
 178:.\ring_buffer.c ****         {
 179:.\ring_buffer.c ****             status = RBF_FAIL;
 757              		.loc 1 179 0
 758 0096 06E0     		b	.L32
 759              	.L30:
 760 0098 4FF00103 		mov	r3, #1
 761 009c FB73     		strb	r3, [r7, #15]
 762 009e 02E0     		b	.L32
 763              	.L29:
 180:.\ring_buffer.c ****         }
 181:.\ring_buffer.c ****     }
 182:.\ring_buffer.c ****     else // is head != tail 
 183:.\ring_buffer.c ****     {
 184:.\ring_buffer.c ****         status = RBF_SUCCESS;
 764              		.loc 1 184 0
 765 00a0 4FF00003 		mov	r3, #0
 766 00a4 FB73     		strb	r3, [r7, #15]
 767              	.L32:
 185:.\ring_buffer.c ****     }
 186:.\ring_buffer.c ****     
 187:.\ring_buffer.c ****     if (status == RBF_SUCCESS)
 768              		.loc 1 187 0
 769 00a6 FB7B     		ldrb	r3, [r7, #15]	@ zero_extendqisi2
 770 00a8 002B     		cmp	r3, #0
 771 00aa 71D1     		bne	.L33
 188:.\ring_buffer.c ****     {
 189:.\ring_buffer.c **** 		*byte = (RingBuffer[ucIndex].address)[RingBuffer[ucIndex].head];
 772              		.loc 1 189 0
ARM GAS  C:\Users\Martin\AppData\Local\Temp\ccvCCZX2.s 			page 18


 773 00ac F979     		ldrb	r1, [r7, #7]	@ zero_extendqisi2
 774 00ae 40F20002 		movw	r2, #:lower16:RingBuffer
 775 00b2 C0F20002 		movt	r2, #:upper16:RingBuffer
 776 00b6 0B46     		mov	r3, r1
 777 00b8 4FEA8303 		lsl	r3, r3, #2
 778 00bc 0B44     		add	r3, r3, r1
 779 00be 4FEA8303 		lsl	r3, r3, #2
 780 00c2 1344     		add	r3, r3, r2
 781 00c4 03F10403 		add	r3, r3, #4
 782 00c8 1868     		ldr	r0, [r3, #0]
 783 00ca F979     		ldrb	r1, [r7, #7]	@ zero_extendqisi2
 784 00cc 40F20002 		movw	r2, #:lower16:RingBuffer
 785 00d0 C0F20002 		movt	r2, #:upper16:RingBuffer
 786 00d4 0B46     		mov	r3, r1
 787 00d6 4FEA8303 		lsl	r3, r3, #2
 788 00da 0B44     		add	r3, r3, r1
 789 00dc 4FEA8303 		lsl	r3, r3, #2
 790 00e0 1344     		add	r3, r3, r2
 791 00e2 03F10803 		add	r3, r3, #8
 792 00e6 5B88     		ldrh	r3, [r3, #2]
 793 00e8 0344     		add	r3, r0, r3
 794 00ea 1A78     		ldrb	r2, [r3, #0]	@ zero_extendqisi2
 795 00ec 3B68     		ldr	r3, [r7, #0]
 796 00ee 1A70     		strb	r2, [r3, #0]
 190:.\ring_buffer.c **** 		(RingBuffer[ucIndex].address)[RingBuffer[ucIndex].head] = 0;		//delete byte
 797              		.loc 1 190 0
 798 00f0 F979     		ldrb	r1, [r7, #7]	@ zero_extendqisi2
 799 00f2 40F20002 		movw	r2, #:lower16:RingBuffer
 800 00f6 C0F20002 		movt	r2, #:upper16:RingBuffer
 801 00fa 0B46     		mov	r3, r1
 802 00fc 4FEA8303 		lsl	r3, r3, #2
 803 0100 0B44     		add	r3, r3, r1
 804 0102 4FEA8303 		lsl	r3, r3, #2
 805 0106 1344     		add	r3, r3, r2
 806 0108 03F10403 		add	r3, r3, #4
 807 010c 1868     		ldr	r0, [r3, #0]
 808 010e F979     		ldrb	r1, [r7, #7]	@ zero_extendqisi2
 809 0110 40F20002 		movw	r2, #:lower16:RingBuffer
 810 0114 C0F20002 		movt	r2, #:upper16:RingBuffer
 811 0118 0B46     		mov	r3, r1
 812 011a 4FEA8303 		lsl	r3, r3, #2
 813 011e 0B44     		add	r3, r3, r1
 814 0120 4FEA8303 		lsl	r3, r3, #2
 815 0124 1344     		add	r3, r3, r2
 816 0126 03F10803 		add	r3, r3, #8
 817 012a 5B88     		ldrh	r3, [r3, #2]
 818 012c 0344     		add	r3, r0, r3
 819 012e 4FF00002 		mov	r2, #0
 820 0132 1A70     		strb	r2, [r3, #0]
 191:.\ring_buffer.c ****         
 192:.\ring_buffer.c ****         if (RingBuffer[ucIndex].tail != RingBuffer[ucIndex].head)
 821              		.loc 1 192 0
 822 0134 F979     		ldrb	r1, [r7, #7]	@ zero_extendqisi2
 823 0136 40F20002 		movw	r2, #:lower16:RingBuffer
 824 013a C0F20002 		movt	r2, #:upper16:RingBuffer
 825 013e 0B46     		mov	r3, r1
 826 0140 4FEA8303 		lsl	r3, r3, #2
ARM GAS  C:\Users\Martin\AppData\Local\Temp\ccvCCZX2.s 			page 19


 827 0144 0B44     		add	r3, r3, r1
 828 0146 4FEA8303 		lsl	r3, r3, #2
 829 014a 1344     		add	r3, r3, r2
 830 014c 03F10803 		add	r3, r3, #8
 831 0150 9888     		ldrh	r0, [r3, #4]
 832 0152 F979     		ldrb	r1, [r7, #7]	@ zero_extendqisi2
 833 0154 40F20002 		movw	r2, #:lower16:RingBuffer
 834 0158 C0F20002 		movt	r2, #:upper16:RingBuffer
 835 015c 0B46     		mov	r3, r1
 836 015e 4FEA8303 		lsl	r3, r3, #2
 837 0162 0B44     		add	r3, r3, r1
 838 0164 4FEA8303 		lsl	r3, r3, #2
 839 0168 1344     		add	r3, r3, r2
 840 016a 03F10803 		add	r3, r3, #8
 841 016e 5B88     		ldrh	r3, [r3, #2]
 842 0170 9842     		cmp	r0, r3
 843 0172 0DD0     		beq	.L33
 193:.\ring_buffer.c ****         {
 194:.\ring_buffer.c ****             if (DecHead(ucIndex) == RBF_SUCCESS)
 844              		.loc 1 194 0
 845 0174 FB79     		ldrb	r3, [r7, #7]	@ zero_extendqisi2
 846 0176 1846     		mov	r0, r3
 847 0178 FFF7FEFF 		bl	DecHead
 848 017c 0346     		mov	r3, r0
 849 017e 002B     		cmp	r3, #0
 850 0180 03D1     		bne	.L34
 195:.\ring_buffer.c ****             {
 196:.\ring_buffer.c ****                 status = RBF_SUCCESS;
 851              		.loc 1 196 0
 852 0182 4FF00003 		mov	r3, #0
 853 0186 FB73     		strb	r3, [r7, #15]
 854 0188 02E0     		b	.L33
 855              	.L34:
 197:.\ring_buffer.c ****             }
 198:.\ring_buffer.c ****             else
 199:.\ring_buffer.c ****             {
 200:.\ring_buffer.c ****     		    status = RBF_ERROR;
 856              		.loc 1 200 0
 857 018a 4FF0FF33 		mov	r3, #-1
 858 018e FB73     		strb	r3, [r7, #15]
 859              	.L33:
 201:.\ring_buffer.c ****             }
 202:.\ring_buffer.c ****         }
 203:.\ring_buffer.c **** 	}
 204:.\ring_buffer.c **** 	
 205:.\ring_buffer.c **** 	
 206:.\ring_buffer.c **** 	return status;
 860              		.loc 1 206 0
 861 0190 FB7B     		ldrb	r3, [r7, #15]	@ zero_extendqisi2
 207:.\ring_buffer.c **** }
 862              		.loc 1 207 0
 863 0192 1846     		mov	r0, r3
 864 0194 07F11007 		add	r7, r7, #16
 865 0198 BD46     		mov	sp, r7
 866 019a 80BD     		pop	{r7, pc}
 867              		.cfi_endproc
 868              	.LFE34:
ARM GAS  C:\Users\Martin\AppData\Local\Temp\ccvCCZX2.s 			page 20


 869              		.size	RBF_ucHeadByteOut, .-RBF_ucHeadByteOut
 870              		.section	.text.RBF_ucTailByteOut,"ax",%progbits
 871              		.align	2
 872              		.global	RBF_ucTailByteOut
 873              		.thumb
 874              		.thumb_func
 875              		.type	RBF_ucTailByteOut, %function
 876              	RBF_ucTailByteOut:
 877              	.LFB35:
 208:.\ring_buffer.c **** /*****************************************************************/
 209:.\ring_buffer.c **** uint8_t RBF_ucTailByteOut(uint8_t ucIndex, uint8_t* byte)
 210:.\ring_buffer.c **** {
 878              		.loc 1 210 0
 879              		.cfi_startproc
 880              		@ args = 0, pretend = 0, frame = 16
 881              		@ frame_needed = 1, uses_anonymous_args = 0
 882 0000 80B5     		push	{r7, lr}
 883              	.LCFI17:
 884              		.cfi_def_cfa_offset 8
 885 0002 84B0     		sub	sp, sp, #16
 886              	.LCFI18:
 887              		.cfi_def_cfa_offset 24
 888 0004 00AF     		add	r7, sp, #0
 889              		.cfi_offset 14, -4
 890              		.cfi_offset 7, -8
 891              	.LCFI19:
 892              		.cfi_def_cfa_register 7
 893 0006 0346     		mov	r3, r0
 894 0008 3960     		str	r1, [r7, #0]
 895 000a FB71     		strb	r3, [r7, #7]
 211:.\ring_buffer.c ****     STATUS status;
 212:.\ring_buffer.c **** 	
 213:.\ring_buffer.c ****     // is head == tail ?
 214:.\ring_buffer.c **** 	if (RingBuffer[ucIndex].tail == RingBuffer[ucIndex].head)
 896              		.loc 1 214 0
 897 000c F979     		ldrb	r1, [r7, #7]	@ zero_extendqisi2
 898 000e 40F20002 		movw	r2, #:lower16:RingBuffer
 899 0012 C0F20002 		movt	r2, #:upper16:RingBuffer
 900 0016 0B46     		mov	r3, r1
 901 0018 4FEA8303 		lsl	r3, r3, #2
 902 001c 0B44     		add	r3, r3, r1
 903 001e 4FEA8303 		lsl	r3, r3, #2
 904 0022 1344     		add	r3, r3, r2
 905 0024 03F10803 		add	r3, r3, #8
 906 0028 9888     		ldrh	r0, [r3, #4]
 907 002a F979     		ldrb	r1, [r7, #7]	@ zero_extendqisi2
 908 002c 40F20002 		movw	r2, #:lower16:RingBuffer
 909 0030 C0F20002 		movt	r2, #:upper16:RingBuffer
 910 0034 0B46     		mov	r3, r1
 911 0036 4FEA8303 		lsl	r3, r3, #2
 912 003a 0B44     		add	r3, r3, r1
 913 003c 4FEA8303 		lsl	r3, r3, #2
 914 0040 1344     		add	r3, r3, r2
 915 0042 03F10803 		add	r3, r3, #8
 916 0046 5B88     		ldrh	r3, [r3, #2]
 917 0048 9842     		cmp	r0, r3
 918 004a 29D1     		bne	.L37
ARM GAS  C:\Users\Martin\AppData\Local\Temp\ccvCCZX2.s 			page 21


 215:.\ring_buffer.c **** 	{
 216:.\ring_buffer.c ****         // if head = tail, is zero byte set?
 217:.\ring_buffer.c ****         if (RingBuffer[ucIndex].zb == 1)
 919              		.loc 1 217 0
 920 004c F979     		ldrb	r1, [r7, #7]	@ zero_extendqisi2
 921 004e 40F20002 		movw	r2, #:lower16:RingBuffer
 922 0052 C0F20002 		movt	r2, #:upper16:RingBuffer
 923 0056 0B46     		mov	r3, r1
 924 0058 4FEA8303 		lsl	r3, r3, #2
 925 005c 0B44     		add	r3, r3, r1
 926 005e 4FEA8303 		lsl	r3, r3, #2
 927 0062 1344     		add	r3, r3, r2
 928 0064 03F10803 		add	r3, r3, #8
 929 0068 9B79     		ldrb	r3, [r3, #6]	@ zero_extendqisi2
 930 006a 012B     		cmp	r3, #1
 931 006c 14D1     		bne	.L38
 218:.\ring_buffer.c ****         {
 219:.\ring_buffer.c ****            RingBuffer[ucIndex].zb = 0; 
 932              		.loc 1 219 0
 933 006e F979     		ldrb	r1, [r7, #7]	@ zero_extendqisi2
 934 0070 40F20002 		movw	r2, #:lower16:RingBuffer
 935 0074 C0F20002 		movt	r2, #:upper16:RingBuffer
 936 0078 0B46     		mov	r3, r1
 937 007a 4FEA8303 		lsl	r3, r3, #2
 938 007e 0B44     		add	r3, r3, r1
 939 0080 4FEA8303 		lsl	r3, r3, #2
 940 0084 1344     		add	r3, r3, r2
 941 0086 03F10803 		add	r3, r3, #8
 942 008a 4FF00002 		mov	r2, #0
 943 008e 9A71     		strb	r2, [r3, #6]
 220:.\ring_buffer.c ****            status = RBF_SUCCESS;
 944              		.loc 1 220 0
 945 0090 4FF00003 		mov	r3, #0
 946 0094 FB73     		strb	r3, [r7, #15]
 221:.\ring_buffer.c ****         }
 222:.\ring_buffer.c ****         else
 223:.\ring_buffer.c ****         {
 224:.\ring_buffer.c ****             status = RBF_FAIL;
 947              		.loc 1 224 0
 948 0096 06E0     		b	.L40
 949              	.L38:
 950 0098 4FF00103 		mov	r3, #1
 951 009c FB73     		strb	r3, [r7, #15]
 952 009e 02E0     		b	.L40
 953              	.L37:
 225:.\ring_buffer.c ****         }
 226:.\ring_buffer.c ****     }
 227:.\ring_buffer.c ****     else // is head != tail 
 228:.\ring_buffer.c ****     {
 229:.\ring_buffer.c ****         status = RBF_SUCCESS;
 954              		.loc 1 229 0
 955 00a0 4FF00003 		mov	r3, #0
 956 00a4 FB73     		strb	r3, [r7, #15]
 957              	.L40:
 230:.\ring_buffer.c ****     }
 231:.\ring_buffer.c ****     
 232:.\ring_buffer.c ****     if (status == RBF_SUCCESS)
ARM GAS  C:\Users\Martin\AppData\Local\Temp\ccvCCZX2.s 			page 22


 958              		.loc 1 232 0
 959 00a6 FB7B     		ldrb	r3, [r7, #15]	@ zero_extendqisi2
 960 00a8 002B     		cmp	r3, #0
 961 00aa 71D1     		bne	.L41
 233:.\ring_buffer.c ****     {
 234:.\ring_buffer.c **** 		*byte = (RingBuffer[ucIndex].address)[RingBuffer[ucIndex].tail];
 962              		.loc 1 234 0
 963 00ac F979     		ldrb	r1, [r7, #7]	@ zero_extendqisi2
 964 00ae 40F20002 		movw	r2, #:lower16:RingBuffer
 965 00b2 C0F20002 		movt	r2, #:upper16:RingBuffer
 966 00b6 0B46     		mov	r3, r1
 967 00b8 4FEA8303 		lsl	r3, r3, #2
 968 00bc 0B44     		add	r3, r3, r1
 969 00be 4FEA8303 		lsl	r3, r3, #2
 970 00c2 1344     		add	r3, r3, r2
 971 00c4 03F10403 		add	r3, r3, #4
 972 00c8 1868     		ldr	r0, [r3, #0]
 973 00ca F979     		ldrb	r1, [r7, #7]	@ zero_extendqisi2
 974 00cc 40F20002 		movw	r2, #:lower16:RingBuffer
 975 00d0 C0F20002 		movt	r2, #:upper16:RingBuffer
 976 00d4 0B46     		mov	r3, r1
 977 00d6 4FEA8303 		lsl	r3, r3, #2
 978 00da 0B44     		add	r3, r3, r1
 979 00dc 4FEA8303 		lsl	r3, r3, #2
 980 00e0 1344     		add	r3, r3, r2
 981 00e2 03F10803 		add	r3, r3, #8
 982 00e6 9B88     		ldrh	r3, [r3, #4]
 983 00e8 0344     		add	r3, r0, r3
 984 00ea 1A78     		ldrb	r2, [r3, #0]	@ zero_extendqisi2
 985 00ec 3B68     		ldr	r3, [r7, #0]
 986 00ee 1A70     		strb	r2, [r3, #0]
 235:.\ring_buffer.c **** 		(RingBuffer[ucIndex].address)[RingBuffer[ucIndex].tail] = 0;		//delete byte
 987              		.loc 1 235 0
 988 00f0 F979     		ldrb	r1, [r7, #7]	@ zero_extendqisi2
 989 00f2 40F20002 		movw	r2, #:lower16:RingBuffer
 990 00f6 C0F20002 		movt	r2, #:upper16:RingBuffer
 991 00fa 0B46     		mov	r3, r1
 992 00fc 4FEA8303 		lsl	r3, r3, #2
 993 0100 0B44     		add	r3, r3, r1
 994 0102 4FEA8303 		lsl	r3, r3, #2
 995 0106 1344     		add	r3, r3, r2
 996 0108 03F10403 		add	r3, r3, #4
 997 010c 1868     		ldr	r0, [r3, #0]
 998 010e F979     		ldrb	r1, [r7, #7]	@ zero_extendqisi2
 999 0110 40F20002 		movw	r2, #:lower16:RingBuffer
 1000 0114 C0F20002 		movt	r2, #:upper16:RingBuffer
 1001 0118 0B46     		mov	r3, r1
 1002 011a 4FEA8303 		lsl	r3, r3, #2
 1003 011e 0B44     		add	r3, r3, r1
 1004 0120 4FEA8303 		lsl	r3, r3, #2
 1005 0124 1344     		add	r3, r3, r2
 1006 0126 03F10803 		add	r3, r3, #8
 1007 012a 9B88     		ldrh	r3, [r3, #4]
 1008 012c 0344     		add	r3, r0, r3
 1009 012e 4FF00002 		mov	r2, #0
 1010 0132 1A70     		strb	r2, [r3, #0]
 236:.\ring_buffer.c ****         
ARM GAS  C:\Users\Martin\AppData\Local\Temp\ccvCCZX2.s 			page 23


 237:.\ring_buffer.c ****         if (RingBuffer[ucIndex].tail != RingBuffer[ucIndex].head)
 1011              		.loc 1 237 0
 1012 0134 F979     		ldrb	r1, [r7, #7]	@ zero_extendqisi2
 1013 0136 40F20002 		movw	r2, #:lower16:RingBuffer
 1014 013a C0F20002 		movt	r2, #:upper16:RingBuffer
 1015 013e 0B46     		mov	r3, r1
 1016 0140 4FEA8303 		lsl	r3, r3, #2
 1017 0144 0B44     		add	r3, r3, r1
 1018 0146 4FEA8303 		lsl	r3, r3, #2
 1019 014a 1344     		add	r3, r3, r2
 1020 014c 03F10803 		add	r3, r3, #8
 1021 0150 9888     		ldrh	r0, [r3, #4]
 1022 0152 F979     		ldrb	r1, [r7, #7]	@ zero_extendqisi2
 1023 0154 40F20002 		movw	r2, #:lower16:RingBuffer
 1024 0158 C0F20002 		movt	r2, #:upper16:RingBuffer
 1025 015c 0B46     		mov	r3, r1
 1026 015e 4FEA8303 		lsl	r3, r3, #2
 1027 0162 0B44     		add	r3, r3, r1
 1028 0164 4FEA8303 		lsl	r3, r3, #2
 1029 0168 1344     		add	r3, r3, r2
 1030 016a 03F10803 		add	r3, r3, #8
 1031 016e 5B88     		ldrh	r3, [r3, #2]
 1032 0170 9842     		cmp	r0, r3
 1033 0172 0DD0     		beq	.L41
 238:.\ring_buffer.c ****         {
 239:.\ring_buffer.c ****             if (IncTail(ucIndex) == RBF_SUCCESS)
 1034              		.loc 1 239 0
 1035 0174 FB79     		ldrb	r3, [r7, #7]	@ zero_extendqisi2
 1036 0176 1846     		mov	r0, r3
 1037 0178 FFF7FEFF 		bl	IncTail
 1038 017c 0346     		mov	r3, r0
 1039 017e 002B     		cmp	r3, #0
 1040 0180 03D1     		bne	.L42
 240:.\ring_buffer.c ****             {
 241:.\ring_buffer.c ****                 status = RBF_SUCCESS;
 1041              		.loc 1 241 0
 1042 0182 4FF00003 		mov	r3, #0
 1043 0186 FB73     		strb	r3, [r7, #15]
 1044 0188 02E0     		b	.L41
 1045              	.L42:
 242:.\ring_buffer.c ****             }
 243:.\ring_buffer.c ****             else
 244:.\ring_buffer.c ****             {
 245:.\ring_buffer.c ****     		    status = RBF_ERROR;
 1046              		.loc 1 245 0
 1047 018a 4FF0FF33 		mov	r3, #-1
 1048 018e FB73     		strb	r3, [r7, #15]
 1049              	.L41:
 246:.\ring_buffer.c ****             }
 247:.\ring_buffer.c ****         }
 248:.\ring_buffer.c **** 	}
 249:.\ring_buffer.c **** 	
 250:.\ring_buffer.c **** 	return status;
 1050              		.loc 1 250 0
 1051 0190 FB7B     		ldrb	r3, [r7, #15]	@ zero_extendqisi2
 251:.\ring_buffer.c **** }
 1052              		.loc 1 251 0
ARM GAS  C:\Users\Martin\AppData\Local\Temp\ccvCCZX2.s 			page 24


 1053 0192 1846     		mov	r0, r3
 1054 0194 07F11007 		add	r7, r7, #16
 1055 0198 BD46     		mov	sp, r7
 1056 019a 80BD     		pop	{r7, pc}
 1057              		.cfi_endproc
 1058              	.LFE35:
 1059              		.size	RBF_ucTailByteOut, .-RBF_ucTailByteOut
 1060              		.section	.text.RBF_ucMsgIn,"ax",%progbits
 1061              		.align	2
 1062              		.global	RBF_ucMsgIn
 1063              		.thumb
 1064              		.thumb_func
 1065              		.type	RBF_ucMsgIn, %function
 1066              	RBF_ucMsgIn:
 1067              	.LFB36:
 252:.\ring_buffer.c **** /*****************************************************************/
 253:.\ring_buffer.c **** /**
 254:.\ring_buffer.c **** 	Message structure:
 255:.\ring_buffer.c **** 	| size | d0 | d1 | ... | dn | size |
 256:.\ring_buffer.c **** 	
 257:.\ring_buffer.c **** 	- no checksum needed because there is no loss of information 
 258:.\ring_buffer.c **** 	due to transmission errors etc.
 259:.\ring_buffer.c **** */
 260:.\ring_buffer.c **** uint8_t RBF_ucMsgIn(uint8_t ucIndex, uint8_t* msg, uint8_t size)
 261:.\ring_buffer.c **** {
 1068              		.loc 1 261 0
 1069              		.cfi_startproc
 1070              		@ args = 0, pretend = 0, frame = 24
 1071              		@ frame_needed = 1, uses_anonymous_args = 0
 1072 0000 80B5     		push	{r7, lr}
 1073              	.LCFI20:
 1074              		.cfi_def_cfa_offset 8
 1075 0002 86B0     		sub	sp, sp, #24
 1076              	.LCFI21:
 1077              		.cfi_def_cfa_offset 32
 1078 0004 00AF     		add	r7, sp, #0
 1079              		.cfi_offset 14, -4
 1080              		.cfi_offset 7, -8
 1081              	.LCFI22:
 1082              		.cfi_def_cfa_register 7
 1083 0006 B960     		str	r1, [r7, #8]
 1084 0008 1346     		mov	r3, r2
 1085 000a 0246     		mov	r2, r0
 1086 000c FA73     		strb	r2, [r7, #15]
 1087 000e FB71     		strb	r3, [r7, #7]
 262:.\ring_buffer.c ****     STATUS status;
 263:.\ring_buffer.c **** 	int i=0;
 1088              		.loc 1 263 0
 1089 0010 4FF00003 		mov	r3, #0
 1090 0014 7B61     		str	r3, [r7, #20]
 264:.\ring_buffer.c **** 	uint8_t temp;
 265:.\ring_buffer.c **** 	
 266:.\ring_buffer.c **** 	// 1st byte = message size		
 267:.\ring_buffer.c **** 	if(RBF_ucByteIn(ucIndex, size) == RBF_SUCCESS)				// | size | d0 | d1 | ... | dn | size |
 1091              		.loc 1 267 0
 1092 0016 FA7B     		ldrb	r2, [r7, #15]	@ zero_extendqisi2
 1093 0018 FB79     		ldrb	r3, [r7, #7]	@ zero_extendqisi2
ARM GAS  C:\Users\Martin\AppData\Local\Temp\ccvCCZX2.s 			page 25


 1094 001a 1046     		mov	r0, r2
 1095 001c 1946     		mov	r1, r3
 1096 001e FFF7FEFF 		bl	RBF_ucByteIn
 1097 0022 0346     		mov	r3, r0
 1098 0024 002B     		cmp	r3, #0
 1099 0026 76D1     		bne	.L45
 268:.\ring_buffer.c **** 	{															//	 ^
 269:.\ring_buffer.c **** 		while(i < size)
 1100              		.loc 1 269 0
 1101 0028 0FE0     		b	.L46
 1102              	.L49:
 270:.\ring_buffer.c **** 		{
 271:.\ring_buffer.c **** 			if(RBF_ucByteIn(ucIndex, msg[i]) == RBF_SUCCESS)	// | size | d0 | d1 | ... | dn | size |
 1103              		.loc 1 271 0
 1104 002a 7A69     		ldr	r2, [r7, #20]
 1105 002c BB68     		ldr	r3, [r7, #8]
 1106 002e 1344     		add	r3, r2, r3
 1107 0030 1B78     		ldrb	r3, [r3, #0]	@ zero_extendqisi2
 1108 0032 FA7B     		ldrb	r2, [r7, #15]	@ zero_extendqisi2
 1109 0034 1046     		mov	r0, r2
 1110 0036 1946     		mov	r1, r3
 1111 0038 FFF7FEFF 		bl	RBF_ucByteIn
 1112 003c 0346     		mov	r3, r0
 1113 003e 002B     		cmp	r3, #0
 1114 0040 08D1     		bne	.L62
 272:.\ring_buffer.c **** 			{													//	 		^        -->       |
 273:.\ring_buffer.c **** 				i++;
 1115              		.loc 1 273 0
 1116 0042 7B69     		ldr	r3, [r7, #20]
 1117 0044 03F10103 		add	r3, r3, #1
 1118 0048 7B61     		str	r3, [r7, #20]
 1119              	.L46:
 1120              		.loc 1 269 0
 1121 004a FA79     		ldrb	r2, [r7, #7]	@ zero_extendqisi2
 1122 004c 7B69     		ldr	r3, [r7, #20]
 1123 004e 9A42     		cmp	r2, r3
 1124 0050 EBDC     		bgt	.L49
 1125 0052 00E0     		b	.L48
 1126              	.L62:
 274:.\ring_buffer.c **** 			}
 275:.\ring_buffer.c **** 			else
 276:.\ring_buffer.c **** 			{
 277:.\ring_buffer.c **** 				break; //no more bytes or buffer full
 1127              		.loc 1 277 0
 1128 0054 00BF     		nop
 1129              	.L48:
 278:.\ring_buffer.c **** 			}
 279:.\ring_buffer.c **** 		}
 280:.\ring_buffer.c **** 		
 281:.\ring_buffer.c **** 		// check if message complete
 282:.\ring_buffer.c **** 		if (i == size)
 1130              		.loc 1 282 0
 1131 0056 FA79     		ldrb	r2, [r7, #7]	@ zero_extendqisi2
 1132 0058 7B69     		ldr	r3, [r7, #20]
 1133 005a 9A42     		cmp	r2, r3
 1134 005c 57D1     		bne	.L57
 283:.\ring_buffer.c **** 		{
ARM GAS  C:\Users\Martin\AppData\Local\Temp\ccvCCZX2.s 			page 26


 284:.\ring_buffer.c **** 			// add message size as last byte
 285:.\ring_buffer.c **** 			if(RBF_ucByteIn(ucIndex, size) == RBF_SUCCESS)		// | size | d0 | d1 | ... | dn | size |
 1135              		.loc 1 285 0
 1136 005e FA7B     		ldrb	r2, [r7, #15]	@ zero_extendqisi2
 1137 0060 FB79     		ldrb	r3, [r7, #7]	@ zero_extendqisi2
 1138 0062 1046     		mov	r0, r2
 1139 0064 1946     		mov	r1, r3
 1140 0066 FFF7FEFF 		bl	RBF_ucByteIn
 1141 006a 0346     		mov	r3, r0
 1142 006c 002B     		cmp	r3, #0
 1143 006e 37D1     		bne	.L53
 286:.\ring_buffer.c **** 			{													//	 							 ^
 287:.\ring_buffer.c **** 				RingBuffer[ucIndex].msgcount++;
 1144              		.loc 1 287 0
 1145 0070 FA7B     		ldrb	r2, [r7, #15]	@ zero_extendqisi2
 1146 0072 40F20001 		movw	r1, #:lower16:RingBuffer
 1147 0076 C0F20001 		movt	r1, #:upper16:RingBuffer
 1148 007a 1346     		mov	r3, r2
 1149 007c 4FEA8303 		lsl	r3, r3, #2
 1150 0080 1344     		add	r3, r3, r2
 1151 0082 4FEA8303 		lsl	r3, r3, #2
 1152 0086 0B44     		add	r3, r3, r1
 1153 0088 03F11003 		add	r3, r3, #16
 1154 008c 1B88     		ldrh	r3, [r3, #0]
 1155 008e 03F10103 		add	r3, r3, #1
 1156 0092 98B2     		uxth	r0, r3
 1157 0094 40F20001 		movw	r1, #:lower16:RingBuffer
 1158 0098 C0F20001 		movt	r1, #:upper16:RingBuffer
 1159 009c 1346     		mov	r3, r2
 1160 009e 4FEA8303 		lsl	r3, r3, #2
 1161 00a2 1344     		add	r3, r3, r2
 1162 00a4 4FEA8303 		lsl	r3, r3, #2
 1163 00a8 0B44     		add	r3, r3, r1
 1164 00aa 03F11003 		add	r3, r3, #16
 1165 00ae 0246     		mov	r2, r0	@ movhi
 1166 00b0 1A80     		strh	r2, [r3, #0]	@ movhi
 288:.\ring_buffer.c **** 				status = RBF_SUCCESS;
 1167              		.loc 1 288 0
 1168 00b2 4FF00003 		mov	r3, #0
 1169 00b6 FB74     		strb	r3, [r7, #19]
 289:.\ring_buffer.c **** 			}
 290:.\ring_buffer.c **** 			else
 291:.\ring_buffer.c **** 			{
 292:.\ring_buffer.c **** 				while(i >= 0)	// delete already written message bytes plus size byte at beginning
 293:.\ring_buffer.c **** 				{
 294:.\ring_buffer.c **** 					if(RBF_ucHeadByteOut(ucIndex, &temp) == RBF_FAIL)
 295:.\ring_buffer.c **** 					{
 296:.\ring_buffer.c **** 						status = RBF_ERROR;
 297:.\ring_buffer.c **** 						break;
 298:.\ring_buffer.c **** 					}
 299:.\ring_buffer.c **** 					i--;
 300:.\ring_buffer.c **** 				}
 301:.\ring_buffer.c **** 			}
 302:.\ring_buffer.c **** 		}
 303:.\ring_buffer.c **** 		else
 304:.\ring_buffer.c **** 		{
 305:.\ring_buffer.c **** 			while(i >= 0)	// delete already written message bytes plus size byte at beginning
ARM GAS  C:\Users\Martin\AppData\Local\Temp\ccvCCZX2.s 			page 27


 1170              		.loc 1 305 0
 1171 00b8 30E0     		b	.L60
 1172              	.L55:
 1173              		.loc 1 294 0
 1174 00ba FA7B     		ldrb	r2, [r7, #15]	@ zero_extendqisi2
 1175 00bc 07F11203 		add	r3, r7, #18
 1176 00c0 1046     		mov	r0, r2
 1177 00c2 1946     		mov	r1, r3
 1178 00c4 FFF7FEFF 		bl	RBF_ucHeadByteOut
 1179 00c8 0346     		mov	r3, r0
 1180 00ca 012B     		cmp	r3, #1
 1181 00cc 04D1     		bne	.L54
 1182              		.loc 1 296 0
 1183 00ce 4FF0FF33 		mov	r3, #-1
 1184 00d2 FB74     		strb	r3, [r7, #19]
 1185              		.loc 1 297 0
 1186 00d4 00BF     		nop
 1187              		.loc 1 305 0
 1188 00d6 21E0     		b	.L60
 1189              	.L54:
 1190              		.loc 1 299 0
 1191 00d8 7B69     		ldr	r3, [r7, #20]
 1192 00da 03F1FF33 		add	r3, r3, #-1
 1193 00de 7B61     		str	r3, [r7, #20]
 1194              	.L53:
 1195              		.loc 1 292 0
 1196 00e0 7B69     		ldr	r3, [r7, #20]
 1197 00e2 002B     		cmp	r3, #0
 1198 00e4 E9DA     		bge	.L55
 1199              		.loc 1 305 0
 1200 00e6 19E0     		b	.L60
 1201              	.L59:
 306:.\ring_buffer.c **** 			{
 307:.\ring_buffer.c **** 				if(RBF_ucHeadByteOut(ucIndex, &temp) == RBF_FAIL)
 1202              		.loc 1 307 0
 1203 00e8 FA7B     		ldrb	r2, [r7, #15]	@ zero_extendqisi2
 1204 00ea 07F11203 		add	r3, r7, #18
 1205 00ee 1046     		mov	r0, r2
 1206 00f0 1946     		mov	r1, r3
 1207 00f2 FFF7FEFF 		bl	RBF_ucHeadByteOut
 1208 00f6 0346     		mov	r3, r0
 1209 00f8 012B     		cmp	r3, #1
 1210 00fa 04D1     		bne	.L58
 308:.\ring_buffer.c **** 				{
 309:.\ring_buffer.c **** 					status = RBF_ERROR;
 1211              		.loc 1 309 0
 1212 00fc 4FF0FF33 		mov	r3, #-1
 1213 0100 FB74     		strb	r3, [r7, #19]
 310:.\ring_buffer.c **** 					break;
 1214              		.loc 1 310 0
 1215 0102 00BF     		nop
 1216 0104 0AE0     		b	.L60
 1217              	.L58:
 311:.\ring_buffer.c **** 				}
 312:.\ring_buffer.c **** 				i--;
 1218              		.loc 1 312 0
 1219 0106 7B69     		ldr	r3, [r7, #20]
ARM GAS  C:\Users\Martin\AppData\Local\Temp\ccvCCZX2.s 			page 28


 1220 0108 03F1FF33 		add	r3, r3, #-1
 1221 010c 7B61     		str	r3, [r7, #20]
 1222              	.L57:
 1223              		.loc 1 305 0
 1224 010e 7B69     		ldr	r3, [r7, #20]
 1225 0110 002B     		cmp	r3, #0
 1226 0112 E9DA     		bge	.L59
 1227 0114 02E0     		b	.L60
 1228              	.L45:
 313:.\ring_buffer.c **** 			}
 314:.\ring_buffer.c **** 		}
 315:.\ring_buffer.c **** 		
 316:.\ring_buffer.c **** 	}
 317:.\ring_buffer.c **** 	else
 318:.\ring_buffer.c **** 	{
 319:.\ring_buffer.c **** 		status = RBF_FAIL;
 1229              		.loc 1 319 0
 1230 0116 4FF00103 		mov	r3, #1
 1231 011a FB74     		strb	r3, [r7, #19]
 1232              	.L60:
 320:.\ring_buffer.c **** 	}
 321:.\ring_buffer.c **** 	
 322:.\ring_buffer.c **** 	return status;
 1233              		.loc 1 322 0
 1234 011c FB7C     		ldrb	r3, [r7, #19]	@ zero_extendqisi2
 323:.\ring_buffer.c **** }
 1235              		.loc 1 323 0
 1236 011e 1846     		mov	r0, r3
 1237 0120 07F11807 		add	r7, r7, #24
 1238 0124 BD46     		mov	sp, r7
 1239 0126 80BD     		pop	{r7, pc}
 1240              		.cfi_endproc
 1241              	.LFE36:
 1242              		.size	RBF_ucMsgIn, .-RBF_ucMsgIn
 1243              		.section	.text.RBF_ucHeadMsgOut,"ax",%progbits
 1244              		.align	2
 1245              		.global	RBF_ucHeadMsgOut
 1246              		.thumb
 1247              		.thumb_func
 1248              		.type	RBF_ucHeadMsgOut, %function
 1249              	RBF_ucHeadMsgOut:
 1250              	.LFB37:
 324:.\ring_buffer.c **** /*****************************************************************/
 325:.\ring_buffer.c **** /**
 326:.\ring_buffer.c **** 	Example:
 327:.\ring_buffer.c **** 	
 328:.\ring_buffer.c **** 	| size | d0 | d1 | ... | dn | size | size | d0 | d1 | ... | dn | size |
 329:.\ring_buffer.c **** 	  ^																 ^
 330:.\ring_buffer.c **** 	  tail															 head
 331:.\ring_buffer.c **** 																	 ----
 332:.\ring_buffer.c **** */
 333:.\ring_buffer.c **** uint8_t RBF_ucHeadMsgOut(uint8_t ucIndex, uint8_t* target, uint8_t* size)
 334:.\ring_buffer.c **** {
 1251              		.loc 1 334 0
 1252              		.cfi_startproc
 1253              		@ args = 0, pretend = 0, frame = 24
 1254              		@ frame_needed = 1, uses_anonymous_args = 0
ARM GAS  C:\Users\Martin\AppData\Local\Temp\ccvCCZX2.s 			page 29


 1255 0000 80B5     		push	{r7, lr}
 1256              	.LCFI23:
 1257              		.cfi_def_cfa_offset 8
 1258 0002 86B0     		sub	sp, sp, #24
 1259              	.LCFI24:
 1260              		.cfi_def_cfa_offset 32
 1261 0004 00AF     		add	r7, sp, #0
 1262              		.cfi_offset 14, -4
 1263              		.cfi_offset 7, -8
 1264              	.LCFI25:
 1265              		.cfi_def_cfa_register 7
 1266 0006 0346     		mov	r3, r0
 1267 0008 B960     		str	r1, [r7, #8]
 1268 000a 7A60     		str	r2, [r7, #4]
 1269 000c FB73     		strb	r3, [r7, #15]
 335:.\ring_buffer.c ****     STATUS status;
 336:.\ring_buffer.c **** 	int i=0;
 1270              		.loc 1 336 0
 1271 000e 4FF00003 		mov	r3, #0
 1272 0012 7B61     		str	r3, [r7, #20]
 337:.\ring_buffer.c **** 	uint8_t temp;
 338:.\ring_buffer.c **** 	
 339:.\ring_buffer.c **** 	// 1st byte = message size		
 340:.\ring_buffer.c **** 	if(RBF_ucHeadByteOut(ucIndex, size) == RBF_SUCCESS)		// | size | d0 | d1 | ... | dn | size |
 1273              		.loc 1 340 0
 1274 0014 FB7B     		ldrb	r3, [r7, #15]	@ zero_extendqisi2
 1275 0016 1846     		mov	r0, r3
 1276 0018 7968     		ldr	r1, [r7, #4]
 1277 001a FFF7FEFF 		bl	RBF_ucHeadByteOut
 1278 001e 0346     		mov	r3, r0
 1279 0020 002B     		cmp	r3, #0
 1280 0022 7CD1     		bne	.L64
 341:.\ring_buffer.c **** 	{																	//	 							 ^
 342:.\ring_buffer.c **** 		if (*size > 0)
 1281              		.loc 1 342 0
 1282 0024 7B68     		ldr	r3, [r7, #4]
 1283 0026 1B78     		ldrb	r3, [r3, #0]	@ zero_extendqisi2
 1284 0028 002B     		cmp	r3, #0
 1285 002a 6FD0     		beq	.L65
 343:.\ring_buffer.c **** 		{
 344:.\ring_buffer.c **** 			while(i < *size)
 1286              		.loc 1 344 0
 1287 002c 1EE0     		b	.L66
 1288              	.L69:
 345:.\ring_buffer.c **** 			{
 346:.\ring_buffer.c **** 				// message data bytes
 347:.\ring_buffer.c **** 				if(RBF_ucHeadByteOut(ucIndex, &target[*size-1-i]) == RBF_SUCCESS)	// | size | d0 | d1 | ... | d
 1289              		.loc 1 347 0
 1290 002e 7B68     		ldr	r3, [r7, #4]
 1291 0030 1B78     		ldrb	r3, [r3, #0]	@ zero_extendqisi2
 1292 0032 03F1FF32 		add	r2, r3, #-1
 1293 0036 7B69     		ldr	r3, [r7, #20]
 1294 0038 C3EB0203 		rsb	r3, r3, r2
 1295 003c 1A46     		mov	r2, r3
 1296 003e BB68     		ldr	r3, [r7, #8]
 1297 0040 1344     		add	r3, r2, r3
 1298 0042 FA7B     		ldrb	r2, [r7, #15]	@ zero_extendqisi2
ARM GAS  C:\Users\Martin\AppData\Local\Temp\ccvCCZX2.s 			page 30


 1299 0044 1046     		mov	r0, r2
 1300 0046 1946     		mov	r1, r3
 1301 0048 FFF7FEFF 		bl	RBF_ucHeadByteOut
 1302 004c 0346     		mov	r3, r0
 1303 004e 002B     		cmp	r3, #0
 1304 0050 04D1     		bne	.L67
 348:.\ring_buffer.c **** 				{																	//	 	  |			<--		^
 349:.\ring_buffer.c **** 					i++;
 1305              		.loc 1 349 0
 1306 0052 7B69     		ldr	r3, [r7, #20]
 1307 0054 03F10103 		add	r3, r3, #1
 1308 0058 7B61     		str	r3, [r7, #20]
 1309 005a 07E0     		b	.L66
 1310              	.L67:
 350:.\ring_buffer.c **** 				}
 351:.\ring_buffer.c **** 				else
 352:.\ring_buffer.c **** 				{
 353:.\ring_buffer.c **** 					*size = 0;
 1311              		.loc 1 353 0
 1312 005c 7B68     		ldr	r3, [r7, #4]
 1313 005e 4FF00002 		mov	r2, #0
 1314 0062 1A70     		strb	r2, [r3, #0]
 354:.\ring_buffer.c **** 					status = RBF_ERROR;	// this should never happen, buffer must be cleared
 1315              		.loc 1 354 0
 1316 0064 4FF0FF33 		mov	r3, #-1
 1317 0068 FB74     		strb	r3, [r7, #19]
 355:.\ring_buffer.c **** 					break; 
 1318              		.loc 1 355 0
 1319 006a 05E0     		b	.L68
 1320              	.L66:
 1321              		.loc 1 344 0
 1322 006c 7B68     		ldr	r3, [r7, #4]
 1323 006e 1B78     		ldrb	r3, [r3, #0]	@ zero_extendqisi2
 1324 0070 1A46     		mov	r2, r3
 1325 0072 7B69     		ldr	r3, [r7, #20]
 1326 0074 9A42     		cmp	r2, r3
 1327 0076 DADC     		bgt	.L69
 1328              	.L68:
 356:.\ring_buffer.c **** 				}
 357:.\ring_buffer.c **** 			}
 358:.\ring_buffer.c **** 			
 359:.\ring_buffer.c **** 			if (i == *size)
 1329              		.loc 1 359 0
 1330 0078 7B68     		ldr	r3, [r7, #4]
 1331 007a 1B78     		ldrb	r3, [r3, #0]	@ zero_extendqisi2
 1332 007c 1A46     		mov	r2, r3
 1333 007e 7B69     		ldr	r3, [r7, #20]
 1334 0080 9A42     		cmp	r2, r3
 1335 0082 3BD1     		bne	.L70
 360:.\ring_buffer.c **** 			{
 361:.\ring_buffer.c **** 				// get size byte at beginning of message 
 362:.\ring_buffer.c **** 				if(RBF_ucHeadByteOut(ucIndex, &temp) == RBF_SUCCESS)	// | size | d0 | d1 | ... | dn | size |
 1336              		.loc 1 362 0
 1337 0084 FA7B     		ldrb	r2, [r7, #15]	@ zero_extendqisi2
 1338 0086 07F11203 		add	r3, r7, #18
 1339 008a 1046     		mov	r0, r2
 1340 008c 1946     		mov	r1, r3
ARM GAS  C:\Users\Martin\AppData\Local\Temp\ccvCCZX2.s 			page 31


 1341 008e FFF7FEFF 		bl	RBF_ucHeadByteOut
 1342 0092 0346     		mov	r3, r0
 1343 0094 002B     		cmp	r3, #0
 1344 0096 41D1     		bne	.L75
 363:.\ring_buffer.c **** 				{														//	 ^
 364:.\ring_buffer.c **** 					if (temp == *size)
 1345              		.loc 1 364 0
 1346 0098 7B68     		ldr	r3, [r7, #4]
 1347 009a 1A78     		ldrb	r2, [r3, #0]	@ zero_extendqisi2
 1348 009c BB7C     		ldrb	r3, [r7, #18]	@ zero_extendqisi2
 1349 009e 9A42     		cmp	r2, r3
 1350 00a0 24D1     		bne	.L72
 365:.\ring_buffer.c **** 					{
 366:.\ring_buffer.c **** 						RingBuffer[ucIndex].msgcount--;
 1351              		.loc 1 366 0
 1352 00a2 FA7B     		ldrb	r2, [r7, #15]	@ zero_extendqisi2
 1353 00a4 40F20001 		movw	r1, #:lower16:RingBuffer
 1354 00a8 C0F20001 		movt	r1, #:upper16:RingBuffer
 1355 00ac 1346     		mov	r3, r2
 1356 00ae 4FEA8303 		lsl	r3, r3, #2
 1357 00b2 1344     		add	r3, r3, r2
 1358 00b4 4FEA8303 		lsl	r3, r3, #2
 1359 00b8 0B44     		add	r3, r3, r1
 1360 00ba 03F11003 		add	r3, r3, #16
 1361 00be 1B88     		ldrh	r3, [r3, #0]
 1362 00c0 03F1FF33 		add	r3, r3, #-1
 1363 00c4 98B2     		uxth	r0, r3
 1364 00c6 40F20001 		movw	r1, #:lower16:RingBuffer
 1365 00ca C0F20001 		movt	r1, #:upper16:RingBuffer
 1366 00ce 1346     		mov	r3, r2
 1367 00d0 4FEA8303 		lsl	r3, r3, #2
 1368 00d4 1344     		add	r3, r3, r2
 1369 00d6 4FEA8303 		lsl	r3, r3, #2
 1370 00da 0B44     		add	r3, r3, r1
 1371 00dc 03F11003 		add	r3, r3, #16
 1372 00e0 0246     		mov	r2, r0	@ movhi
 1373 00e2 1A80     		strh	r2, [r3, #0]	@ movhi
 367:.\ring_buffer.c **** 						status = RBF_SUCCESS;
 1374              		.loc 1 367 0
 1375 00e4 4FF00003 		mov	r3, #0
 1376 00e8 FB74     		strb	r3, [r7, #19]
 368:.\ring_buffer.c **** 					}
 369:.\ring_buffer.c **** 					else
 370:.\ring_buffer.c **** 					{
 371:.\ring_buffer.c **** 						*size = 0;
 372:.\ring_buffer.c **** 						status = RBF_ERROR;	// this should never happen, buffer must be cleared
 373:.\ring_buffer.c **** 					}
 374:.\ring_buffer.c **** 				}
 375:.\ring_buffer.c **** 			}
 376:.\ring_buffer.c **** 			else
 377:.\ring_buffer.c **** 			{
 378:.\ring_buffer.c **** 				*size = 0;
 379:.\ring_buffer.c **** 				status = RBF_ERROR;	// this should never happen, buffer must be cleared
 1377              		.loc 1 379 0
 1378 00ea 18E0     		b	.L64
 1379              	.L72:
 1380              		.loc 1 371 0
ARM GAS  C:\Users\Martin\AppData\Local\Temp\ccvCCZX2.s 			page 32


 1381 00ec 7B68     		ldr	r3, [r7, #4]
 1382 00ee 4FF00002 		mov	r2, #0
 1383 00f2 1A70     		strb	r2, [r3, #0]
 1384              		.loc 1 372 0
 1385 00f4 4FF0FF33 		mov	r3, #-1
 1386 00f8 FB74     		strb	r3, [r7, #19]
 1387              		.loc 1 379 0
 1388 00fa 10E0     		b	.L64
 1389              	.L70:
 1390              		.loc 1 378 0
 1391 00fc 7B68     		ldr	r3, [r7, #4]
 1392 00fe 4FF00002 		mov	r2, #0
 1393 0102 1A70     		strb	r2, [r3, #0]
 1394              		.loc 1 379 0
 1395 0104 4FF0FF33 		mov	r3, #-1
 1396 0108 FB74     		strb	r3, [r7, #19]
 1397 010a 08E0     		b	.L64
 1398              	.L65:
 380:.\ring_buffer.c **** 			}	
 381:.\ring_buffer.c **** 		}
 382:.\ring_buffer.c **** 		else
 383:.\ring_buffer.c **** 		{
 384:.\ring_buffer.c **** 			*size = 0;
 1399              		.loc 1 384 0
 1400 010c 7B68     		ldr	r3, [r7, #4]
 1401 010e 4FF00002 		mov	r2, #0
 1402 0112 1A70     		strb	r2, [r3, #0]
 385:.\ring_buffer.c **** 			status = RBF_EMPTY;
 1403              		.loc 1 385 0
 1404 0114 6FF00303 		mvn	r3, #3
 1405 0118 FB74     		strb	r3, [r7, #19]
 1406 011a 00E0     		b	.L64
 1407              	.L75:
 1408              		.loc 1 379 0
 1409 011c 00BF     		nop
 1410              	.L64:
 386:.\ring_buffer.c **** 		}
 387:.\ring_buffer.c **** 	}
 388:.\ring_buffer.c **** 	
 389:.\ring_buffer.c **** 	
 390:.\ring_buffer.c **** 	return status;
 1411              		.loc 1 390 0
 1412 011e FB7C     		ldrb	r3, [r7, #19]	@ zero_extendqisi2
 391:.\ring_buffer.c **** }
 1413              		.loc 1 391 0
 1414 0120 1846     		mov	r0, r3
 1415 0122 07F11807 		add	r7, r7, #24
 1416 0126 BD46     		mov	sp, r7
 1417 0128 80BD     		pop	{r7, pc}
 1418              		.cfi_endproc
 1419              	.LFE37:
 1420              		.size	RBF_ucHeadMsgOut, .-RBF_ucHeadMsgOut
 1421 012a 00BF     		.section	.text.RBF_ucTailMsgOut,"ax",%progbits
 1422              		.align	2
 1423              		.global	RBF_ucTailMsgOut
 1424              		.thumb
 1425              		.thumb_func
ARM GAS  C:\Users\Martin\AppData\Local\Temp\ccvCCZX2.s 			page 33


 1426              		.type	RBF_ucTailMsgOut, %function
 1427              	RBF_ucTailMsgOut:
 1428              	.LFB38:
 392:.\ring_buffer.c **** /*****************************************************************/
 393:.\ring_buffer.c **** /**
 394:.\ring_buffer.c **** 	Example:
 395:.\ring_buffer.c **** 	
 396:.\ring_buffer.c **** 	| size | d0 | d1 | ... | dn | size | size | d0 | d1 | ... | dn | size |
 397:.\ring_buffer.c **** 	  ^																 ^
 398:.\ring_buffer.c **** 	  tail															 head
 399:.\ring_buffer.c **** 	  ----
 400:.\ring_buffer.c **** */
 401:.\ring_buffer.c **** uint8_t RBF_ucTailMsgOut(uint8_t ucIndex, uint8_t* target, uint8_t* size)
 402:.\ring_buffer.c **** {
 1429              		.loc 1 402 0
 1430              		.cfi_startproc
 1431              		@ args = 0, pretend = 0, frame = 24
 1432              		@ frame_needed = 1, uses_anonymous_args = 0
 1433 0000 80B5     		push	{r7, lr}
 1434              	.LCFI26:
 1435              		.cfi_def_cfa_offset 8
 1436 0002 86B0     		sub	sp, sp, #24
 1437              	.LCFI27:
 1438              		.cfi_def_cfa_offset 32
 1439 0004 00AF     		add	r7, sp, #0
 1440              		.cfi_offset 14, -4
 1441              		.cfi_offset 7, -8
 1442              	.LCFI28:
 1443              		.cfi_def_cfa_register 7
 1444 0006 0346     		mov	r3, r0
 1445 0008 B960     		str	r1, [r7, #8]
 1446 000a 7A60     		str	r2, [r7, #4]
 1447 000c FB73     		strb	r3, [r7, #15]
 403:.\ring_buffer.c ****     STATUS status;
 404:.\ring_buffer.c **** 	int i=0;
 1448              		.loc 1 404 0
 1449 000e 4FF00003 		mov	r3, #0
 1450 0012 7B61     		str	r3, [r7, #20]
 405:.\ring_buffer.c **** 	uint8_t temp;
 406:.\ring_buffer.c **** 	
 407:.\ring_buffer.c **** 	// 1st byte = message size		
 408:.\ring_buffer.c **** 	if(RBF_ucTailByteOut(ucIndex, size) == RBF_SUCCESS)		// | size | d0 | d1 | ... | dn | size |
 1451              		.loc 1 408 0
 1452 0014 FB7B     		ldrb	r3, [r7, #15]	@ zero_extendqisi2
 1453 0016 1846     		mov	r0, r3
 1454 0018 7968     		ldr	r1, [r7, #4]
 1455 001a FFF7FEFF 		bl	RBF_ucTailByteOut
 1456 001e 0346     		mov	r3, r0
 1457 0020 002B     		cmp	r3, #0
 1458 0022 75D1     		bne	.L77
 409:.\ring_buffer.c **** 	{																	//	 ^
 410:.\ring_buffer.c **** 		if (*size > 0)
 1459              		.loc 1 410 0
 1460 0024 7B68     		ldr	r3, [r7, #4]
 1461 0026 1B78     		ldrb	r3, [r3, #0]	@ zero_extendqisi2
 1462 0028 002B     		cmp	r3, #0
 1463 002a 68D0     		beq	.L78
ARM GAS  C:\Users\Martin\AppData\Local\Temp\ccvCCZX2.s 			page 34


 411:.\ring_buffer.c **** 		{
 412:.\ring_buffer.c **** 			while(i < *size)
 1464              		.loc 1 412 0
 1465 002c 17E0     		b	.L79
 1466              	.L82:
 413:.\ring_buffer.c **** 			{
 414:.\ring_buffer.c **** 				// message data bytes
 415:.\ring_buffer.c **** 				if(RBF_ucTailByteOut(ucIndex, &target[i]) == RBF_SUCCESS)	// | size | d0 | d1 | ... | dn | size
 1467              		.loc 1 415 0
 1468 002e 7A69     		ldr	r2, [r7, #20]
 1469 0030 BB68     		ldr	r3, [r7, #8]
 1470 0032 1344     		add	r3, r2, r3
 1471 0034 FA7B     		ldrb	r2, [r7, #15]	@ zero_extendqisi2
 1472 0036 1046     		mov	r0, r2
 1473 0038 1946     		mov	r1, r3
 1474 003a FFF7FEFF 		bl	RBF_ucTailByteOut
 1475 003e 0346     		mov	r3, r0
 1476 0040 002B     		cmp	r3, #0
 1477 0042 04D1     		bne	.L80
 416:.\ring_buffer.c **** 				{															//	 	    ^	   -->		   |
 417:.\ring_buffer.c **** 					i++;
 1478              		.loc 1 417 0
 1479 0044 7B69     		ldr	r3, [r7, #20]
 1480 0046 03F10103 		add	r3, r3, #1
 1481 004a 7B61     		str	r3, [r7, #20]
 1482 004c 07E0     		b	.L79
 1483              	.L80:
 418:.\ring_buffer.c **** 				}
 419:.\ring_buffer.c **** 				else
 420:.\ring_buffer.c **** 				{
 421:.\ring_buffer.c **** 					*size = 0;
 1484              		.loc 1 421 0
 1485 004e 7B68     		ldr	r3, [r7, #4]
 1486 0050 4FF00002 		mov	r2, #0
 1487 0054 1A70     		strb	r2, [r3, #0]
 422:.\ring_buffer.c **** 					status = RBF_ERROR;	// this should never happen, buffer must be cleared
 1488              		.loc 1 422 0
 1489 0056 4FF0FF33 		mov	r3, #-1
 1490 005a FB74     		strb	r3, [r7, #19]
 423:.\ring_buffer.c **** 					break; 
 1491              		.loc 1 423 0
 1492 005c 05E0     		b	.L81
 1493              	.L79:
 1494              		.loc 1 412 0
 1495 005e 7B68     		ldr	r3, [r7, #4]
 1496 0060 1B78     		ldrb	r3, [r3, #0]	@ zero_extendqisi2
 1497 0062 1A46     		mov	r2, r3
 1498 0064 7B69     		ldr	r3, [r7, #20]
 1499 0066 9A42     		cmp	r2, r3
 1500 0068 E1DC     		bgt	.L82
 1501              	.L81:
 424:.\ring_buffer.c **** 				}
 425:.\ring_buffer.c **** 			}
 426:.\ring_buffer.c **** 			
 427:.\ring_buffer.c **** 			if (i == *size)
 1502              		.loc 1 427 0
 1503 006a 7B68     		ldr	r3, [r7, #4]
ARM GAS  C:\Users\Martin\AppData\Local\Temp\ccvCCZX2.s 			page 35


 1504 006c 1B78     		ldrb	r3, [r3, #0]	@ zero_extendqisi2
 1505 006e 1A46     		mov	r2, r3
 1506 0070 7B69     		ldr	r3, [r7, #20]
 1507 0072 9A42     		cmp	r2, r3
 1508 0074 3BD1     		bne	.L83
 428:.\ring_buffer.c **** 			{
 429:.\ring_buffer.c **** 				// get size byte at beginning of message 
 430:.\ring_buffer.c **** 				if(RBF_ucTailByteOut(ucIndex, &temp) == RBF_SUCCESS)	// | size | d0 | d1 | ... | dn | size |
 1509              		.loc 1 430 0
 1510 0076 FA7B     		ldrb	r2, [r7, #15]	@ zero_extendqisi2
 1511 0078 07F11203 		add	r3, r7, #18
 1512 007c 1046     		mov	r0, r2
 1513 007e 1946     		mov	r1, r3
 1514 0080 FFF7FEFF 		bl	RBF_ucTailByteOut
 1515 0084 0346     		mov	r3, r0
 1516 0086 002B     		cmp	r3, #0
 1517 0088 41D1     		bne	.L88
 431:.\ring_buffer.c **** 				{														//	 							 ^
 432:.\ring_buffer.c **** 					if (temp == *size)
 1518              		.loc 1 432 0
 1519 008a 7B68     		ldr	r3, [r7, #4]
 1520 008c 1A78     		ldrb	r2, [r3, #0]	@ zero_extendqisi2
 1521 008e BB7C     		ldrb	r3, [r7, #18]	@ zero_extendqisi2
 1522 0090 9A42     		cmp	r2, r3
 1523 0092 24D1     		bne	.L85
 433:.\ring_buffer.c **** 					{
 434:.\ring_buffer.c **** 						RingBuffer[ucIndex].msgcount--;
 1524              		.loc 1 434 0
 1525 0094 FA7B     		ldrb	r2, [r7, #15]	@ zero_extendqisi2
 1526 0096 40F20001 		movw	r1, #:lower16:RingBuffer
 1527 009a C0F20001 		movt	r1, #:upper16:RingBuffer
 1528 009e 1346     		mov	r3, r2
 1529 00a0 4FEA8303 		lsl	r3, r3, #2
 1530 00a4 1344     		add	r3, r3, r2
 1531 00a6 4FEA8303 		lsl	r3, r3, #2
 1532 00aa 0B44     		add	r3, r3, r1
 1533 00ac 03F11003 		add	r3, r3, #16
 1534 00b0 1B88     		ldrh	r3, [r3, #0]
 1535 00b2 03F1FF33 		add	r3, r3, #-1
 1536 00b6 98B2     		uxth	r0, r3
 1537 00b8 40F20001 		movw	r1, #:lower16:RingBuffer
 1538 00bc C0F20001 		movt	r1, #:upper16:RingBuffer
 1539 00c0 1346     		mov	r3, r2
 1540 00c2 4FEA8303 		lsl	r3, r3, #2
 1541 00c6 1344     		add	r3, r3, r2
 1542 00c8 4FEA8303 		lsl	r3, r3, #2
 1543 00cc 0B44     		add	r3, r3, r1
 1544 00ce 03F11003 		add	r3, r3, #16
 1545 00d2 0246     		mov	r2, r0	@ movhi
 1546 00d4 1A80     		strh	r2, [r3, #0]	@ movhi
 435:.\ring_buffer.c **** 						status = RBF_SUCCESS;
 1547              		.loc 1 435 0
 1548 00d6 4FF00003 		mov	r3, #0
 1549 00da FB74     		strb	r3, [r7, #19]
 436:.\ring_buffer.c **** 					}
 437:.\ring_buffer.c **** 					else
 438:.\ring_buffer.c **** 					{
ARM GAS  C:\Users\Martin\AppData\Local\Temp\ccvCCZX2.s 			page 36


 439:.\ring_buffer.c **** 						*size = 0;
 440:.\ring_buffer.c **** 						status = RBF_ERROR;	// this should never happen, buffer must be cleared
 441:.\ring_buffer.c **** 					}
 442:.\ring_buffer.c **** 				}
 443:.\ring_buffer.c **** 			}
 444:.\ring_buffer.c **** 			else
 445:.\ring_buffer.c **** 			{
 446:.\ring_buffer.c **** 				*size = 0;
 447:.\ring_buffer.c **** 				status = RBF_ERROR;	// this should never happen, buffer must be cleared
 1550              		.loc 1 447 0
 1551 00dc 18E0     		b	.L77
 1552              	.L85:
 1553              		.loc 1 439 0
 1554 00de 7B68     		ldr	r3, [r7, #4]
 1555 00e0 4FF00002 		mov	r2, #0
 1556 00e4 1A70     		strb	r2, [r3, #0]
 1557              		.loc 1 440 0
 1558 00e6 4FF0FF33 		mov	r3, #-1
 1559 00ea FB74     		strb	r3, [r7, #19]
 1560              		.loc 1 447 0
 1561 00ec 10E0     		b	.L77
 1562              	.L83:
 1563              		.loc 1 446 0
 1564 00ee 7B68     		ldr	r3, [r7, #4]
 1565 00f0 4FF00002 		mov	r2, #0
 1566 00f4 1A70     		strb	r2, [r3, #0]
 1567              		.loc 1 447 0
 1568 00f6 4FF0FF33 		mov	r3, #-1
 1569 00fa FB74     		strb	r3, [r7, #19]
 1570 00fc 08E0     		b	.L77
 1571              	.L78:
 448:.\ring_buffer.c **** 			}	
 449:.\ring_buffer.c **** 		}
 450:.\ring_buffer.c **** 		else
 451:.\ring_buffer.c **** 		{
 452:.\ring_buffer.c **** 			*size = 0;
 1572              		.loc 1 452 0
 1573 00fe 7B68     		ldr	r3, [r7, #4]
 1574 0100 4FF00002 		mov	r2, #0
 1575 0104 1A70     		strb	r2, [r3, #0]
 453:.\ring_buffer.c **** 			status = RBF_EMPTY;
 1576              		.loc 1 453 0
 1577 0106 6FF00303 		mvn	r3, #3
 1578 010a FB74     		strb	r3, [r7, #19]
 1579 010c 00E0     		b	.L77
 1580              	.L88:
 1581              		.loc 1 447 0
 1582 010e 00BF     		nop
 1583              	.L77:
 454:.\ring_buffer.c **** 		}
 455:.\ring_buffer.c **** 	}
 456:.\ring_buffer.c **** 	
 457:.\ring_buffer.c **** 	
 458:.\ring_buffer.c **** 	return status;
 1584              		.loc 1 458 0
 1585 0110 FB7C     		ldrb	r3, [r7, #19]	@ zero_extendqisi2
 459:.\ring_buffer.c **** }
ARM GAS  C:\Users\Martin\AppData\Local\Temp\ccvCCZX2.s 			page 37


 1586              		.loc 1 459 0
 1587 0112 1846     		mov	r0, r3
 1588 0114 07F11807 		add	r7, r7, #24
 1589 0118 BD46     		mov	sp, r7
 1590 011a 80BD     		pop	{r7, pc}
 1591              		.cfi_endproc
 1592              	.LFE38:
 1593              		.size	RBF_ucTailMsgOut, .-RBF_ucTailMsgOut
 1594              		.section	.text.RBF_ucGetMsgCount,"ax",%progbits
 1595              		.align	2
 1596              		.global	RBF_ucGetMsgCount
 1597              		.thumb
 1598              		.thumb_func
 1599              		.type	RBF_ucGetMsgCount, %function
 1600              	RBF_ucGetMsgCount:
 1601              	.LFB39:
 460:.\ring_buffer.c **** /*****************************************************************/
 461:.\ring_buffer.c **** uint8_t RBF_ucGetMsgCount(uint8_t ucIndex)
 462:.\ring_buffer.c **** {
 1602              		.loc 1 462 0
 1603              		.cfi_startproc
 1604              		@ args = 0, pretend = 0, frame = 8
 1605              		@ frame_needed = 1, uses_anonymous_args = 0
 1606              		@ link register save eliminated.
 1607 0000 80B4     		push	{r7}
 1608              	.LCFI29:
 1609              		.cfi_def_cfa_offset 4
 1610 0002 83B0     		sub	sp, sp, #12
 1611              	.LCFI30:
 1612              		.cfi_def_cfa_offset 16
 1613 0004 00AF     		add	r7, sp, #0
 1614              		.cfi_offset 7, -4
 1615              	.LCFI31:
 1616              		.cfi_def_cfa_register 7
 1617 0006 0346     		mov	r3, r0
 1618 0008 FB71     		strb	r3, [r7, #7]
 463:.\ring_buffer.c **** 	return RingBuffer[ucIndex].msgcount;
 1619              		.loc 1 463 0
 1620 000a F979     		ldrb	r1, [r7, #7]	@ zero_extendqisi2
 1621 000c 40F20002 		movw	r2, #:lower16:RingBuffer
 1622 0010 C0F20002 		movt	r2, #:upper16:RingBuffer
 1623 0014 0B46     		mov	r3, r1
 1624 0016 4FEA8303 		lsl	r3, r3, #2
 1625 001a 0B44     		add	r3, r3, r1
 1626 001c 4FEA8303 		lsl	r3, r3, #2
 1627 0020 1344     		add	r3, r3, r2
 1628 0022 03F11003 		add	r3, r3, #16
 1629 0026 1B88     		ldrh	r3, [r3, #0]
 1630 0028 DBB2     		uxtb	r3, r3
 464:.\ring_buffer.c **** }	
 1631              		.loc 1 464 0
 1632 002a 1846     		mov	r0, r3
 1633 002c 07F10C07 		add	r7, r7, #12
 1634 0030 BD46     		mov	sp, r7
 1635 0032 80BC     		pop	{r7}
 1636 0034 7047     		bx	lr
 1637              		.cfi_endproc
ARM GAS  C:\Users\Martin\AppData\Local\Temp\ccvCCZX2.s 			page 38


 1638              	.LFE39:
 1639              		.size	RBF_ucGetMsgCount, .-RBF_ucGetMsgCount
 1640 0036 00BF     		.section	.text.RBF_ucGetByteCount,"ax",%progbits
 1641              		.align	2
 1642              		.global	RBF_ucGetByteCount
 1643              		.thumb
 1644              		.thumb_func
 1645              		.type	RBF_ucGetByteCount, %function
 1646              	RBF_ucGetByteCount:
 1647              	.LFB40:
 465:.\ring_buffer.c **** 
 466:.\ring_buffer.c **** /*****************************************************************/
 467:.\ring_buffer.c **** uint8_t RBF_ucGetByteCount(uint8_t ucIndex)
 468:.\ring_buffer.c **** {
 1648              		.loc 1 468 0
 1649              		.cfi_startproc
 1650              		@ args = 0, pretend = 0, frame = 16
 1651              		@ frame_needed = 1, uses_anonymous_args = 0
 1652              		@ link register save eliminated.
 1653 0000 80B4     		push	{r7}
 1654              	.LCFI32:
 1655              		.cfi_def_cfa_offset 4
 1656 0002 85B0     		sub	sp, sp, #20
 1657              	.LCFI33:
 1658              		.cfi_def_cfa_offset 24
 1659 0004 00AF     		add	r7, sp, #0
 1660              		.cfi_offset 7, -4
 1661              	.LCFI34:
 1662              		.cfi_def_cfa_register 7
 1663 0006 0346     		mov	r3, r0
 1664 0008 FB71     		strb	r3, [r7, #7]
 469:.\ring_buffer.c ****     uint8_t bytecount;
 470:.\ring_buffer.c ****     
 471:.\ring_buffer.c ****     if (RingBuffer[ucIndex].head == RingBuffer[ucIndex].tail)
 1665              		.loc 1 471 0
 1666 000a F979     		ldrb	r1, [r7, #7]	@ zero_extendqisi2
 1667 000c 40F20002 		movw	r2, #:lower16:RingBuffer
 1668 0010 C0F20002 		movt	r2, #:upper16:RingBuffer
 1669 0014 0B46     		mov	r3, r1
 1670 0016 4FEA8303 		lsl	r3, r3, #2
 1671 001a 0B44     		add	r3, r3, r1
 1672 001c 4FEA8303 		lsl	r3, r3, #2
 1673 0020 1344     		add	r3, r3, r2
 1674 0022 03F10803 		add	r3, r3, #8
 1675 0026 5888     		ldrh	r0, [r3, #2]
 1676 0028 F979     		ldrb	r1, [r7, #7]	@ zero_extendqisi2
 1677 002a 40F20002 		movw	r2, #:lower16:RingBuffer
 1678 002e C0F20002 		movt	r2, #:upper16:RingBuffer
 1679 0032 0B46     		mov	r3, r1
 1680 0034 4FEA8303 		lsl	r3, r3, #2
 1681 0038 0B44     		add	r3, r3, r1
 1682 003a 4FEA8303 		lsl	r3, r3, #2
 1683 003e 1344     		add	r3, r3, r2
 1684 0040 03F10803 		add	r3, r3, #8
 1685 0044 9B88     		ldrh	r3, [r3, #4]
 1686 0046 9842     		cmp	r0, r3
 1687 0048 03D1     		bne	.L92
ARM GAS  C:\Users\Martin\AppData\Local\Temp\ccvCCZX2.s 			page 39


 472:.\ring_buffer.c ****     {
 473:.\ring_buffer.c ****         bytecount = 0;
 1688              		.loc 1 473 0
 1689 004a 4FF00003 		mov	r3, #0
 1690 004e FB73     		strb	r3, [r7, #15]
 1691 0050 79E0     		b	.L93
 1692              	.L92:
 474:.\ring_buffer.c ****     }
 475:.\ring_buffer.c ****     else if (RingBuffer[ucIndex].head > RingBuffer[ucIndex].tail)
 1693              		.loc 1 475 0
 1694 0052 F979     		ldrb	r1, [r7, #7]	@ zero_extendqisi2
 1695 0054 40F20002 		movw	r2, #:lower16:RingBuffer
 1696 0058 C0F20002 		movt	r2, #:upper16:RingBuffer
 1697 005c 0B46     		mov	r3, r1
 1698 005e 4FEA8303 		lsl	r3, r3, #2
 1699 0062 0B44     		add	r3, r3, r1
 1700 0064 4FEA8303 		lsl	r3, r3, #2
 1701 0068 1344     		add	r3, r3, r2
 1702 006a 03F10803 		add	r3, r3, #8
 1703 006e 5888     		ldrh	r0, [r3, #2]
 1704 0070 F979     		ldrb	r1, [r7, #7]	@ zero_extendqisi2
 1705 0072 40F20002 		movw	r2, #:lower16:RingBuffer
 1706 0076 C0F20002 		movt	r2, #:upper16:RingBuffer
 1707 007a 0B46     		mov	r3, r1
 1708 007c 4FEA8303 		lsl	r3, r3, #2
 1709 0080 0B44     		add	r3, r3, r1
 1710 0082 4FEA8303 		lsl	r3, r3, #2
 1711 0086 1344     		add	r3, r3, r2
 1712 0088 03F10803 		add	r3, r3, #8
 1713 008c 9B88     		ldrh	r3, [r3, #4]
 1714 008e 9842     		cmp	r0, r3
 1715 0090 23D9     		bls	.L94
 476:.\ring_buffer.c ****     {
 477:.\ring_buffer.c ****         bytecount = RingBuffer[ucIndex].head - RingBuffer[ucIndex].tail;
 1716              		.loc 1 477 0
 1717 0092 F979     		ldrb	r1, [r7, #7]	@ zero_extendqisi2
 1718 0094 40F20002 		movw	r2, #:lower16:RingBuffer
 1719 0098 C0F20002 		movt	r2, #:upper16:RingBuffer
 1720 009c 0B46     		mov	r3, r1
 1721 009e 4FEA8303 		lsl	r3, r3, #2
 1722 00a2 0B44     		add	r3, r3, r1
 1723 00a4 4FEA8303 		lsl	r3, r3, #2
 1724 00a8 1344     		add	r3, r3, r2
 1725 00aa 03F10803 		add	r3, r3, #8
 1726 00ae 5B88     		ldrh	r3, [r3, #2]
 1727 00b0 D8B2     		uxtb	r0, r3
 1728 00b2 F979     		ldrb	r1, [r7, #7]	@ zero_extendqisi2
 1729 00b4 40F20002 		movw	r2, #:lower16:RingBuffer
 1730 00b8 C0F20002 		movt	r2, #:upper16:RingBuffer
 1731 00bc 0B46     		mov	r3, r1
 1732 00be 4FEA8303 		lsl	r3, r3, #2
 1733 00c2 0B44     		add	r3, r3, r1
 1734 00c4 4FEA8303 		lsl	r3, r3, #2
 1735 00c8 1344     		add	r3, r3, r2
 1736 00ca 03F10803 		add	r3, r3, #8
 1737 00ce 9B88     		ldrh	r3, [r3, #4]
 1738 00d0 DBB2     		uxtb	r3, r3
ARM GAS  C:\Users\Martin\AppData\Local\Temp\ccvCCZX2.s 			page 40


 1739 00d2 C3EB0003 		rsb	r3, r3, r0
 1740 00d6 FB73     		strb	r3, [r7, #15]
 1741 00d8 35E0     		b	.L93
 1742              	.L94:
 478:.\ring_buffer.c ****     }
 479:.\ring_buffer.c ****     else
 480:.\ring_buffer.c ****     {
 481:.\ring_buffer.c ****         bytecount = RingBuffer[ucIndex].head + (RingBuffer[ucIndex].size - RingBuffer[ucIndex].tail
 1743              		.loc 1 481 0
 1744 00da F979     		ldrb	r1, [r7, #7]	@ zero_extendqisi2
 1745 00dc 40F20002 		movw	r2, #:lower16:RingBuffer
 1746 00e0 C0F20002 		movt	r2, #:upper16:RingBuffer
 1747 00e4 0B46     		mov	r3, r1
 1748 00e6 4FEA8303 		lsl	r3, r3, #2
 1749 00ea 0B44     		add	r3, r3, r1
 1750 00ec 4FEA8303 		lsl	r3, r3, #2
 1751 00f0 1344     		add	r3, r3, r2
 1752 00f2 03F10803 		add	r3, r3, #8
 1753 00f6 5B88     		ldrh	r3, [r3, #2]
 1754 00f8 D8B2     		uxtb	r0, r3
 1755 00fa F979     		ldrb	r1, [r7, #7]	@ zero_extendqisi2
 1756 00fc 40F20002 		movw	r2, #:lower16:RingBuffer
 1757 0100 C0F20002 		movt	r2, #:upper16:RingBuffer
 1758 0104 0B46     		mov	r3, r1
 1759 0106 4FEA8303 		lsl	r3, r3, #2
 1760 010a 0B44     		add	r3, r3, r1
 1761 010c 4FEA8303 		lsl	r3, r3, #2
 1762 0110 1344     		add	r3, r3, r2
 1763 0112 03F10803 		add	r3, r3, #8
 1764 0116 1B88     		ldrh	r3, [r3, #0]
 1765 0118 5FFA83FC 		uxtb	ip, r3
 1766 011c F979     		ldrb	r1, [r7, #7]	@ zero_extendqisi2
 1767 011e 40F20002 		movw	r2, #:lower16:RingBuffer
 1768 0122 C0F20002 		movt	r2, #:upper16:RingBuffer
 1769 0126 0B46     		mov	r3, r1
 1770 0128 4FEA8303 		lsl	r3, r3, #2
 1771 012c 0B44     		add	r3, r3, r1
 1772 012e 4FEA8303 		lsl	r3, r3, #2
 1773 0132 1344     		add	r3, r3, r2
 1774 0134 03F10803 		add	r3, r3, #8
 1775 0138 9B88     		ldrh	r3, [r3, #4]
 1776 013a DBB2     		uxtb	r3, r3
 1777 013c C3EB0C03 		rsb	r3, r3, ip
 1778 0140 DBB2     		uxtb	r3, r3
 1779 0142 0344     		add	r3, r0, r3
 1780 0144 FB73     		strb	r3, [r7, #15]
 1781              	.L93:
 482:.\ring_buffer.c ****     }
 483:.\ring_buffer.c ****     
 484:.\ring_buffer.c ****      if (RingBuffer[ucIndex].zb == 1)
 1782              		.loc 1 484 0
 1783 0146 F979     		ldrb	r1, [r7, #7]	@ zero_extendqisi2
 1784 0148 40F20002 		movw	r2, #:lower16:RingBuffer
 1785 014c C0F20002 		movt	r2, #:upper16:RingBuffer
 1786 0150 0B46     		mov	r3, r1
 1787 0152 4FEA8303 		lsl	r3, r3, #2
 1788 0156 0B44     		add	r3, r3, r1
ARM GAS  C:\Users\Martin\AppData\Local\Temp\ccvCCZX2.s 			page 41


 1789 0158 4FEA8303 		lsl	r3, r3, #2
 1790 015c 1344     		add	r3, r3, r2
 1791 015e 03F10803 		add	r3, r3, #8
 1792 0162 9B79     		ldrb	r3, [r3, #6]	@ zero_extendqisi2
 1793 0164 012B     		cmp	r3, #1
 1794 0166 03D1     		bne	.L95
 485:.\ring_buffer.c ****     {
 486:.\ring_buffer.c ****         bytecount++;
 1795              		.loc 1 486 0
 1796 0168 FB7B     		ldrb	r3, [r7, #15]
 1797 016a 03F10103 		add	r3, r3, #1
 1798 016e FB73     		strb	r3, [r7, #15]
 1799              	.L95:
 487:.\ring_buffer.c ****     }
 488:.\ring_buffer.c ****     
 489:.\ring_buffer.c ****     return bytecount;
 1800              		.loc 1 489 0
 1801 0170 FB7B     		ldrb	r3, [r7, #15]	@ zero_extendqisi2
 490:.\ring_buffer.c **** }
 1802              		.loc 1 490 0
 1803 0172 1846     		mov	r0, r3
 1804 0174 07F11407 		add	r7, r7, #20
 1805 0178 BD46     		mov	sp, r7
 1806 017a 80BC     		pop	{r7}
 1807 017c 7047     		bx	lr
 1808              		.cfi_endproc
 1809              	.LFE40:
 1810              		.size	RBF_ucGetByteCount, .-RBF_ucGetByteCount
 1811 017e 00BF     		.section	.text.IncHead,"ax",%progbits
 1812              		.align	2
 1813              		.thumb
 1814              		.thumb_func
 1815              		.type	IncHead, %function
 1816              	IncHead:
 1817              	.LFB41:
 491:.\ring_buffer.c **** 
 492:.\ring_buffer.c **** /* ----------------------------------------------------------------- */
 493:.\ring_buffer.c **** /* --------------------- STATIC FUNCTIONS -------------------------- */ 
 494:.\ring_buffer.c **** /* ----------------------------------------------------------------- */
 495:.\ring_buffer.c **** /*****************************************************************/
 496:.\ring_buffer.c **** static uint8_t IncHead(uint8_t ucIdx)
 497:.\ring_buffer.c **** {
 1818              		.loc 1 497 0
 1819              		.cfi_startproc
 1820              		@ args = 0, pretend = 0, frame = 16
 1821              		@ frame_needed = 1, uses_anonymous_args = 0
 1822              		@ link register save eliminated.
 1823 0000 80B4     		push	{r7}
 1824              	.LCFI35:
 1825              		.cfi_def_cfa_offset 4
 1826 0002 85B0     		sub	sp, sp, #20
 1827              	.LCFI36:
 1828              		.cfi_def_cfa_offset 24
 1829 0004 00AF     		add	r7, sp, #0
 1830              		.cfi_offset 7, -4
 1831              	.LCFI37:
 1832              		.cfi_def_cfa_register 7
ARM GAS  C:\Users\Martin\AppData\Local\Temp\ccvCCZX2.s 			page 42


 1833 0006 0346     		mov	r3, r0
 1834 0008 FB71     		strb	r3, [r7, #7]
 498:.\ring_buffer.c ****     uint8_t status = RBF_FAIL;
 1835              		.loc 1 498 0
 1836 000a 4FF00103 		mov	r3, #1
 1837 000e 7B73     		strb	r3, [r7, #13]
 499:.\ring_buffer.c ****     uint16_t tempHead = RingBuffer[ucIdx].head + 1;
 1838              		.loc 1 499 0
 1839 0010 F979     		ldrb	r1, [r7, #7]	@ zero_extendqisi2
 1840 0012 40F20002 		movw	r2, #:lower16:RingBuffer
 1841 0016 C0F20002 		movt	r2, #:upper16:RingBuffer
 1842 001a 0B46     		mov	r3, r1
 1843 001c 4FEA8303 		lsl	r3, r3, #2
 1844 0020 0B44     		add	r3, r3, r1
 1845 0022 4FEA8303 		lsl	r3, r3, #2
 1846 0026 1344     		add	r3, r3, r2
 1847 0028 03F10803 		add	r3, r3, #8
 1848 002c 5B88     		ldrh	r3, [r3, #2]
 1849 002e 03F10103 		add	r3, r3, #1
 1850 0032 FB81     		strh	r3, [r7, #14]	@ movhi
 500:.\ring_buffer.c ****     
 501:.\ring_buffer.c ****     if (tempHead > RingBuffer[ucIdx].size - 1)
 1851              		.loc 1 501 0
 1852 0034 F889     		ldrh	r0, [r7, #14]
 1853 0036 F979     		ldrb	r1, [r7, #7]	@ zero_extendqisi2
 1854 0038 40F20002 		movw	r2, #:lower16:RingBuffer
 1855 003c C0F20002 		movt	r2, #:upper16:RingBuffer
 1856 0040 0B46     		mov	r3, r1
 1857 0042 4FEA8303 		lsl	r3, r3, #2
 1858 0046 0B44     		add	r3, r3, r1
 1859 0048 4FEA8303 		lsl	r3, r3, #2
 1860 004c 1344     		add	r3, r3, r2
 1861 004e 03F10803 		add	r3, r3, #8
 1862 0052 1B88     		ldrh	r3, [r3, #0]
 1863 0054 03F1FF33 		add	r3, r3, #-1
 1864 0058 9842     		cmp	r0, r3
 1865 005a 02DD     		ble	.L98
 502:.\ring_buffer.c ****     {
 503:.\ring_buffer.c ****         tempHead = 0;
 1866              		.loc 1 503 0
 1867 005c 4FF00003 		mov	r3, #0
 1868 0060 FB81     		strh	r3, [r7, #14]	@ movhi
 1869              	.L98:
 504:.\ring_buffer.c ****     }
 505:.\ring_buffer.c ****     
 506:.\ring_buffer.c ****     if (tempHead != RingBuffer[ucIdx].tail)
 1870              		.loc 1 506 0
 1871 0062 F979     		ldrb	r1, [r7, #7]	@ zero_extendqisi2
 1872 0064 40F20002 		movw	r2, #:lower16:RingBuffer
 1873 0068 C0F20002 		movt	r2, #:upper16:RingBuffer
 1874 006c 0B46     		mov	r3, r1
 1875 006e 4FEA8303 		lsl	r3, r3, #2
 1876 0072 0B44     		add	r3, r3, r1
 1877 0074 4FEA8303 		lsl	r3, r3, #2
 1878 0078 1344     		add	r3, r3, r2
 1879 007a 03F10803 		add	r3, r3, #8
 1880 007e 9B88     		ldrh	r3, [r3, #4]
ARM GAS  C:\Users\Martin\AppData\Local\Temp\ccvCCZX2.s 			page 43


 1881 0080 FA89     		ldrh	r2, [r7, #14]
 1882 0082 9A42     		cmp	r2, r3
 1883 0084 12D0     		beq	.L99
 507:.\ring_buffer.c ****     {
 508:.\ring_buffer.c ****         RingBuffer[ucIdx].head = tempHead;
 1884              		.loc 1 508 0
 1885 0086 F979     		ldrb	r1, [r7, #7]	@ zero_extendqisi2
 1886 0088 40F20002 		movw	r2, #:lower16:RingBuffer
 1887 008c C0F20002 		movt	r2, #:upper16:RingBuffer
 1888 0090 0B46     		mov	r3, r1
 1889 0092 4FEA8303 		lsl	r3, r3, #2
 1890 0096 0B44     		add	r3, r3, r1
 1891 0098 4FEA8303 		lsl	r3, r3, #2
 1892 009c 1344     		add	r3, r3, r2
 1893 009e 03F10803 		add	r3, r3, #8
 1894 00a2 FA89     		ldrh	r2, [r7, #14]	@ movhi
 1895 00a4 5A80     		strh	r2, [r3, #2]	@ movhi
 509:.\ring_buffer.c ****         status = RBF_SUCCESS;
 1896              		.loc 1 509 0
 1897 00a6 4FF00003 		mov	r3, #0
 1898 00aa 7B73     		strb	r3, [r7, #13]
 1899              	.L99:
 510:.\ring_buffer.c ****     }
 511:.\ring_buffer.c ****     
 512:.\ring_buffer.c ****     return status;
 1900              		.loc 1 512 0
 1901 00ac 7B7B     		ldrb	r3, [r7, #13]	@ zero_extendqisi2
 513:.\ring_buffer.c **** } 
 1902              		.loc 1 513 0
 1903 00ae 1846     		mov	r0, r3
 1904 00b0 07F11407 		add	r7, r7, #20
 1905 00b4 BD46     		mov	sp, r7
 1906 00b6 80BC     		pop	{r7}
 1907 00b8 7047     		bx	lr
 1908              		.cfi_endproc
 1909              	.LFE41:
 1910              		.size	IncHead, .-IncHead
 1911 00ba 00BF     		.section	.text.DecHead,"ax",%progbits
 1912              		.align	2
 1913              		.thumb
 1914              		.thumb_func
 1915              		.type	DecHead, %function
 1916              	DecHead:
 1917              	.LFB42:
 514:.\ring_buffer.c **** /*****************************************************************/
 515:.\ring_buffer.c **** static uint8_t DecHead(uint8_t ucIdx)
 516:.\ring_buffer.c **** {
 1918              		.loc 1 516 0
 1919              		.cfi_startproc
 1920              		@ args = 0, pretend = 0, frame = 16
 1921              		@ frame_needed = 1, uses_anonymous_args = 0
 1922              		@ link register save eliminated.
 1923 0000 80B4     		push	{r7}
 1924              	.LCFI38:
 1925              		.cfi_def_cfa_offset 4
 1926 0002 85B0     		sub	sp, sp, #20
 1927              	.LCFI39:
ARM GAS  C:\Users\Martin\AppData\Local\Temp\ccvCCZX2.s 			page 44


 1928              		.cfi_def_cfa_offset 24
 1929 0004 00AF     		add	r7, sp, #0
 1930              		.cfi_offset 7, -4
 1931              	.LCFI40:
 1932              		.cfi_def_cfa_register 7
 1933 0006 0346     		mov	r3, r0
 1934 0008 FB71     		strb	r3, [r7, #7]
 517:.\ring_buffer.c ****     uint8_t status = RBF_FAIL;
 1935              		.loc 1 517 0
 1936 000a 4FF00103 		mov	r3, #1
 1937 000e FB73     		strb	r3, [r7, #15]
 518:.\ring_buffer.c ****     
 519:.\ring_buffer.c ****     if(RingBuffer[ucIdx].head != RingBuffer[ucIdx].tail)
 1938              		.loc 1 519 0
 1939 0010 F979     		ldrb	r1, [r7, #7]	@ zero_extendqisi2
 1940 0012 40F20002 		movw	r2, #:lower16:RingBuffer
 1941 0016 C0F20002 		movt	r2, #:upper16:RingBuffer
 1942 001a 0B46     		mov	r3, r1
 1943 001c 4FEA8303 		lsl	r3, r3, #2
 1944 0020 0B44     		add	r3, r3, r1
 1945 0022 4FEA8303 		lsl	r3, r3, #2
 1946 0026 1344     		add	r3, r3, r2
 1947 0028 03F10803 		add	r3, r3, #8
 1948 002c 5888     		ldrh	r0, [r3, #2]
 1949 002e F979     		ldrb	r1, [r7, #7]	@ zero_extendqisi2
 1950 0030 40F20002 		movw	r2, #:lower16:RingBuffer
 1951 0034 C0F20002 		movt	r2, #:upper16:RingBuffer
 1952 0038 0B46     		mov	r3, r1
 1953 003a 4FEA8303 		lsl	r3, r3, #2
 1954 003e 0B44     		add	r3, r3, r1
 1955 0040 4FEA8303 		lsl	r3, r3, #2
 1956 0044 1344     		add	r3, r3, r2
 1957 0046 03F10803 		add	r3, r3, #8
 1958 004a 9B88     		ldrh	r3, [r3, #4]
 1959 004c 9842     		cmp	r0, r3
 1960 004e 57D0     		beq	.L102
 520:.\ring_buffer.c ****     {
 521:.\ring_buffer.c ****         if (RingBuffer[ucIdx].head == 0)
 1961              		.loc 1 521 0
 1962 0050 F979     		ldrb	r1, [r7, #7]	@ zero_extendqisi2
 1963 0052 40F20002 		movw	r2, #:lower16:RingBuffer
 1964 0056 C0F20002 		movt	r2, #:upper16:RingBuffer
 1965 005a 0B46     		mov	r3, r1
 1966 005c 4FEA8303 		lsl	r3, r3, #2
 1967 0060 0B44     		add	r3, r3, r1
 1968 0062 4FEA8303 		lsl	r3, r3, #2
 1969 0066 1344     		add	r3, r3, r2
 1970 0068 03F10803 		add	r3, r3, #8
 1971 006c 5B88     		ldrh	r3, [r3, #2]
 1972 006e 002B     		cmp	r3, #0
 1973 0070 22D1     		bne	.L103
 522:.\ring_buffer.c ****         {
 523:.\ring_buffer.c ****             RingBuffer[ucIdx].head = RingBuffer[ucIdx].size - 1;
 1974              		.loc 1 523 0
 1975 0072 F979     		ldrb	r1, [r7, #7]	@ zero_extendqisi2
 1976 0074 F879     		ldrb	r0, [r7, #7]	@ zero_extendqisi2
 1977 0076 40F20002 		movw	r2, #:lower16:RingBuffer
ARM GAS  C:\Users\Martin\AppData\Local\Temp\ccvCCZX2.s 			page 45


 1978 007a C0F20002 		movt	r2, #:upper16:RingBuffer
 1979 007e 0346     		mov	r3, r0
 1980 0080 4FEA8303 		lsl	r3, r3, #2
 1981 0084 0344     		add	r3, r3, r0
 1982 0086 4FEA8303 		lsl	r3, r3, #2
 1983 008a 1344     		add	r3, r3, r2
 1984 008c 03F10803 		add	r3, r3, #8
 1985 0090 1B88     		ldrh	r3, [r3, #0]
 1986 0092 03F1FF33 		add	r3, r3, #-1
 1987 0096 98B2     		uxth	r0, r3
 1988 0098 40F20002 		movw	r2, #:lower16:RingBuffer
 1989 009c C0F20002 		movt	r2, #:upper16:RingBuffer
 1990 00a0 0B46     		mov	r3, r1
 1991 00a2 4FEA8303 		lsl	r3, r3, #2
 1992 00a6 0B44     		add	r3, r3, r1
 1993 00a8 4FEA8303 		lsl	r3, r3, #2
 1994 00ac 1344     		add	r3, r3, r2
 1995 00ae 03F10803 		add	r3, r3, #8
 1996 00b2 0246     		mov	r2, r0	@ movhi
 1997 00b4 5A80     		strh	r2, [r3, #2]	@ movhi
 1998 00b6 20E0     		b	.L104
 1999              	.L103:
 524:.\ring_buffer.c ****         }
 525:.\ring_buffer.c ****         else
 526:.\ring_buffer.c ****         {
 527:.\ring_buffer.c ****             RingBuffer[ucIdx].head--;
 2000              		.loc 1 527 0
 2001 00b8 FA79     		ldrb	r2, [r7, #7]	@ zero_extendqisi2
 2002 00ba 40F20001 		movw	r1, #:lower16:RingBuffer
 2003 00be C0F20001 		movt	r1, #:upper16:RingBuffer
 2004 00c2 1346     		mov	r3, r2
 2005 00c4 4FEA8303 		lsl	r3, r3, #2
 2006 00c8 1344     		add	r3, r3, r2
 2007 00ca 4FEA8303 		lsl	r3, r3, #2
 2008 00ce 0B44     		add	r3, r3, r1
 2009 00d0 03F10803 		add	r3, r3, #8
 2010 00d4 5B88     		ldrh	r3, [r3, #2]
 2011 00d6 03F1FF33 		add	r3, r3, #-1
 2012 00da 98B2     		uxth	r0, r3
 2013 00dc 40F20001 		movw	r1, #:lower16:RingBuffer
 2014 00e0 C0F20001 		movt	r1, #:upper16:RingBuffer
 2015 00e4 1346     		mov	r3, r2
 2016 00e6 4FEA8303 		lsl	r3, r3, #2
 2017 00ea 1344     		add	r3, r3, r2
 2018 00ec 4FEA8303 		lsl	r3, r3, #2
 2019 00f0 0B44     		add	r3, r3, r1
 2020 00f2 03F10803 		add	r3, r3, #8
 2021 00f6 0246     		mov	r2, r0	@ movhi
 2022 00f8 5A80     		strh	r2, [r3, #2]	@ movhi
 2023              	.L104:
 528:.\ring_buffer.c ****         }
 529:.\ring_buffer.c ****         
 530:.\ring_buffer.c ****         status = RBF_SUCCESS;
 2024              		.loc 1 530 0
 2025 00fa 4FF00003 		mov	r3, #0
 2026 00fe FB73     		strb	r3, [r7, #15]
 2027              	.L102:
ARM GAS  C:\Users\Martin\AppData\Local\Temp\ccvCCZX2.s 			page 46


 531:.\ring_buffer.c ****     }
 532:.\ring_buffer.c ****         
 533:.\ring_buffer.c ****     return status;
 2028              		.loc 1 533 0
 2029 0100 FB7B     		ldrb	r3, [r7, #15]	@ zero_extendqisi2
 534:.\ring_buffer.c **** }
 2030              		.loc 1 534 0
 2031 0102 1846     		mov	r0, r3
 2032 0104 07F11407 		add	r7, r7, #20
 2033 0108 BD46     		mov	sp, r7
 2034 010a 80BC     		pop	{r7}
 2035 010c 7047     		bx	lr
 2036              		.cfi_endproc
 2037              	.LFE42:
 2038              		.size	DecHead, .-DecHead
 2039 010e 00BF     		.section	.text.IncTail,"ax",%progbits
 2040              		.align	2
 2041              		.thumb
 2042              		.thumb_func
 2043              		.type	IncTail, %function
 2044              	IncTail:
 2045              	.LFB43:
 535:.\ring_buffer.c **** /*****************************************************************/
 536:.\ring_buffer.c **** static uint8_t IncTail(uint8_t ucIdx)
 537:.\ring_buffer.c **** {
 2046              		.loc 1 537 0
 2047              		.cfi_startproc
 2048              		@ args = 0, pretend = 0, frame = 16
 2049              		@ frame_needed = 1, uses_anonymous_args = 0
 2050              		@ link register save eliminated.
 2051 0000 80B4     		push	{r7}
 2052              	.LCFI41:
 2053              		.cfi_def_cfa_offset 4
 2054 0002 85B0     		sub	sp, sp, #20
 2055              	.LCFI42:
 2056              		.cfi_def_cfa_offset 24
 2057 0004 00AF     		add	r7, sp, #0
 2058              		.cfi_offset 7, -4
 2059              	.LCFI43:
 2060              		.cfi_def_cfa_register 7
 2061 0006 0346     		mov	r3, r0
 2062 0008 FB71     		strb	r3, [r7, #7]
 538:.\ring_buffer.c ****     uint8_t status = RBF_FAIL;
 2063              		.loc 1 538 0
 2064 000a 4FF00103 		mov	r3, #1
 2065 000e 7B73     		strb	r3, [r7, #13]
 539:.\ring_buffer.c ****     uint16_t tempTail = RingBuffer[ucIdx].tail + 1;
 2066              		.loc 1 539 0
 2067 0010 F979     		ldrb	r1, [r7, #7]	@ zero_extendqisi2
 2068 0012 40F20002 		movw	r2, #:lower16:RingBuffer
 2069 0016 C0F20002 		movt	r2, #:upper16:RingBuffer
 2070 001a 0B46     		mov	r3, r1
 2071 001c 4FEA8303 		lsl	r3, r3, #2
 2072 0020 0B44     		add	r3, r3, r1
 2073 0022 4FEA8303 		lsl	r3, r3, #2
 2074 0026 1344     		add	r3, r3, r2
 2075 0028 03F10803 		add	r3, r3, #8
ARM GAS  C:\Users\Martin\AppData\Local\Temp\ccvCCZX2.s 			page 47


 2076 002c 9B88     		ldrh	r3, [r3, #4]
 2077 002e 03F10103 		add	r3, r3, #1
 2078 0032 FB81     		strh	r3, [r7, #14]	@ movhi
 540:.\ring_buffer.c ****     
 541:.\ring_buffer.c ****     if (tempTail > RingBuffer[ucIdx].size - 1)
 2079              		.loc 1 541 0
 2080 0034 F889     		ldrh	r0, [r7, #14]
 2081 0036 F979     		ldrb	r1, [r7, #7]	@ zero_extendqisi2
 2082 0038 40F20002 		movw	r2, #:lower16:RingBuffer
 2083 003c C0F20002 		movt	r2, #:upper16:RingBuffer
 2084 0040 0B46     		mov	r3, r1
 2085 0042 4FEA8303 		lsl	r3, r3, #2
 2086 0046 0B44     		add	r3, r3, r1
 2087 0048 4FEA8303 		lsl	r3, r3, #2
 2088 004c 1344     		add	r3, r3, r2
 2089 004e 03F10803 		add	r3, r3, #8
 2090 0052 1B88     		ldrh	r3, [r3, #0]
 2091 0054 03F1FF33 		add	r3, r3, #-1
 2092 0058 9842     		cmp	r0, r3
 2093 005a 02DD     		ble	.L107
 542:.\ring_buffer.c ****     {
 543:.\ring_buffer.c ****         tempTail = 0;
 2094              		.loc 1 543 0
 2095 005c 4FF00003 		mov	r3, #0
 2096 0060 FB81     		strh	r3, [r7, #14]	@ movhi
 2097              	.L107:
 544:.\ring_buffer.c ****     }
 545:.\ring_buffer.c ****     
 546:.\ring_buffer.c ****     if (tempTail != RingBuffer[ucIdx].head)
 2098              		.loc 1 546 0
 2099 0062 F979     		ldrb	r1, [r7, #7]	@ zero_extendqisi2
 2100 0064 40F20002 		movw	r2, #:lower16:RingBuffer
 2101 0068 C0F20002 		movt	r2, #:upper16:RingBuffer
 2102 006c 0B46     		mov	r3, r1
 2103 006e 4FEA8303 		lsl	r3, r3, #2
 2104 0072 0B44     		add	r3, r3, r1
 2105 0074 4FEA8303 		lsl	r3, r3, #2
 2106 0078 1344     		add	r3, r3, r2
 2107 007a 03F10803 		add	r3, r3, #8
 2108 007e 5B88     		ldrh	r3, [r3, #2]
 2109 0080 FA89     		ldrh	r2, [r7, #14]
 2110 0082 9A42     		cmp	r2, r3
 2111 0084 12D0     		beq	.L108
 547:.\ring_buffer.c ****     {
 548:.\ring_buffer.c ****         RingBuffer[ucIdx].tail = tempTail;
 2112              		.loc 1 548 0
 2113 0086 F979     		ldrb	r1, [r7, #7]	@ zero_extendqisi2
 2114 0088 40F20002 		movw	r2, #:lower16:RingBuffer
 2115 008c C0F20002 		movt	r2, #:upper16:RingBuffer
 2116 0090 0B46     		mov	r3, r1
 2117 0092 4FEA8303 		lsl	r3, r3, #2
 2118 0096 0B44     		add	r3, r3, r1
 2119 0098 4FEA8303 		lsl	r3, r3, #2
 2120 009c 1344     		add	r3, r3, r2
 2121 009e 03F10803 		add	r3, r3, #8
 2122 00a2 FA89     		ldrh	r2, [r7, #14]	@ movhi
 2123 00a4 9A80     		strh	r2, [r3, #4]	@ movhi
ARM GAS  C:\Users\Martin\AppData\Local\Temp\ccvCCZX2.s 			page 48


 549:.\ring_buffer.c ****         status = RBF_SUCCESS;
 2124              		.loc 1 549 0
 2125 00a6 4FF00003 		mov	r3, #0
 2126 00aa 7B73     		strb	r3, [r7, #13]
 2127              	.L108:
 550:.\ring_buffer.c ****     }
 551:.\ring_buffer.c ****     
 552:.\ring_buffer.c ****     return status;
 2128              		.loc 1 552 0
 2129 00ac 7B7B     		ldrb	r3, [r7, #13]	@ zero_extendqisi2
 553:.\ring_buffer.c **** } 
 2130              		.loc 1 553 0
 2131 00ae 1846     		mov	r0, r3
 2132 00b0 07F11407 		add	r7, r7, #20
 2133 00b4 BD46     		mov	sp, r7
 2134 00b6 80BC     		pop	{r7}
 2135 00b8 7047     		bx	lr
 2136              		.cfi_endproc
 2137              	.LFE43:
 2138              		.size	IncTail, .-IncTail
 2139 00ba 00BF     		.section	.text.RBF_ucTest,"ax",%progbits
 2140              		.align	2
 2141              		.global	RBF_ucTest
 2142              		.thumb
 2143              		.thumb_func
 2144              		.type	RBF_ucTest, %function
 2145              	RBF_ucTest:
 2146              	.LFB44:
 554:.\ring_buffer.c **** /*****************************************************************/
 555:.\ring_buffer.c **** /*
 556:.\ring_buffer.c **** static uint8_t DecTail(uint8_t ucIdx)
 557:.\ring_buffer.c **** {
 558:.\ring_buffer.c ****     uint8_t status = RBF_FAIL;
 559:.\ring_buffer.c ****     
 560:.\ring_buffer.c ****     if (RingBuffer[ucIdx].tail == 0)
 561:.\ring_buffer.c ****     {
 562:.\ring_buffer.c ****         RingBuffer[ucIdx].tail = RingBuffer[ucIdx].size - 1;
 563:.\ring_buffer.c ****     }
 564:.\ring_buffer.c ****     else
 565:.\ring_buffer.c ****     {
 566:.\ring_buffer.c ****         RingBuffer[ucIdx].tail--;
 567:.\ring_buffer.c ****     }
 568:.\ring_buffer.c ****     
 569:.\ring_buffer.c ****     status = RBF_SUCCESS;
 570:.\ring_buffer.c ****        
 571:.\ring_buffer.c ****     return status;
 572:.\ring_buffer.c **** }
 573:.\ring_buffer.c **** */
 574:.\ring_buffer.c **** /*****************************************************************/
 575:.\ring_buffer.c **** /*****************************************************************/
 576:.\ring_buffer.c **** #ifdef RBF_MODULE_TEST
 577:.\ring_buffer.c **** 
 578:.\ring_buffer.c **** uint8_t RBF_ucTest(void)
 579:.\ring_buffer.c **** {
 2147              		.loc 1 579 0
 2148              		.cfi_startproc
 2149              		@ args = 0, pretend = 0, frame = 8
ARM GAS  C:\Users\Martin\AppData\Local\Temp\ccvCCZX2.s 			page 49


 2150              		@ frame_needed = 1, uses_anonymous_args = 0
 2151 0000 80B5     		push	{r7, lr}
 2152              	.LCFI44:
 2153              		.cfi_def_cfa_offset 8
 2154 0002 82B0     		sub	sp, sp, #8
 2155              	.LCFI45:
 2156              		.cfi_def_cfa_offset 16
 2157 0004 00AF     		add	r7, sp, #0
 2158              		.cfi_offset 14, -4
 2159              		.cfi_offset 7, -8
 2160              	.LCFI46:
 2161              		.cfi_def_cfa_register 7
 580:.\ring_buffer.c ****     static uint8_t ucBuffer1[20];
 581:.\ring_buffer.c ****     static uint8_t ucBuffer2[10];
 582:.\ring_buffer.c ****     static uint8_t ucBuffer3[40];
 583:.\ring_buffer.c ****     static uint8_t ucBufferIndex1 = 0xFF;
 584:.\ring_buffer.c ****     static uint8_t ucBufferIndex2 = 0xFF;
 585:.\ring_buffer.c ****     static uint8_t ucBufferIndex3 = 0xFF;
 586:.\ring_buffer.c **** 	static uint8_t ucTemp;
 587:.\ring_buffer.c **** 	int i;
 588:.\ring_buffer.c **** 	static uint8_t Msg1[5] = {0x33, 0x44, 0x55, 0x66, 0x77};
 589:.\ring_buffer.c **** 	static uint8_t Msg2[10] = {0, 0, 0, 0, 0, 0, 0, 0, 0, 0};
 590:.\ring_buffer.c ****     static uint8_t Msg3[5] = {0x01, 0x02, 0x03, 0x04, 0x05};
 591:.\ring_buffer.c **** 	static uint8_t MsgSize;
 592:.\ring_buffer.c **** 	static uint8_t MsgCount;
 593:.\ring_buffer.c ****     static uint8_t ByteCount;
 594:.\ring_buffer.c **** 	
 595:.\ring_buffer.c ****     STATUS status = RBF_ucInit();
 2162              		.loc 1 595 0
 2163 0006 FFF7FEFF 		bl	RBF_ucInit
 2164 000a 0346     		mov	r3, r0
 2165 000c FB71     		strb	r3, [r7, #7]
 596:.\ring_buffer.c ****     
 597:.\ring_buffer.c ****     // TEST 1: Register Buffers -------------------------------------------------------------------
 598:.\ring_buffer.c ****     ucBufferIndex1 = RBF_ucRegisterBuffer(ucBuffer1, 20);
 2166              		.loc 1 598 0
 2167 000e 40F20000 		movw	r0, #:lower16:ucBuffer1.3933
 2168 0012 C0F20000 		movt	r0, #:upper16:ucBuffer1.3933
 2169 0016 4FF01401 		mov	r1, #20
 2170 001a FFF7FEFF 		bl	RBF_ucRegisterBuffer
 2171 001e 0346     		mov	r3, r0
 2172 0020 1A46     		mov	r2, r3
 2173 0022 40F20003 		movw	r3, #:lower16:ucBufferIndex1.3936
 2174 0026 C0F20003 		movt	r3, #:upper16:ucBufferIndex1.3936
 2175 002a 1A70     		strb	r2, [r3, #0]
 599:.\ring_buffer.c ****     ucBufferIndex2 = RBF_ucRegisterBuffer(ucBuffer2, 10);
 2176              		.loc 1 599 0
 2177 002c 40F20000 		movw	r0, #:lower16:ucBuffer2.3934
 2178 0030 C0F20000 		movt	r0, #:upper16:ucBuffer2.3934
 2179 0034 4FF00A01 		mov	r1, #10
 2180 0038 FFF7FEFF 		bl	RBF_ucRegisterBuffer
 2181 003c 0346     		mov	r3, r0
 2182 003e 1A46     		mov	r2, r3
 2183 0040 40F20003 		movw	r3, #:lower16:ucBufferIndex2.3937
 2184 0044 C0F20003 		movt	r3, #:upper16:ucBufferIndex2.3937
 2185 0048 1A70     		strb	r2, [r3, #0]
 600:.\ring_buffer.c ****     ucBufferIndex3 = RBF_ucRegisterBuffer(ucBuffer3, 40);
ARM GAS  C:\Users\Martin\AppData\Local\Temp\ccvCCZX2.s 			page 50


 2186              		.loc 1 600 0
 2187 004a 40F20000 		movw	r0, #:lower16:ucBuffer3.3935
 2188 004e C0F20000 		movt	r0, #:upper16:ucBuffer3.3935
 2189 0052 4FF02801 		mov	r1, #40
 2190 0056 FFF7FEFF 		bl	RBF_ucRegisterBuffer
 2191 005a 0346     		mov	r3, r0
 2192 005c 1A46     		mov	r2, r3
 2193 005e 40F20003 		movw	r3, #:lower16:ucBufferIndex3.3938
 2194 0062 C0F20003 		movt	r3, #:upper16:ucBufferIndex3.3938
 2195 0066 1A70     		strb	r2, [r3, #0]
 601:.\ring_buffer.c ****     
 602:.\ring_buffer.c ****     status = RBF_ucUnregisterBuffer(ucBufferIndex2);
 2196              		.loc 1 602 0
 2197 0068 40F20003 		movw	r3, #:lower16:ucBufferIndex2.3937
 2198 006c C0F20003 		movt	r3, #:upper16:ucBufferIndex2.3937
 2199 0070 1B78     		ldrb	r3, [r3, #0]	@ zero_extendqisi2
 2200 0072 1846     		mov	r0, r3
 2201 0074 FFF7FEFF 		bl	RBF_ucUnregisterBuffer
 2202 0078 0346     		mov	r3, r0
 2203 007a FB71     		strb	r3, [r7, #7]
 603:.\ring_buffer.c ****     
 604:.\ring_buffer.c ****     ucBufferIndex3 = RBF_ucRegisterBuffer(ucBuffer3, 40);
 2204              		.loc 1 604 0
 2205 007c 40F20000 		movw	r0, #:lower16:ucBuffer3.3935
 2206 0080 C0F20000 		movt	r0, #:upper16:ucBuffer3.3935
 2207 0084 4FF02801 		mov	r1, #40
 2208 0088 FFF7FEFF 		bl	RBF_ucRegisterBuffer
 2209 008c 0346     		mov	r3, r0
 2210 008e 1A46     		mov	r2, r3
 2211 0090 40F20003 		movw	r3, #:lower16:ucBufferIndex3.3938
 2212 0094 C0F20003 		movt	r3, #:upper16:ucBufferIndex3.3938
 2213 0098 1A70     		strb	r2, [r3, #0]
 605:.\ring_buffer.c ****     // END TEST 1
 606:.\ring_buffer.c ****     
 607:.\ring_buffer.c ****     // TEST 2: ByteIn, ByteOut -------------------------------------------------------------------
 608:.\ring_buffer.c ****     ByteCount = RBF_ucGetByteCount(ucBufferIndex1);
 2214              		.loc 1 608 0
 2215 009a 40F20003 		movw	r3, #:lower16:ucBufferIndex1.3936
 2216 009e C0F20003 		movt	r3, #:upper16:ucBufferIndex1.3936
 2217 00a2 1B78     		ldrb	r3, [r3, #0]	@ zero_extendqisi2
 2218 00a4 1846     		mov	r0, r3
 2219 00a6 FFF7FEFF 		bl	RBF_ucGetByteCount
 2220 00aa 0346     		mov	r3, r0
 2221 00ac 1A46     		mov	r2, r3
 2222 00ae 40F20003 		movw	r3, #:lower16:ByteCount.3946
 2223 00b2 C0F20003 		movt	r3, #:upper16:ByteCount.3946
 2224 00b6 1A70     		strb	r2, [r3, #0]
 609:.\ring_buffer.c **** 	status = RBF_ucByteIn(ucBufferIndex1, 0x55);	//Byte 1 of 20
 2225              		.loc 1 609 0
 2226 00b8 40F20003 		movw	r3, #:lower16:ucBufferIndex1.3936
 2227 00bc C0F20003 		movt	r3, #:upper16:ucBufferIndex1.3936
 2228 00c0 1B78     		ldrb	r3, [r3, #0]	@ zero_extendqisi2
 2229 00c2 1846     		mov	r0, r3
 2230 00c4 4FF05501 		mov	r1, #85
 2231 00c8 FFF7FEFF 		bl	RBF_ucByteIn
 2232 00cc 0346     		mov	r3, r0
 2233 00ce FB71     		strb	r3, [r7, #7]
ARM GAS  C:\Users\Martin\AppData\Local\Temp\ccvCCZX2.s 			page 51


 610:.\ring_buffer.c **** 	ByteCount = RBF_ucGetByteCount(ucBufferIndex1);
 2234              		.loc 1 610 0
 2235 00d0 40F20003 		movw	r3, #:lower16:ucBufferIndex1.3936
 2236 00d4 C0F20003 		movt	r3, #:upper16:ucBufferIndex1.3936
 2237 00d8 1B78     		ldrb	r3, [r3, #0]	@ zero_extendqisi2
 2238 00da 1846     		mov	r0, r3
 2239 00dc FFF7FEFF 		bl	RBF_ucGetByteCount
 2240 00e0 0346     		mov	r3, r0
 2241 00e2 1A46     		mov	r2, r3
 2242 00e4 40F20003 		movw	r3, #:lower16:ByteCount.3946
 2243 00e8 C0F20003 		movt	r3, #:upper16:ByteCount.3946
 2244 00ec 1A70     		strb	r2, [r3, #0]
 611:.\ring_buffer.c ****     
 612:.\ring_buffer.c **** 	for (i=0; i<18; i++)							//Byte 1..19 of 20
 2245              		.loc 1 612 0
 2246 00ee 4FF00003 		mov	r3, #0
 2247 00f2 3B60     		str	r3, [r7, #0]
 2248 00f4 14E0     		b	.L111
 2249              	.L114:
 613:.\ring_buffer.c **** 	{
 614:.\ring_buffer.c **** 		status = RBF_ucByteIn(ucBufferIndex1, i);
 2250              		.loc 1 614 0
 2251 00f6 40F20003 		movw	r3, #:lower16:ucBufferIndex1.3936
 2252 00fa C0F20003 		movt	r3, #:upper16:ucBufferIndex1.3936
 2253 00fe 1A78     		ldrb	r2, [r3, #0]	@ zero_extendqisi2
 2254 0100 3B68     		ldr	r3, [r7, #0]
 2255 0102 DBB2     		uxtb	r3, r3
 2256 0104 1046     		mov	r0, r2
 2257 0106 1946     		mov	r1, r3
 2258 0108 FFF7FEFF 		bl	RBF_ucByteIn
 2259 010c 0346     		mov	r3, r0
 2260 010e FB71     		strb	r3, [r7, #7]
 615:.\ring_buffer.c **** 		if (status != RBF_SUCCESS)
 2261              		.loc 1 615 0
 2262 0110 FB79     		ldrb	r3, [r7, #7]	@ zero_extendqisi2
 2263 0112 002B     		cmp	r3, #0
 2264 0114 00D0     		beq	.L112
 2265              	.L113:
 616:.\ring_buffer.c **** 		{
 617:.\ring_buffer.c **** 			while(1) {};
 2266              		.loc 1 617 0
 2267 0116 FEE7     		b	.L113
 2268              	.L112:
 2269              		.loc 1 612 0
 2270 0118 3B68     		ldr	r3, [r7, #0]
 2271 011a 03F10103 		add	r3, r3, #1
 2272 011e 3B60     		str	r3, [r7, #0]
 2273              	.L111:
 2274 0120 3B68     		ldr	r3, [r7, #0]
 2275 0122 112B     		cmp	r3, #17
 2276 0124 E7DD     		ble	.L114
 618:.\ring_buffer.c **** 		}
 619:.\ring_buffer.c **** 	}
 620:.\ring_buffer.c ****     
 621:.\ring_buffer.c ****     ByteCount = RBF_ucGetByteCount(ucBufferIndex1);
 2277              		.loc 1 621 0
 2278 0126 40F20003 		movw	r3, #:lower16:ucBufferIndex1.3936
ARM GAS  C:\Users\Martin\AppData\Local\Temp\ccvCCZX2.s 			page 52


 2279 012a C0F20003 		movt	r3, #:upper16:ucBufferIndex1.3936
 2280 012e 1B78     		ldrb	r3, [r3, #0]	@ zero_extendqisi2
 2281 0130 1846     		mov	r0, r3
 2282 0132 FFF7FEFF 		bl	RBF_ucGetByteCount
 2283 0136 0346     		mov	r3, r0
 2284 0138 1A46     		mov	r2, r3
 2285 013a 40F20003 		movw	r3, #:lower16:ByteCount.3946
 2286 013e C0F20003 		movt	r3, #:upper16:ByteCount.3946
 2287 0142 1A70     		strb	r2, [r3, #0]
 622:.\ring_buffer.c **** 	
 623:.\ring_buffer.c **** 	status = RBF_ucByteIn(ucBufferIndex1, 0xBB);	//Byte 20 of 20
 2288              		.loc 1 623 0
 2289 0144 40F20003 		movw	r3, #:lower16:ucBufferIndex1.3936
 2290 0148 C0F20003 		movt	r3, #:upper16:ucBufferIndex1.3936
 2291 014c 1B78     		ldrb	r3, [r3, #0]	@ zero_extendqisi2
 2292 014e 1846     		mov	r0, r3
 2293 0150 4FF0BB01 		mov	r1, #187
 2294 0154 FFF7FEFF 		bl	RBF_ucByteIn
 2295 0158 0346     		mov	r3, r0
 2296 015a FB71     		strb	r3, [r7, #7]
 624:.\ring_buffer.c **** 	status = RBF_ucByteIn(ucBufferIndex1, 0x22);	//Byte 21 of 20 -> error
 2297              		.loc 1 624 0
 2298 015c 40F20003 		movw	r3, #:lower16:ucBufferIndex1.3936
 2299 0160 C0F20003 		movt	r3, #:upper16:ucBufferIndex1.3936
 2300 0164 1B78     		ldrb	r3, [r3, #0]	@ zero_extendqisi2
 2301 0166 1846     		mov	r0, r3
 2302 0168 4FF02201 		mov	r1, #34
 2303 016c FFF7FEFF 		bl	RBF_ucByteIn
 2304 0170 0346     		mov	r3, r0
 2305 0172 FB71     		strb	r3, [r7, #7]
 625:.\ring_buffer.c **** 
 626:.\ring_buffer.c **** 	status = RBF_ucHeadByteOut(ucBufferIndex1, &ucTemp);		//Byte 20 of 20
 2306              		.loc 1 626 0
 2307 0174 40F20003 		movw	r3, #:lower16:ucBufferIndex1.3936
 2308 0178 C0F20003 		movt	r3, #:upper16:ucBufferIndex1.3936
 2309 017c 1B78     		ldrb	r3, [r3, #0]	@ zero_extendqisi2
 2310 017e 1846     		mov	r0, r3
 2311 0180 40F20001 		movw	r1, #:lower16:ucTemp.3939
 2312 0184 C0F20001 		movt	r1, #:upper16:ucTemp.3939
 2313 0188 FFF7FEFF 		bl	RBF_ucHeadByteOut
 2314 018c 0346     		mov	r3, r0
 2315 018e FB71     		strb	r3, [r7, #7]
 627:.\ring_buffer.c **** 	status = RBF_ucTailByteOut(ucBufferIndex1, &ucTemp);		//Byte 1 of 20
 2316              		.loc 1 627 0
 2317 0190 40F20003 		movw	r3, #:lower16:ucBufferIndex1.3936
 2318 0194 C0F20003 		movt	r3, #:upper16:ucBufferIndex1.3936
 2319 0198 1B78     		ldrb	r3, [r3, #0]	@ zero_extendqisi2
 2320 019a 1846     		mov	r0, r3
 2321 019c 40F20001 		movw	r1, #:lower16:ucTemp.3939
 2322 01a0 C0F20001 		movt	r1, #:upper16:ucTemp.3939
 2323 01a4 FFF7FEFF 		bl	RBF_ucTailByteOut
 2324 01a8 0346     		mov	r3, r0
 2325 01aa FB71     		strb	r3, [r7, #7]
 628:.\ring_buffer.c **** 	
 629:.\ring_buffer.c **** 	status = RBF_ucByteIn(ucBufferIndex1, 0xFF);
 2326              		.loc 1 629 0
 2327 01ac 40F20003 		movw	r3, #:lower16:ucBufferIndex1.3936
ARM GAS  C:\Users\Martin\AppData\Local\Temp\ccvCCZX2.s 			page 53


 2328 01b0 C0F20003 		movt	r3, #:upper16:ucBufferIndex1.3936
 2329 01b4 1B78     		ldrb	r3, [r3, #0]	@ zero_extendqisi2
 2330 01b6 1846     		mov	r0, r3
 2331 01b8 4FF0FF01 		mov	r1, #255
 2332 01bc FFF7FEFF 		bl	RBF_ucByteIn
 2333 01c0 0346     		mov	r3, r0
 2334 01c2 FB71     		strb	r3, [r7, #7]
 630:.\ring_buffer.c **** 	status = RBF_ucByteIn(ucBufferIndex1, 0xAA);   
 2335              		.loc 1 630 0
 2336 01c4 40F20003 		movw	r3, #:lower16:ucBufferIndex1.3936
 2337 01c8 C0F20003 		movt	r3, #:upper16:ucBufferIndex1.3936
 2338 01cc 1B78     		ldrb	r3, [r3, #0]	@ zero_extendqisi2
 2339 01ce 1846     		mov	r0, r3
 2340 01d0 4FF0AA01 		mov	r1, #170
 2341 01d4 FFF7FEFF 		bl	RBF_ucByteIn
 2342 01d8 0346     		mov	r3, r0
 2343 01da FB71     		strb	r3, [r7, #7]
 631:.\ring_buffer.c ****     
 632:.\ring_buffer.c **** 	status = RBF_ucClearBuffer(ucBufferIndex1);
 2344              		.loc 1 632 0
 2345 01dc 40F20003 		movw	r3, #:lower16:ucBufferIndex1.3936
 2346 01e0 C0F20003 		movt	r3, #:upper16:ucBufferIndex1.3936
 2347 01e4 1B78     		ldrb	r3, [r3, #0]	@ zero_extendqisi2
 2348 01e6 1846     		mov	r0, r3
 2349 01e8 FFF7FEFF 		bl	RBF_ucClearBuffer
 2350 01ec 0346     		mov	r3, r0
 2351 01ee FB71     		strb	r3, [r7, #7]
 633:.\ring_buffer.c **** 
 634:.\ring_buffer.c **** 	status = RBF_ucHeadByteOut(ucBufferIndex1, &ucTemp);		//Byte 1 of 20 -> error
 2352              		.loc 1 634 0
 2353 01f0 40F20003 		movw	r3, #:lower16:ucBufferIndex1.3936
 2354 01f4 C0F20003 		movt	r3, #:upper16:ucBufferIndex1.3936
 2355 01f8 1B78     		ldrb	r3, [r3, #0]	@ zero_extendqisi2
 2356 01fa 1846     		mov	r0, r3
 2357 01fc 40F20001 		movw	r1, #:lower16:ucTemp.3939
 2358 0200 C0F20001 		movt	r1, #:upper16:ucTemp.3939
 2359 0204 FFF7FEFF 		bl	RBF_ucHeadByteOut
 2360 0208 0346     		mov	r3, r0
 2361 020a FB71     		strb	r3, [r7, #7]
 635:.\ring_buffer.c **** 	status = RBF_ucHeadByteOut(ucBufferIndex1, &ucTemp);		//Byte 1 of 20 -> error
 2362              		.loc 1 635 0
 2363 020c 40F20003 		movw	r3, #:lower16:ucBufferIndex1.3936
 2364 0210 C0F20003 		movt	r3, #:upper16:ucBufferIndex1.3936
 2365 0214 1B78     		ldrb	r3, [r3, #0]	@ zero_extendqisi2
 2366 0216 1846     		mov	r0, r3
 2367 0218 40F20001 		movw	r1, #:lower16:ucTemp.3939
 2368 021c C0F20001 		movt	r1, #:upper16:ucTemp.3939
 2369 0220 FFF7FEFF 		bl	RBF_ucHeadByteOut
 2370 0224 0346     		mov	r3, r0
 2371 0226 FB71     		strb	r3, [r7, #7]
 636:.\ring_buffer.c ****     // END TEST 2
 637:.\ring_buffer.c ****     
 638:.\ring_buffer.c ****     // TEST 3: MsgIn, MsgOut  -------------------------------------------------------------------
 639:.\ring_buffer.c **** 	status = RBF_ucClearBuffer(ucBufferIndex1);
 2372              		.loc 1 639 0
 2373 0228 40F20003 		movw	r3, #:lower16:ucBufferIndex1.3936
 2374 022c C0F20003 		movt	r3, #:upper16:ucBufferIndex1.3936
ARM GAS  C:\Users\Martin\AppData\Local\Temp\ccvCCZX2.s 			page 54


 2375 0230 1B78     		ldrb	r3, [r3, #0]	@ zero_extendqisi2
 2376 0232 1846     		mov	r0, r3
 2377 0234 FFF7FEFF 		bl	RBF_ucClearBuffer
 2378 0238 0346     		mov	r3, r0
 2379 023a FB71     		strb	r3, [r7, #7]
 640:.\ring_buffer.c **** 	
 641:.\ring_buffer.c **** 	status = RBF_ucMsgIn(ucBufferIndex1, Msg1, 5);	//Byte 1..7 of 20
 2380              		.loc 1 641 0
 2381 023c 40F20003 		movw	r3, #:lower16:ucBufferIndex1.3936
 2382 0240 C0F20003 		movt	r3, #:upper16:ucBufferIndex1.3936
 2383 0244 1B78     		ldrb	r3, [r3, #0]	@ zero_extendqisi2
 2384 0246 1846     		mov	r0, r3
 2385 0248 40F20001 		movw	r1, #:lower16:Msg1.3941
 2386 024c C0F20001 		movt	r1, #:upper16:Msg1.3941
 2387 0250 4FF00502 		mov	r2, #5
 2388 0254 FFF7FEFF 		bl	RBF_ucMsgIn
 2389 0258 0346     		mov	r3, r0
 2390 025a FB71     		strb	r3, [r7, #7]
 642:.\ring_buffer.c **** 	status = RBF_ucMsgIn(ucBufferIndex1, Msg1, 5);	//Byte 8..15 of 20
 2391              		.loc 1 642 0
 2392 025c 40F20003 		movw	r3, #:lower16:ucBufferIndex1.3936
 2393 0260 C0F20003 		movt	r3, #:upper16:ucBufferIndex1.3936
 2394 0264 1B78     		ldrb	r3, [r3, #0]	@ zero_extendqisi2
 2395 0266 1846     		mov	r0, r3
 2396 0268 40F20001 		movw	r1, #:lower16:Msg1.3941
 2397 026c C0F20001 		movt	r1, #:upper16:Msg1.3941
 2398 0270 4FF00502 		mov	r2, #5
 2399 0274 FFF7FEFF 		bl	RBF_ucMsgIn
 2400 0278 0346     		mov	r3, r0
 2401 027a FB71     		strb	r3, [r7, #7]
 643:.\ring_buffer.c **** 	status = RBF_ucMsgIn(ucBufferIndex1, Msg1, 5);	//Byte 16..21 of 20 -> error
 2402              		.loc 1 643 0
 2403 027c 40F20003 		movw	r3, #:lower16:ucBufferIndex1.3936
 2404 0280 C0F20003 		movt	r3, #:upper16:ucBufferIndex1.3936
 2405 0284 1B78     		ldrb	r3, [r3, #0]	@ zero_extendqisi2
 2406 0286 1846     		mov	r0, r3
 2407 0288 40F20001 		movw	r1, #:lower16:Msg1.3941
 2408 028c C0F20001 		movt	r1, #:upper16:Msg1.3941
 2409 0290 4FF00502 		mov	r2, #5
 2410 0294 FFF7FEFF 		bl	RBF_ucMsgIn
 2411 0298 0346     		mov	r3, r0
 2412 029a FB71     		strb	r3, [r7, #7]
 644:.\ring_buffer.c **** 	
 645:.\ring_buffer.c **** 	MsgCount = RBF_ucGetMsgCount(ucBufferIndex1);	//2
 2413              		.loc 1 645 0
 2414 029c 40F20003 		movw	r3, #:lower16:ucBufferIndex1.3936
 2415 02a0 C0F20003 		movt	r3, #:upper16:ucBufferIndex1.3936
 2416 02a4 1B78     		ldrb	r3, [r3, #0]	@ zero_extendqisi2
 2417 02a6 1846     		mov	r0, r3
 2418 02a8 FFF7FEFF 		bl	RBF_ucGetMsgCount
 2419 02ac 0346     		mov	r3, r0
 2420 02ae 1A46     		mov	r2, r3
 2421 02b0 40F20003 		movw	r3, #:lower16:MsgCount.3945
 2422 02b4 C0F20003 		movt	r3, #:upper16:MsgCount.3945
 2423 02b8 1A70     		strb	r2, [r3, #0]
 646:.\ring_buffer.c ****     ByteCount = RBF_ucGetByteCount(ucBufferIndex1);
 2424              		.loc 1 646 0
ARM GAS  C:\Users\Martin\AppData\Local\Temp\ccvCCZX2.s 			page 55


 2425 02ba 40F20003 		movw	r3, #:lower16:ucBufferIndex1.3936
 2426 02be C0F20003 		movt	r3, #:upper16:ucBufferIndex1.3936
 2427 02c2 1B78     		ldrb	r3, [r3, #0]	@ zero_extendqisi2
 2428 02c4 1846     		mov	r0, r3
 2429 02c6 FFF7FEFF 		bl	RBF_ucGetByteCount
 2430 02ca 0346     		mov	r3, r0
 2431 02cc 1A46     		mov	r2, r3
 2432 02ce 40F20003 		movw	r3, #:lower16:ByteCount.3946
 2433 02d2 C0F20003 		movt	r3, #:upper16:ByteCount.3946
 2434 02d6 1A70     		strb	r2, [r3, #0]
 647:.\ring_buffer.c **** 		
 648:.\ring_buffer.c ****     //TODO: find error    
 649:.\ring_buffer.c **** 	status = RBF_ucHeadMsgOut(ucBufferIndex1, Msg2, &MsgSize);	//Byte 8..15 of 20
 2435              		.loc 1 649 0
 2436 02d8 40F20003 		movw	r3, #:lower16:ucBufferIndex1.3936
 2437 02dc C0F20003 		movt	r3, #:upper16:ucBufferIndex1.3936
 2438 02e0 1B78     		ldrb	r3, [r3, #0]	@ zero_extendqisi2
 2439 02e2 1846     		mov	r0, r3
 2440 02e4 40F20001 		movw	r1, #:lower16:Msg2.3942
 2441 02e8 C0F20001 		movt	r1, #:upper16:Msg2.3942
 2442 02ec 40F20002 		movw	r2, #:lower16:MsgSize.3944
 2443 02f0 C0F20002 		movt	r2, #:upper16:MsgSize.3944
 2444 02f4 FFF7FEFF 		bl	RBF_ucHeadMsgOut
 2445 02f8 0346     		mov	r3, r0
 2446 02fa FB71     		strb	r3, [r7, #7]
 650:.\ring_buffer.c **** 	status = RBF_ucMsgIn(ucBufferIndex1, Msg3, 5);			//Byte 8..15 of 20
 2447              		.loc 1 650 0
 2448 02fc 40F20003 		movw	r3, #:lower16:ucBufferIndex1.3936
 2449 0300 C0F20003 		movt	r3, #:upper16:ucBufferIndex1.3936
 2450 0304 1B78     		ldrb	r3, [r3, #0]	@ zero_extendqisi2
 2451 0306 1846     		mov	r0, r3
 2452 0308 40F20001 		movw	r1, #:lower16:Msg3.3943
 2453 030c C0F20001 		movt	r1, #:upper16:Msg3.3943
 2454 0310 4FF00502 		mov	r2, #5
 2455 0314 FFF7FEFF 		bl	RBF_ucMsgIn
 2456 0318 0346     		mov	r3, r0
 2457 031a FB71     		strb	r3, [r7, #7]
 651:.\ring_buffer.c **** 	
 652:.\ring_buffer.c **** 	status =  RBF_ucTailMsgOut(ucBufferIndex1, Msg2, &MsgSize);	//Byte 8..15 of 20
 2458              		.loc 1 652 0
 2459 031c 40F20003 		movw	r3, #:lower16:ucBufferIndex1.3936
 2460 0320 C0F20003 		movt	r3, #:upper16:ucBufferIndex1.3936
 2461 0324 1B78     		ldrb	r3, [r3, #0]	@ zero_extendqisi2
 2462 0326 1846     		mov	r0, r3
 2463 0328 40F20001 		movw	r1, #:lower16:Msg2.3942
 2464 032c C0F20001 		movt	r1, #:upper16:Msg2.3942
 2465 0330 40F20002 		movw	r2, #:lower16:MsgSize.3944
 2466 0334 C0F20002 		movt	r2, #:upper16:MsgSize.3944
 2467 0338 FFF7FEFF 		bl	RBF_ucTailMsgOut
 2468 033c 0346     		mov	r3, r0
 2469 033e FB71     		strb	r3, [r7, #7]
 653:.\ring_buffer.c **** 	status =  RBF_ucTailMsgOut(ucBufferIndex1, Msg2, &MsgSize);	//Byte 1..7 of 20 (buffer empty)	
 2470              		.loc 1 653 0
 2471 0340 40F20003 		movw	r3, #:lower16:ucBufferIndex1.3936
 2472 0344 C0F20003 		movt	r3, #:upper16:ucBufferIndex1.3936
 2473 0348 1B78     		ldrb	r3, [r3, #0]	@ zero_extendqisi2
 2474 034a 1846     		mov	r0, r3
ARM GAS  C:\Users\Martin\AppData\Local\Temp\ccvCCZX2.s 			page 56


 2475 034c 40F20001 		movw	r1, #:lower16:Msg2.3942
 2476 0350 C0F20001 		movt	r1, #:upper16:Msg2.3942
 2477 0354 40F20002 		movw	r2, #:lower16:MsgSize.3944
 2478 0358 C0F20002 		movt	r2, #:upper16:MsgSize.3944
 2479 035c FFF7FEFF 		bl	RBF_ucTailMsgOut
 2480 0360 0346     		mov	r3, r0
 2481 0362 FB71     		strb	r3, [r7, #7]
 654:.\ring_buffer.c **** 	
 655:.\ring_buffer.c **** 	MsgCount = RBF_ucGetMsgCount(ucBufferIndex1); // 0
 2482              		.loc 1 655 0
 2483 0364 40F20003 		movw	r3, #:lower16:ucBufferIndex1.3936
 2484 0368 C0F20003 		movt	r3, #:upper16:ucBufferIndex1.3936
 2485 036c 1B78     		ldrb	r3, [r3, #0]	@ zero_extendqisi2
 2486 036e 1846     		mov	r0, r3
 2487 0370 FFF7FEFF 		bl	RBF_ucGetMsgCount
 2488 0374 0346     		mov	r3, r0
 2489 0376 1A46     		mov	r2, r3
 2490 0378 40F20003 		movw	r3, #:lower16:MsgCount.3945
 2491 037c C0F20003 		movt	r3, #:upper16:MsgCount.3945
 2492 0380 1A70     		strb	r2, [r3, #0]
 656:.\ring_buffer.c ****     ByteCount = RBF_ucGetByteCount(ucBufferIndex1); // 0
 2493              		.loc 1 656 0
 2494 0382 40F20003 		movw	r3, #:lower16:ucBufferIndex1.3936
 2495 0386 C0F20003 		movt	r3, #:upper16:ucBufferIndex1.3936
 2496 038a 1B78     		ldrb	r3, [r3, #0]	@ zero_extendqisi2
 2497 038c 1846     		mov	r0, r3
 2498 038e FFF7FEFF 		bl	RBF_ucGetByteCount
 2499 0392 0346     		mov	r3, r0
 2500 0394 1A46     		mov	r2, r3
 2501 0396 40F20003 		movw	r3, #:lower16:ByteCount.3946
 2502 039a C0F20003 		movt	r3, #:upper16:ByteCount.3946
 2503 039e 1A70     		strb	r2, [r3, #0]
 657:.\ring_buffer.c ****     // END TEST 3
 658:.\ring_buffer.c **** 
 659:.\ring_buffer.c ****     return status;
 2504              		.loc 1 659 0
 2505 03a0 FB79     		ldrb	r3, [r7, #7]	@ zero_extendqisi2
 660:.\ring_buffer.c **** }    
 2506              		.loc 1 660 0
 2507 03a2 1846     		mov	r0, r3
 2508 03a4 07F10807 		add	r7, r7, #8
 2509 03a8 BD46     		mov	sp, r7
 2510 03aa 80BD     		pop	{r7, pc}
 2511              		.cfi_endproc
 2512              	.LFE44:
 2513              		.size	RBF_ucTest, .-RBF_ucTest
 2514              		.bss
 2515              		.align	2
 2516              	ucBuffer1.3933:
 2517 0028 00000000 		.space	20
 2517      00000000 
 2517      00000000 
 2517      00000000 
 2517      00000000 
 2518              		.data
 2519              		.type	ucBufferIndex1.3936, %object
 2520              		.size	ucBufferIndex1.3936, 1
ARM GAS  C:\Users\Martin\AppData\Local\Temp\ccvCCZX2.s 			page 57


 2521              	ucBufferIndex1.3936:
 2522 0000 FF       		.byte	-1
 2523              		.bss
 2524              		.align	2
 2525              	ucBuffer2.3934:
 2526 003c 00000000 		.space	10
 2526      00000000 
 2526      0000
 2527              		.data
 2528              		.type	ucBufferIndex2.3937, %object
 2529              		.size	ucBufferIndex2.3937, 1
 2530              	ucBufferIndex2.3937:
 2531 0001 FF       		.byte	-1
 2532              		.bss
 2533 0046 0000     		.align	2
 2534              	ucBuffer3.3935:
 2535 0048 00000000 		.space	40
 2535      00000000 
 2535      00000000 
 2535      00000000 
 2535      00000000 
 2536              		.data
 2537              		.type	ucBufferIndex3.3938, %object
 2538              		.size	ucBufferIndex3.3938, 1
 2539              	ucBufferIndex3.3938:
 2540 0002 FF       		.byte	-1
 2541              		.bss
 2542              	ByteCount.3946:
 2543 0070 00       		.space	1
 2544              	ucTemp.3939:
 2545 0071 00       		.space	1
 2546              		.data
 2547 0003 00       		.align	2
 2548              		.type	Msg1.3941, %object
 2549              		.size	Msg1.3941, 5
 2550              	Msg1.3941:
 2551 0004 33       		.byte	51
 2552 0005 44       		.byte	68
 2553 0006 55       		.byte	85
 2554 0007 66       		.byte	102
 2555 0008 77       		.byte	119
 2556              		.bss
 2557              	MsgCount.3945:
 2558 0072 00       		.space	1
 2559 0073 00       		.align	2
 2560              	Msg2.3942:
 2561 0074 00000000 		.space	10
 2561      00000000 
 2561      0000
 2562              	MsgSize.3944:
 2563 007e 00       		.space	1
 2564 007f 00       		.data
 2565 0009 000000   		.align	2
 2566              		.type	Msg3.3943, %object
 2567              		.size	Msg3.3943, 5
 2568              	Msg3.3943:
 2569 000c 01       		.byte	1
ARM GAS  C:\Users\Martin\AppData\Local\Temp\ccvCCZX2.s 			page 58


 2570 000d 02       		.byte	2
 2571 000e 03       		.byte	3
 2572 000f 04       		.byte	4
 2573 0010 05       		.byte	5
 2574 0011 000000   		.align	2
 2575              		.type	stest.3493, %object
 2576              		.size	stest.3493, 4
 2577              	stest.3493:
 2578 0014 28000000 		.word	40
 2579              		.text
 2580              	.Letext0: