ARM GAS  C:\Users\Martin\AppData\Local\Temp\cc5MMMyG.s 			page 1


   1              		.syntax unified
   2              		.cpu cortex-m3
   3              		.fpu softvfp
   4              		.eabi_attribute 20, 1
   5              		.eabi_attribute 21, 1
   6              		.eabi_attribute 23, 3
   7              		.eabi_attribute 24, 1
   8              		.eabi_attribute 25, 1
   9              		.eabi_attribute 26, 1
  10              		.eabi_attribute 30, 6
  11              		.eabi_attribute 18, 4
  12              		.thumb
  13              		.file	"scheduler.c"
  20 0000 04020000 		.text
  20      02006F01 
  20      00000201 
  20      FB0E0D00 
  20      01010101 
  21              	.Ltext0:
  22              		.cfi_sections	.debug_frame
  23              		.bss
  24              		.align	2
  25              	SCH_TaskIndex:
  26 0000 00000000 		.space	4
  27              		.data
  28              		.align	2
  29              		.type	SCH_Task, %object
  30              		.size	SCH_Task, 196
  31              	SCH_Task:
  32 0000 45525200 		.ascii	"ERR\000"
  33 0004 00000000 		.space	4
  34 0008 02       		.byte	2
  35 0009 00       		.byte	0
  36 000a 0000     		.space	2
  37 000c 00000000 		.word	ERR_Init
  38 0010 00000000 		.word	ERR_HandleTask
  39 0014 00       		.byte	0
  40 0015 00000000 		.space	7
  40      000000
  41 001c 52424600 		.ascii	"RBF\000"
  42 0020 00000000 		.space	4
  43 0024 02       		.byte	2
  44 0025 01       		.byte	1
  45 0026 0000     		.space	2
  46 0028 00000000 		.word	RBF_ucInit
  47 002c 00000000 		.word	0
  48 0030 00       		.byte	0
  49 0031 00000000 		.space	7
  49      000000
  50 0038 48414C00 		.ascii	"HAL\000"
  51 003c 00000000 		.space	4
ARM GAS  C:\Users\Martin\AppData\Local\Temp\cc5MMMyG.s 			page 2


  52 0040 02       		.byte	2
  53 0041 01       		.byte	1
  54 0042 0000     		.space	2
  55 0044 00000000 		.word	HAL_Init
  56 0048 00000000 		.word	0
  57 004c 00       		.byte	0
  58 004d 00000000 		.space	7
  58      000000
  59 0054 544D5200 		.ascii	"TMR\000"
  60 0058 00000000 		.space	4
  61 005c 02       		.byte	2
  62 005d 01       		.byte	1
  63 005e 0000     		.space	2
  64 0060 00000000 		.word	TMR_Init
  65 0064 00000000 		.word	TMR_HandleTask
  66 0068 00       		.byte	0
  67 0069 00000000 		.space	7
  67      000000
  68 0070 42504C00 		.ascii	"BPL\000"
  69 0074 00000000 		.space	4
  70 0078 02       		.byte	2
  71 0079 02       		.byte	2
  72 007a 0000     		.space	2
  73 007c 00000000 		.word	BPL_Init
  74 0080 00000000 		.word	BPL_HandleTask
  75 0084 48414C00 		.ascii	"HAL\000"
  76 0088 00000000 		.space	4
  77 008c 42414C00 		.ascii	"BAL\000"
  78 0090 00000000 		.space	4
  79 0094 02       		.byte	2
  80 0095 02       		.byte	2
  81 0096 0000     		.space	2
  82 0098 00000000 		.word	BAL_Init
  83 009c 00000000 		.word	BAL_HandleTask
  84 00a0 42504C00 		.ascii	"BPL\000"
  85 00a4 00000000 		.space	4
  86 00a8 54535400 		.ascii	"TST\000"
  87 00ac 00000000 		.space	4
  88 00b0 02       		.byte	2
  89 00b1 02       		.byte	2
  90 00b2 0000     		.space	2
  91 00b4 00000000 		.word	TST_Init
  92 00b8 00000000 		.word	TST_HandleTask
  93 00bc 544D5200 		.ascii	"TMR\000"
  94 00c0 00000000 		.space	4
  95              		.section	.text.SCH_GetTaskIndex,"ax",%progbits
  96              		.align	2
  97              		.thumb
  98              		.thumb_func
  99              		.type	SCH_GetTaskIndex, %function
 100              	SCH_GetTaskIndex:
 101              	.LFB29:
 102              		.file 1 "..\\..\\..\\Drive_Platform\\DrivePlatform.cydsn\\scheduler.c"
   1:..\..\..\Drive_Platform\DrivePlatform.cydsn/scheduler.c **** /* Copyright (C) <2014> <Martin Schalk>
   2:..\..\..\Drive_Platform\DrivePlatform.cydsn/scheduler.c ****  * All rights reserved.
   3:..\..\..\Drive_Platform\DrivePlatform.cydsn/scheduler.c ****  *
   4:..\..\..\Drive_Platform\DrivePlatform.cydsn/scheduler.c ****  * This software may be modified and distributed under the terms
ARM GAS  C:\Users\Martin\AppData\Local\Temp\cc5MMMyG.s 			page 3


   5:..\..\..\Drive_Platform\DrivePlatform.cydsn/scheduler.c ****  * of the BSD license.  See the LICENSE file for details.
   6:..\..\..\Drive_Platform\DrivePlatform.cydsn/scheduler.c ****  */
   7:..\..\..\Drive_Platform\DrivePlatform.cydsn/scheduler.c **** 
   8:..\..\..\Drive_Platform\DrivePlatform.cydsn/scheduler.c **** #include <project.h>
   9:..\..\..\Drive_Platform\DrivePlatform.cydsn/scheduler.c **** #include "scheduler.h"
  10:..\..\..\Drive_Platform\DrivePlatform.cydsn/scheduler.c **** 
  11:..\..\..\Drive_Platform\DrivePlatform.cydsn/scheduler.c **** #include "hal.h"
  12:..\..\..\Drive_Platform\DrivePlatform.cydsn/scheduler.c **** #include "tmr.h"
  13:..\..\..\Drive_Platform\DrivePlatform.cydsn/scheduler.c **** #include "bpl.h"
  14:..\..\..\Drive_Platform\DrivePlatform.cydsn/scheduler.c **** #include "bal.h"
  15:..\..\..\Drive_Platform\DrivePlatform.cydsn/scheduler.c **** #include "error.h"
  16:..\..\..\Drive_Platform\DrivePlatform.cydsn/scheduler.c **** #include "ring_buffer.h"
  17:..\..\..\Drive_Platform\DrivePlatform.cydsn/scheduler.c **** #include "test.h"
  18:..\..\..\Drive_Platform\DrivePlatform.cydsn/scheduler.c **** 
  19:..\..\..\Drive_Platform\DrivePlatform.cydsn/scheduler.c **** static int          SCH_TaskIndex = 0;
  20:..\..\..\Drive_Platform\DrivePlatform.cydsn/scheduler.c **** static SCH_TASK 	SCH_Task[] =
  21:..\..\..\Drive_Platform\DrivePlatform.cydsn/scheduler.c **** {
  22:..\..\..\Drive_Platform\DrivePlatform.cydsn/scheduler.c **** /*   NAME   STATUS          PRIO    INIT        HANDLER             DEPENDENCY */
  23:..\..\..\Drive_Platform\DrivePlatform.cydsn/scheduler.c **** /*   ------------------------------------------------------------------------- */
  24:..\..\..\Drive_Platform\DrivePlatform.cydsn/scheduler.c **** #ifdef ERROR_MODULE_ENABLE
  25:..\..\..\Drive_Platform\DrivePlatform.cydsn/scheduler.c ****     {"ERR", SCH_TASK_NEW,   0,      ERR_Init,   ERR_HandleTask,     {DEP_NONE}},
  26:..\..\..\Drive_Platform\DrivePlatform.cydsn/scheduler.c **** #endif
  27:..\..\..\Drive_Platform\DrivePlatform.cydsn/scheduler.c ****     {"RBF", SCH_TASK_NEW,   1,      RBF_ucInit, NULL,               {DEP_NONE}},
  28:..\..\..\Drive_Platform\DrivePlatform.cydsn/scheduler.c ****     {"HAL", SCH_TASK_NEW,   1,      HAL_Init,   NULL,               {DEP_NONE}},
  29:..\..\..\Drive_Platform\DrivePlatform.cydsn/scheduler.c ****     {"TMR", SCH_TASK_NEW,   1,      TMR_Init,   TMR_HandleTask,     {DEP_NONE}},
  30:..\..\..\Drive_Platform\DrivePlatform.cydsn/scheduler.c ****     {"BPL", SCH_TASK_NEW,   2,      BPL_Init,   BPL_HandleTask,     "HAL"},
  31:..\..\..\Drive_Platform\DrivePlatform.cydsn/scheduler.c ****     {"BAL", SCH_TASK_NEW,   2,      BAL_Init,   BAL_HandleTask,     "BPL"},
  32:..\..\..\Drive_Platform\DrivePlatform.cydsn/scheduler.c ****     {"TST", SCH_TASK_NEW,   2,      TST_Init,   TST_HandleTask,     "TMR"},
  33:..\..\..\Drive_Platform\DrivePlatform.cydsn/scheduler.c **** };
  34:..\..\..\Drive_Platform\DrivePlatform.cydsn/scheduler.c **** /* currently only one dependency possible */
  35:..\..\..\Drive_Platform\DrivePlatform.cydsn/scheduler.c **** 
  36:..\..\..\Drive_Platform\DrivePlatform.cydsn/scheduler.c **** 
  37:..\..\..\Drive_Platform\DrivePlatform.cydsn/scheduler.c **** /*****************************************************************/
  38:..\..\..\Drive_Platform\DrivePlatform.cydsn/scheduler.c **** static uchar SCH_GetTaskIndex(uchar* taskName)
  39:..\..\..\Drive_Platform\DrivePlatform.cydsn/scheduler.c **** {
 103              		.loc 1 39 0
 104              		.cfi_startproc
 105              		@ args = 0, pretend = 0, frame = 16
 106              		@ frame_needed = 1, uses_anonymous_args = 0
 107 0000 80B5     		push	{r7, lr}
 108              	.LCFI0:
 109              		.cfi_def_cfa_offset 8
 110 0002 84B0     		sub	sp, sp, #16
 111              	.LCFI1:
 112              		.cfi_def_cfa_offset 24
 113 0004 00AF     		add	r7, sp, #0
 114              		.cfi_offset 14, -4
 115              		.cfi_offset 7, -8
 116              	.LCFI2:
 117              		.cfi_def_cfa_register 7
 118 0006 7860     		str	r0, [r7, #4]
  40:..\..\..\Drive_Platform\DrivePlatform.cydsn/scheduler.c ****     int i;
  41:..\..\..\Drive_Platform\DrivePlatform.cydsn/scheduler.c ****     uchar idx = (uchar)(-1);
 119              		.loc 1 41 0
 120 0008 4FF0FF33 		mov	r3, #-1
 121 000c FB73     		strb	r3, [r7, #15]
  42:..\..\..\Drive_Platform\DrivePlatform.cydsn/scheduler.c ****     
ARM GAS  C:\Users\Martin\AppData\Local\Temp\cc5MMMyG.s 			page 4


  43:..\..\..\Drive_Platform\DrivePlatform.cydsn/scheduler.c ****     for (i=0; i<SIZE_OF_ARRAY(SCH_Task); i++)
 122              		.loc 1 43 0
 123 000e 4FF00003 		mov	r3, #0
 124 0012 BB60     		str	r3, [r7, #8]
 125 0014 1DE0     		b	.L2
 126              	.L4:
  44:..\..\..\Drive_Platform\DrivePlatform.cydsn/scheduler.c ****     {
  45:..\..\..\Drive_Platform\DrivePlatform.cydsn/scheduler.c ****         if (0 == strcmp((char*)SCH_Task[SCH_TaskIndex].name, (char*)taskName))
 127              		.loc 1 45 0
 128 0016 40F20003 		movw	r3, #:lower16:SCH_TaskIndex
 129 001a C0F20003 		movt	r3, #:upper16:SCH_TaskIndex
 130 001e 1A68     		ldr	r2, [r3, #0]
 131 0020 1346     		mov	r3, r2
 132 0022 4FEAC303 		lsl	r3, r3, #3
 133 0026 C2EB0303 		rsb	r3, r2, r3
 134 002a 4FEA8302 		lsl	r2, r3, #2
 135 002e 40F20003 		movw	r3, #:lower16:SCH_Task
 136 0032 C0F20003 		movt	r3, #:upper16:SCH_Task
 137 0036 1344     		add	r3, r2, r3
 138 0038 1846     		mov	r0, r3
 139 003a 7968     		ldr	r1, [r7, #4]
 140 003c FFF7FEFF 		bl	strcmp
 141 0040 0346     		mov	r3, r0
 142 0042 002B     		cmp	r3, #0
 143 0044 01D1     		bne	.L3
  46:..\..\..\Drive_Platform\DrivePlatform.cydsn/scheduler.c ****             idx = i;
 144              		.loc 1 46 0
 145 0046 BB68     		ldr	r3, [r7, #8]
 146 0048 FB73     		strb	r3, [r7, #15]
 147              	.L3:
 148              		.loc 1 43 0
 149 004a BB68     		ldr	r3, [r7, #8]
 150 004c 03F10103 		add	r3, r3, #1
 151 0050 BB60     		str	r3, [r7, #8]
 152              	.L2:
 153 0052 BB68     		ldr	r3, [r7, #8]
 154 0054 062B     		cmp	r3, #6
 155 0056 DED9     		bls	.L4
  47:..\..\..\Drive_Platform\DrivePlatform.cydsn/scheduler.c ****     }
  48:..\..\..\Drive_Platform\DrivePlatform.cydsn/scheduler.c ****     
  49:..\..\..\Drive_Platform\DrivePlatform.cydsn/scheduler.c ****     return idx;
 156              		.loc 1 49 0
 157 0058 FB7B     		ldrb	r3, [r7, #15]	@ zero_extendqisi2
  50:..\..\..\Drive_Platform\DrivePlatform.cydsn/scheduler.c **** }
 158              		.loc 1 50 0
 159 005a 1846     		mov	r0, r3
 160 005c 07F11007 		add	r7, r7, #16
 161 0060 BD46     		mov	sp, r7
 162 0062 80BD     		pop	{r7, pc}
 163              		.cfi_endproc
 164              	.LFE29:
 165              		.size	SCH_GetTaskIndex, .-SCH_GetTaskIndex
 166              		.section	.text.SCH_TaskHandler,"ax",%progbits
 167              		.align	2
 168              		.global	SCH_TaskHandler
 169              		.thumb
 170              		.thumb_func
ARM GAS  C:\Users\Martin\AppData\Local\Temp\cc5MMMyG.s 			page 5


 171              		.type	SCH_TaskHandler, %function
 172              	SCH_TaskHandler:
 173              	.LFB30:
  51:..\..\..\Drive_Platform\DrivePlatform.cydsn/scheduler.c **** 
  52:..\..\..\Drive_Platform\DrivePlatform.cydsn/scheduler.c **** 
  53:..\..\..\Drive_Platform\DrivePlatform.cydsn/scheduler.c **** /*****************************************************************/
  54:..\..\..\Drive_Platform\DrivePlatform.cydsn/scheduler.c **** void SCH_TaskHandler(void)
  55:..\..\..\Drive_Platform\DrivePlatform.cydsn/scheduler.c **** {
 174              		.loc 1 55 0
 175              		.cfi_startproc
 176              		@ args = 0, pretend = 0, frame = 8
 177              		@ frame_needed = 1, uses_anonymous_args = 0
 178 0000 80B5     		push	{r7, lr}
 179              	.LCFI3:
 180              		.cfi_def_cfa_offset 8
 181 0002 82B0     		sub	sp, sp, #8
 182              	.LCFI4:
 183              		.cfi_def_cfa_offset 16
 184 0004 00AF     		add	r7, sp, #0
 185              		.cfi_offset 14, -4
 186              		.cfi_offset 7, -8
 187              	.LCFI5:
 188              		.cfi_def_cfa_register 7
  56:..\..\..\Drive_Platform\DrivePlatform.cydsn/scheduler.c ****     STATUS status;
  57:..\..\..\Drive_Platform\DrivePlatform.cydsn/scheduler.c ****     uchar depTaskIndex;
  58:..\..\..\Drive_Platform\DrivePlatform.cydsn/scheduler.c ****     BOOL taskInitFlag = FALSE;
 189              		.loc 1 58 0
 190 0006 4FF00003 		mov	r3, #0
 191 000a FB71     		strb	r3, [r7, #7]
  59:..\..\..\Drive_Platform\DrivePlatform.cydsn/scheduler.c **** 
  60:..\..\..\Drive_Platform\DrivePlatform.cydsn/scheduler.c ****     //priority not handled yet
  61:..\..\..\Drive_Platform\DrivePlatform.cydsn/scheduler.c **** 
  62:..\..\..\Drive_Platform\DrivePlatform.cydsn/scheduler.c ****     switch(SCH_Task[SCH_TaskIndex].status)
 192              		.loc 1 62 0
 193 000c 40F20003 		movw	r3, #:lower16:SCH_TaskIndex
 194 0010 C0F20003 		movt	r3, #:upper16:SCH_TaskIndex
 195 0014 1968     		ldr	r1, [r3, #0]
 196 0016 40F20002 		movw	r2, #:lower16:SCH_Task
 197 001a C0F20002 		movt	r2, #:upper16:SCH_Task
 198 001e 0B46     		mov	r3, r1
 199 0020 4FEAC303 		lsl	r3, r3, #3
 200 0024 C1EB0303 		rsb	r3, r1, r3
 201 0028 4FEA8303 		lsl	r3, r3, #2
 202 002c 1344     		add	r3, r3, r2
 203 002e 03F10803 		add	r3, r3, #8
 204 0032 1B78     		ldrb	r3, [r3, #0]	@ zero_extendqisi2
 205 0034 A3F10203 		sub	r3, r3, #2
 206 0038 0E2B     		cmp	r3, #14
 207 003a 00F24581 		bhi	.L7
 208 003e 01A2     		adr	r2, .L12
 209 0040 52F823F0 		ldr	pc, [r2, r3, lsl #2]
 210              		.align	2
 211              	.L12:
 212 0044 81000000 		.word	.L8+1
 213 0048 C9020000 		.word	.L7+1
 214 004c DD010000 		.word	.L9+1
 215 0050 C9020000 		.word	.L7+1
ARM GAS  C:\Users\Martin\AppData\Local\Temp\cc5MMMyG.s 			page 6


 216 0054 C9020000 		.word	.L7+1
 217 0058 C9020000 		.word	.L7+1
 218 005c 0B020000 		.word	.L10+1
 219 0060 C9020000 		.word	.L7+1
 220 0064 C9020000 		.word	.L7+1
 221 0068 C9020000 		.word	.L7+1
 222 006c C9020000 		.word	.L7+1
 223 0070 C9020000 		.word	.L7+1
 224 0074 C9020000 		.word	.L7+1
 225 0078 C9020000 		.word	.L7+1
 226 007c 95020000 		.word	.L11+1
 227              	.L8:
  63:..\..\..\Drive_Platform\DrivePlatform.cydsn/scheduler.c ****     {                               
  64:..\..\..\Drive_Platform\DrivePlatform.cydsn/scheduler.c ****         case SCH_TASK_NEW:          /* check if current task has a dependency */
  65:..\..\..\Drive_Platform\DrivePlatform.cydsn/scheduler.c ****                                     if (DEP_NONE != (SCH_Task[SCH_TaskIndex].dependency)[0])
 228              		.loc 1 65 0
 229 0080 40F20003 		movw	r3, #:lower16:SCH_TaskIndex
 230 0084 C0F20003 		movt	r3, #:upper16:SCH_TaskIndex
 231 0088 1968     		ldr	r1, [r3, #0]
 232 008a 40F20002 		movw	r2, #:lower16:SCH_Task
 233 008e C0F20002 		movt	r2, #:upper16:SCH_Task
 234 0092 0B46     		mov	r3, r1
 235 0094 4FEAC303 		lsl	r3, r3, #3
 236 0098 C1EB0303 		rsb	r3, r1, r3
 237 009c 4FEA8303 		lsl	r3, r3, #2
 238 00a0 1344     		add	r3, r3, r2
 239 00a2 03F11003 		add	r3, r3, #16
 240 00a6 1B79     		ldrb	r3, [r3, #4]	@ zero_extendqisi2
 241 00a8 002B     		cmp	r3, #0
 242 00aa 2FD0     		beq	.L13
  66:..\..\..\Drive_Platform\DrivePlatform.cydsn/scheduler.c ****                                     {
  67:..\..\..\Drive_Platform\DrivePlatform.cydsn/scheduler.c ****                                         /* get task index of dependent task and check task status *
  68:..\..\..\Drive_Platform\DrivePlatform.cydsn/scheduler.c ****                                         depTaskIndex = SCH_GetTaskIndex(SCH_Task[SCH_TaskIndex].dep
 243              		.loc 1 68 0
 244 00ac 40F20003 		movw	r3, #:lower16:SCH_TaskIndex
 245 00b0 C0F20003 		movt	r3, #:upper16:SCH_TaskIndex
 246 00b4 1A68     		ldr	r2, [r3, #0]
 247 00b6 1346     		mov	r3, r2
 248 00b8 4FEAC303 		lsl	r3, r3, #3
 249 00bc C2EB0303 		rsb	r3, r2, r3
 250 00c0 4FEA8303 		lsl	r3, r3, #2
 251 00c4 03F11002 		add	r2, r3, #16
 252 00c8 40F20003 		movw	r3, #:lower16:SCH_Task
 253 00cc C0F20003 		movt	r3, #:upper16:SCH_Task
 254 00d0 1344     		add	r3, r2, r3
 255 00d2 03F10403 		add	r3, r3, #4
 256 00d6 1846     		mov	r0, r3
 257 00d8 FFF7FEFF 		bl	SCH_GetTaskIndex
 258 00dc 0346     		mov	r3, r0
 259 00de BB71     		strb	r3, [r7, #6]
  69:..\..\..\Drive_Platform\DrivePlatform.cydsn/scheduler.c ****                                         
  70:..\..\..\Drive_Platform\DrivePlatform.cydsn/scheduler.c ****                                         /* check if dependent task is initialzed */
  71:..\..\..\Drive_Platform\DrivePlatform.cydsn/scheduler.c ****                                         if (SCH_Task[depTaskIndex].status != SCH_TASK_NEW)
 260              		.loc 1 71 0
 261 00e0 B979     		ldrb	r1, [r7, #6]	@ zero_extendqisi2
 262 00e2 40F20002 		movw	r2, #:lower16:SCH_Task
 263 00e6 C0F20002 		movt	r2, #:upper16:SCH_Task
ARM GAS  C:\Users\Martin\AppData\Local\Temp\cc5MMMyG.s 			page 7


 264 00ea 0B46     		mov	r3, r1
 265 00ec 4FEAC303 		lsl	r3, r3, #3
 266 00f0 C1EB0303 		rsb	r3, r1, r3
 267 00f4 4FEA8303 		lsl	r3, r3, #2
 268 00f8 1344     		add	r3, r3, r2
 269 00fa 03F10803 		add	r3, r3, #8
 270 00fe 1B78     		ldrb	r3, [r3, #0]	@ zero_extendqisi2
 271 0100 022B     		cmp	r3, #2
 272 0102 07D0     		beq	.L23
  72:..\..\..\Drive_Platform\DrivePlatform.cydsn/scheduler.c ****                                         {
  73:..\..\..\Drive_Platform\DrivePlatform.cydsn/scheduler.c ****                                             /* current task can be initialized */
  74:..\..\..\Drive_Platform\DrivePlatform.cydsn/scheduler.c ****                                             taskInitFlag = TRUE;
 273              		.loc 1 74 0
 274 0104 4FF00103 		mov	r3, #1
 275 0108 FB71     		strb	r3, [r7, #7]
 276 010a 04E0     		b	.L15
 277              	.L13:
  75:..\..\..\Drive_Platform\DrivePlatform.cydsn/scheduler.c ****                                         }
  76:..\..\..\Drive_Platform\DrivePlatform.cydsn/scheduler.c ****                                         else
  77:..\..\..\Drive_Platform\DrivePlatform.cydsn/scheduler.c ****                                         {
  78:..\..\..\Drive_Platform\DrivePlatform.cydsn/scheduler.c ****                                             /* do nothing */
  79:..\..\..\Drive_Platform\DrivePlatform.cydsn/scheduler.c ****                                         }
  80:..\..\..\Drive_Platform\DrivePlatform.cydsn/scheduler.c ****                                     }
  81:..\..\..\Drive_Platform\DrivePlatform.cydsn/scheduler.c ****                                     else
  82:..\..\..\Drive_Platform\DrivePlatform.cydsn/scheduler.c ****                                     {
  83:..\..\..\Drive_Platform\DrivePlatform.cydsn/scheduler.c ****                                         /* current task can be initialized */
  84:..\..\..\Drive_Platform\DrivePlatform.cydsn/scheduler.c ****                                         taskInitFlag = TRUE;
 278              		.loc 1 84 0
 279 010c 4FF00103 		mov	r3, #1
 280 0110 FB71     		strb	r3, [r7, #7]
 281 0112 00E0     		b	.L15
 282              	.L23:
 283              		.loc 1 74 0
 284 0114 00BF     		nop
 285              	.L15:
  85:..\..\..\Drive_Platform\DrivePlatform.cydsn/scheduler.c ****                                     }
  86:..\..\..\Drive_Platform\DrivePlatform.cydsn/scheduler.c ****                                     
  87:..\..\..\Drive_Platform\DrivePlatform.cydsn/scheduler.c ****                                     
  88:..\..\..\Drive_Platform\DrivePlatform.cydsn/scheduler.c ****                                     
  89:..\..\..\Drive_Platform\DrivePlatform.cydsn/scheduler.c ****                                     
  90:..\..\..\Drive_Platform\DrivePlatform.cydsn/scheduler.c ****                                     if (taskInitFlag == TRUE)
 286              		.loc 1 90 0
 287 0116 FB79     		ldrb	r3, [r7, #7]	@ zero_extendqisi2
 288 0118 012B     		cmp	r3, #1
 289 011a 40F0D280 		bne	.L24
  91:..\..\..\Drive_Platform\DrivePlatform.cydsn/scheduler.c ****                                     {
  92:..\..\..\Drive_Platform\DrivePlatform.cydsn/scheduler.c ****                                         /* call init function of current task */
  93:..\..\..\Drive_Platform\DrivePlatform.cydsn/scheduler.c ****                                         if (NULL != SCH_Task[SCH_TaskIndex].init)
 290              		.loc 1 93 0
 291 011e 40F20003 		movw	r3, #:lower16:SCH_TaskIndex
 292 0122 C0F20003 		movt	r3, #:upper16:SCH_TaskIndex
 293 0126 1968     		ldr	r1, [r3, #0]
 294 0128 40F20002 		movw	r2, #:lower16:SCH_Task
 295 012c C0F20002 		movt	r2, #:upper16:SCH_Task
 296 0130 0B46     		mov	r3, r1
 297 0132 4FEAC303 		lsl	r3, r3, #3
 298 0136 C1EB0303 		rsb	r3, r1, r3
ARM GAS  C:\Users\Martin\AppData\Local\Temp\cc5MMMyG.s 			page 8


 299 013a 4FEA8303 		lsl	r3, r3, #2
 300 013e 1344     		add	r3, r3, r2
 301 0140 03F10C03 		add	r3, r3, #12
 302 0144 1B68     		ldr	r3, [r3, #0]
 303 0146 002B     		cmp	r3, #0
 304 0148 31D0     		beq	.L17
  94:..\..\..\Drive_Platform\DrivePlatform.cydsn/scheduler.c ****                                         {
  95:..\..\..\Drive_Platform\DrivePlatform.cydsn/scheduler.c ****                                             status = SCH_Task[SCH_TaskIndex].init();
 305              		.loc 1 95 0
 306 014a 40F20003 		movw	r3, #:lower16:SCH_TaskIndex
 307 014e C0F20003 		movt	r3, #:upper16:SCH_TaskIndex
 308 0152 1968     		ldr	r1, [r3, #0]
 309 0154 40F20002 		movw	r2, #:lower16:SCH_Task
 310 0158 C0F20002 		movt	r2, #:upper16:SCH_Task
 311 015c 0B46     		mov	r3, r1
 312 015e 4FEAC303 		lsl	r3, r3, #3
 313 0162 C1EB0303 		rsb	r3, r1, r3
 314 0166 4FEA8303 		lsl	r3, r3, #2
 315 016a 1344     		add	r3, r3, r2
 316 016c 03F10C03 		add	r3, r3, #12
 317 0170 1B68     		ldr	r3, [r3, #0]
 318 0172 9847     		blx	r3
 319 0174 0346     		mov	r3, r0
 320 0176 7B71     		strb	r3, [r7, #5]
  96:..\..\..\Drive_Platform\DrivePlatform.cydsn/scheduler.c ****                                             if (status == SUCCESS)
 321              		.loc 1 96 0
 322 0178 7B79     		ldrb	r3, [r7, #5]	@ zero_extendqisi2
 323 017a 002B     		cmp	r3, #0
 324 017c 40F0A380 		bne	.L25
  97:..\..\..\Drive_Platform\DrivePlatform.cydsn/scheduler.c ****                                             {
  98:..\..\..\Drive_Platform\DrivePlatform.cydsn/scheduler.c ****                                                 SCH_Task[SCH_TaskIndex].status = SCH_TASK_READY;
 325              		.loc 1 98 0
 326 0180 40F20003 		movw	r3, #:lower16:SCH_TaskIndex
 327 0184 C0F20003 		movt	r3, #:upper16:SCH_TaskIndex
 328 0188 1968     		ldr	r1, [r3, #0]
 329 018a 40F20002 		movw	r2, #:lower16:SCH_Task
 330 018e C0F20002 		movt	r2, #:upper16:SCH_Task
 331 0192 0B46     		mov	r3, r1
 332 0194 4FEAC303 		lsl	r3, r3, #3
 333 0198 C1EB0303 		rsb	r3, r1, r3
 334 019c 4FEA8303 		lsl	r3, r3, #2
 335 01a0 1344     		add	r3, r3, r2
 336 01a2 03F10803 		add	r3, r3, #8
 337 01a6 4FF00402 		mov	r2, #4
 338 01aa 1A70     		strb	r2, [r3, #0]
  99:..\..\..\Drive_Platform\DrivePlatform.cydsn/scheduler.c ****                                             }
 100:..\..\..\Drive_Platform\DrivePlatform.cydsn/scheduler.c ****                                         }
 101:..\..\..\Drive_Platform\DrivePlatform.cydsn/scheduler.c ****                                         else
 102:..\..\..\Drive_Platform\DrivePlatform.cydsn/scheduler.c ****                                         {
 103:..\..\..\Drive_Platform\DrivePlatform.cydsn/scheduler.c ****                                             SCH_Task[SCH_TaskIndex].status = SCH_TASK_READY;
 104:..\..\..\Drive_Platform\DrivePlatform.cydsn/scheduler.c ****                                         }
 105:..\..\..\Drive_Platform\DrivePlatform.cydsn/scheduler.c ****                                     }
 106:..\..\..\Drive_Platform\DrivePlatform.cydsn/scheduler.c ****                                     
 107:..\..\..\Drive_Platform\DrivePlatform.cydsn/scheduler.c **** 
 108:..\..\..\Drive_Platform\DrivePlatform.cydsn/scheduler.c ****                                     break;
 339              		.loc 1 108 0
 340 01ac 8CE0     		b	.L7
ARM GAS  C:\Users\Martin\AppData\Local\Temp\cc5MMMyG.s 			page 9


 341              	.L17:
 342              		.loc 1 103 0
 343 01ae 40F20003 		movw	r3, #:lower16:SCH_TaskIndex
 344 01b2 C0F20003 		movt	r3, #:upper16:SCH_TaskIndex
 345 01b6 1968     		ldr	r1, [r3, #0]
 346 01b8 40F20002 		movw	r2, #:lower16:SCH_Task
 347 01bc C0F20002 		movt	r2, #:upper16:SCH_Task
 348 01c0 0B46     		mov	r3, r1
 349 01c2 4FEAC303 		lsl	r3, r3, #3
 350 01c6 C1EB0303 		rsb	r3, r1, r3
 351 01ca 4FEA8303 		lsl	r3, r3, #2
 352 01ce 1344     		add	r3, r3, r2
 353 01d0 03F10803 		add	r3, r3, #8
 354 01d4 4FF00402 		mov	r2, #4
 355 01d8 1A70     		strb	r2, [r3, #0]
 356              		.loc 1 108 0
 357 01da 75E0     		b	.L7
 358              	.L9:
 109:..\..\..\Drive_Platform\DrivePlatform.cydsn/scheduler.c **** 
 110:..\..\..\Drive_Platform\DrivePlatform.cydsn/scheduler.c ****         case SCH_TASK_READY:        SCH_Task[SCH_TaskIndex].status = SCH_TASK_RUNNING;
 359              		.loc 1 110 0
 360 01dc 40F20003 		movw	r3, #:lower16:SCH_TaskIndex
 361 01e0 C0F20003 		movt	r3, #:upper16:SCH_TaskIndex
 362 01e4 1968     		ldr	r1, [r3, #0]
 363 01e6 40F20002 		movw	r2, #:lower16:SCH_Task
 364 01ea C0F20002 		movt	r2, #:upper16:SCH_Task
 365 01ee 0B46     		mov	r3, r1
 366 01f0 4FEAC303 		lsl	r3, r3, #3
 367 01f4 C1EB0303 		rsb	r3, r1, r3
 368 01f8 4FEA8303 		lsl	r3, r3, #2
 369 01fc 1344     		add	r3, r3, r2
 370 01fe 03F10803 		add	r3, r3, #8
 371 0202 4FF00802 		mov	r2, #8
 372 0206 1A70     		strb	r2, [r3, #0]
 111:..\..\..\Drive_Platform\DrivePlatform.cydsn/scheduler.c ****                                     break;
 373              		.loc 1 111 0
 374 0208 5EE0     		b	.L7
 375              	.L10:
 112:..\..\..\Drive_Platform\DrivePlatform.cydsn/scheduler.c ****                                
 113:..\..\..\Drive_Platform\DrivePlatform.cydsn/scheduler.c ****         case SCH_TASK_RUNNING:      if (NULL != SCH_Task[SCH_TaskIndex].func)
 376              		.loc 1 113 0
 377 020a 40F20003 		movw	r3, #:lower16:SCH_TaskIndex
 378 020e C0F20003 		movt	r3, #:upper16:SCH_TaskIndex
 379 0212 1968     		ldr	r1, [r3, #0]
 380 0214 40F20002 		movw	r2, #:lower16:SCH_Task
 381 0218 C0F20002 		movt	r2, #:upper16:SCH_Task
 382 021c 0B46     		mov	r3, r1
 383 021e 4FEAC303 		lsl	r3, r3, #3
 384 0222 C1EB0303 		rsb	r3, r1, r3
 385 0226 4FEA8303 		lsl	r3, r3, #2
 386 022a 1344     		add	r3, r3, r2
 387 022c 03F11003 		add	r3, r3, #16
 388 0230 1B68     		ldr	r3, [r3, #0]
 389 0232 002B     		cmp	r3, #0
 390 0234 17D0     		beq	.L19
 114:..\..\..\Drive_Platform\DrivePlatform.cydsn/scheduler.c ****                                     {
 115:..\..\..\Drive_Platform\DrivePlatform.cydsn/scheduler.c ****                                         status = SCH_Task[SCH_TaskIndex].func();
ARM GAS  C:\Users\Martin\AppData\Local\Temp\cc5MMMyG.s 			page 10


 391              		.loc 1 115 0
 392 0236 40F20003 		movw	r3, #:lower16:SCH_TaskIndex
 393 023a C0F20003 		movt	r3, #:upper16:SCH_TaskIndex
 394 023e 1968     		ldr	r1, [r3, #0]
 395 0240 40F20002 		movw	r2, #:lower16:SCH_Task
 396 0244 C0F20002 		movt	r2, #:upper16:SCH_Task
 397 0248 0B46     		mov	r3, r1
 398 024a 4FEAC303 		lsl	r3, r3, #3
 399 024e C1EB0303 		rsb	r3, r1, r3
 400 0252 4FEA8303 		lsl	r3, r3, #2
 401 0256 1344     		add	r3, r3, r2
 402 0258 03F11003 		add	r3, r3, #16
 403 025c 1B68     		ldr	r3, [r3, #0]
 404 025e 9847     		blx	r3
 405 0260 0346     		mov	r3, r0
 406 0262 7B71     		strb	r3, [r7, #5]
 116:..\..\..\Drive_Platform\DrivePlatform.cydsn/scheduler.c ****                                     }
 117:..\..\..\Drive_Platform\DrivePlatform.cydsn/scheduler.c ****                                     else
 118:..\..\..\Drive_Platform\DrivePlatform.cydsn/scheduler.c ****                                     {
 119:..\..\..\Drive_Platform\DrivePlatform.cydsn/scheduler.c ****                                         SCH_Task[SCH_TaskIndex].status = SCH_TASK_TERMINATED;
 120:..\..\..\Drive_Platform\DrivePlatform.cydsn/scheduler.c ****                                     }
 121:..\..\..\Drive_Platform\DrivePlatform.cydsn/scheduler.c ****                                     break;
 407              		.loc 1 121 0
 408 0264 30E0     		b	.L7
 409              	.L19:
 410              		.loc 1 119 0
 411 0266 40F20003 		movw	r3, #:lower16:SCH_TaskIndex
 412 026a C0F20003 		movt	r3, #:upper16:SCH_TaskIndex
 413 026e 1968     		ldr	r1, [r3, #0]
 414 0270 40F20002 		movw	r2, #:lower16:SCH_Task
 415 0274 C0F20002 		movt	r2, #:upper16:SCH_Task
 416 0278 0B46     		mov	r3, r1
 417 027a 4FEAC303 		lsl	r3, r3, #3
 418 027e C1EB0303 		rsb	r3, r1, r3
 419 0282 4FEA8303 		lsl	r3, r3, #2
 420 0286 1344     		add	r3, r3, r2
 421 0288 03F10803 		add	r3, r3, #8
 422 028c 4FF02002 		mov	r2, #32
 423 0290 1A70     		strb	r2, [r3, #0]
 424              		.loc 1 121 0
 425 0292 19E0     		b	.L7
 426              	.L11:
 122:..\..\..\Drive_Platform\DrivePlatform.cydsn/scheduler.c **** 
 123:..\..\..\Drive_Platform\DrivePlatform.cydsn/scheduler.c ****         case SCH_TASK_WAITING:      SCH_Task[SCH_TaskIndex].status = SCH_TASK_RUNNING;
 427              		.loc 1 123 0
 428 0294 40F20003 		movw	r3, #:lower16:SCH_TaskIndex
 429 0298 C0F20003 		movt	r3, #:upper16:SCH_TaskIndex
 430 029c 1968     		ldr	r1, [r3, #0]
 431 029e 40F20002 		movw	r2, #:lower16:SCH_Task
 432 02a2 C0F20002 		movt	r2, #:upper16:SCH_Task
 433 02a6 0B46     		mov	r3, r1
 434 02a8 4FEAC303 		lsl	r3, r3, #3
 435 02ac C1EB0303 		rsb	r3, r1, r3
 436 02b0 4FEA8303 		lsl	r3, r3, #2
 437 02b4 1344     		add	r3, r3, r2
 438 02b6 03F10803 		add	r3, r3, #8
 439 02ba 4FF00802 		mov	r2, #8
ARM GAS  C:\Users\Martin\AppData\Local\Temp\cc5MMMyG.s 			page 11


 440 02be 1A70     		strb	r2, [r3, #0]
 441 02c0 02E0     		b	.L7
 442              	.L24:
 443              		.loc 1 108 0
 444 02c2 00BF     		nop
 445 02c4 00E0     		b	.L7
 446              	.L25:
 447 02c6 00BF     		nop
 448              	.L7:
 124:..\..\..\Drive_Platform\DrivePlatform.cydsn/scheduler.c ****                                     break;
 125:..\..\..\Drive_Platform\DrivePlatform.cydsn/scheduler.c ****                                     
 126:..\..\..\Drive_Platform\DrivePlatform.cydsn/scheduler.c ****         case SCH_TASK_TERMINATED:
 127:..\..\..\Drive_Platform\DrivePlatform.cydsn/scheduler.c ****         default:                    break;
 128:..\..\..\Drive_Platform\DrivePlatform.cydsn/scheduler.c ****     }
 129:..\..\..\Drive_Platform\DrivePlatform.cydsn/scheduler.c ****     
 130:..\..\..\Drive_Platform\DrivePlatform.cydsn/scheduler.c **** 
 131:..\..\..\Drive_Platform\DrivePlatform.cydsn/scheduler.c ****     
 132:..\..\..\Drive_Platform\DrivePlatform.cydsn/scheduler.c ****     SCH_TaskIndex++;
 449              		.loc 1 132 0
 450 02c8 40F20003 		movw	r3, #:lower16:SCH_TaskIndex
 451 02cc C0F20003 		movt	r3, #:upper16:SCH_TaskIndex
 452 02d0 1B68     		ldr	r3, [r3, #0]
 453 02d2 03F10102 		add	r2, r3, #1
 454 02d6 40F20003 		movw	r3, #:lower16:SCH_TaskIndex
 455 02da C0F20003 		movt	r3, #:upper16:SCH_TaskIndex
 456 02de 1A60     		str	r2, [r3, #0]
 133:..\..\..\Drive_Platform\DrivePlatform.cydsn/scheduler.c ****     
 134:..\..\..\Drive_Platform\DrivePlatform.cydsn/scheduler.c ****     if (SCH_TaskIndex > SIZE_OF_ARRAY(SCH_Task))
 457              		.loc 1 134 0
 458 02e0 40F20003 		movw	r3, #:lower16:SCH_TaskIndex
 459 02e4 C0F20003 		movt	r3, #:upper16:SCH_TaskIndex
 460 02e8 1B68     		ldr	r3, [r3, #0]
 461 02ea 072B     		cmp	r3, #7
 462 02ec 06D9     		bls	.L22
 135:..\..\..\Drive_Platform\DrivePlatform.cydsn/scheduler.c ****         SCH_TaskIndex = 0;
 463              		.loc 1 135 0
 464 02ee 40F20003 		movw	r3, #:lower16:SCH_TaskIndex
 465 02f2 C0F20003 		movt	r3, #:upper16:SCH_TaskIndex
 466 02f6 4FF00002 		mov	r2, #0
 467 02fa 1A60     		str	r2, [r3, #0]
 468              	.L22:
 136:..\..\..\Drive_Platform\DrivePlatform.cydsn/scheduler.c **** }
 469              		.loc 1 136 0
 470 02fc 07F10807 		add	r7, r7, #8
 471 0300 BD46     		mov	sp, r7
 472 0302 80BD     		pop	{r7, pc}
 473              		.cfi_endproc
 474              	.LFE30:
 475              		.size	SCH_TaskHandler, .-SCH_TaskHandler
 476              		.bss
 477              		.align	2
 478              	SCH_TaskBuffer:
 479 0004 00000000 		.space	1024
 479      00000000 
 479      00000000 
 479      00000000 
 479      00000000 
ARM GAS  C:\Users\Martin\AppData\Local\Temp\cc5MMMyG.s 			page 12


 480              		.align	2
 481              	n:
 482 0404 00000000 		.space	4
 483              		.section	.rodata
 484              		.align	2
 485              	.LC0:
 486 0000 0A3D3D3D 		.ascii	"\012===\000"
 486      00
 487 0005 000000   		.align	2
 488              	.LC1:
 489 0008 0A546173 		.ascii	"\012Task %i: %s/\000"
 489      6B202569 
 489      3A202573 
 489      2F00
 490 0016 0000     		.align	2
 491              	.LC2:
 492 0018 4E455700 		.ascii	"NEW\000"
 493              		.align	2
 494              	.LC3:
 495 001c 52454144 		.ascii	"READY\000"
 495      5900
 496 0022 0000     		.align	2
 497              	.LC4:
 498 0024 52554E4E 		.ascii	"RUNNING\000"
 498      494E4700 
 499              		.align	2
 500              	.LC5:
 501 002c 57414954 		.ascii	"WAITING\000"
 501      494E4700 
 502              		.align	2
 503              	.LC6:
 504 0034 5445524D 		.ascii	"TERMINATED\000"
 504      494E4154 
 504      454400
 505 003f 00       		.align	2
 506              	.LC7:
 507 0040 2025730A 		.ascii	" %s\012\000"
 507      00
 508 0045 000000   		.section	.text.SCH_ShowCurrentTasks,"ax",%progbits
 509              		.align	2
 510              		.global	SCH_ShowCurrentTasks
 511              		.thumb
 512              		.thumb_func
 513              		.type	SCH_ShowCurrentTasks, %function
 514              	SCH_ShowCurrentTasks:
 515              	.LFB31:
 137:..\..\..\Drive_Platform\DrivePlatform.cydsn/scheduler.c **** 
 138:..\..\..\Drive_Platform\DrivePlatform.cydsn/scheduler.c **** 
 139:..\..\..\Drive_Platform\DrivePlatform.cydsn/scheduler.c **** 
 140:..\..\..\Drive_Platform\DrivePlatform.cydsn/scheduler.c **** /*****************************************************************/
 141:..\..\..\Drive_Platform\DrivePlatform.cydsn/scheduler.c **** #ifdef SCH_DEBUG
 142:..\..\..\Drive_Platform\DrivePlatform.cydsn/scheduler.c **** #include <stdio.h>
 143:..\..\..\Drive_Platform\DrivePlatform.cydsn/scheduler.c **** static uchar SCH_TaskBuffer[1024];
 144:..\..\..\Drive_Platform\DrivePlatform.cydsn/scheduler.c **** static int n=0;
 145:..\..\..\Drive_Platform\DrivePlatform.cydsn/scheduler.c **** 
 146:..\..\..\Drive_Platform\DrivePlatform.cydsn/scheduler.c **** void SCH_ShowCurrentTasks(void)
 147:..\..\..\Drive_Platform\DrivePlatform.cydsn/scheduler.c **** {
ARM GAS  C:\Users\Martin\AppData\Local\Temp\cc5MMMyG.s 			page 13


 516              		.loc 1 147 0
 517              		.cfi_startproc
 518              		@ args = 0, pretend = 0, frame = 8
 519              		@ frame_needed = 1, uses_anonymous_args = 0
 520 0000 80B5     		push	{r7, lr}
 521              	.LCFI6:
 522              		.cfi_def_cfa_offset 8
 523 0002 82B0     		sub	sp, sp, #8
 524              	.LCFI7:
 525              		.cfi_def_cfa_offset 16
 526 0004 00AF     		add	r7, sp, #0
 527              		.cfi_offset 14, -4
 528              		.cfi_offset 7, -8
 529              	.LCFI8:
 530              		.cfi_def_cfa_register 7
 148:..\..\..\Drive_Platform\DrivePlatform.cydsn/scheduler.c ****     int i;
 149:..\..\..\Drive_Platform\DrivePlatform.cydsn/scheduler.c ****     
 150:..\..\..\Drive_Platform\DrivePlatform.cydsn/scheduler.c ****     n += sprintf((char*)SCH_TaskBuffer + n, "\n===");
 531              		.loc 1 150 0
 532 0006 40F20003 		movw	r3, #:lower16:n
 533 000a C0F20003 		movt	r3, #:upper16:n
 534 000e 1B68     		ldr	r3, [r3, #0]
 535 0010 1A46     		mov	r2, r3
 536 0012 40F20003 		movw	r3, #:lower16:SCH_TaskBuffer
 537 0016 C0F20003 		movt	r3, #:upper16:SCH_TaskBuffer
 538 001a 1344     		add	r3, r2, r3
 539 001c 1846     		mov	r0, r3
 540 001e 40F20001 		movw	r1, #:lower16:.LC0
 541 0022 C0F20001 		movt	r1, #:upper16:.LC0
 542 0026 4FF00502 		mov	r2, #5
 543 002a FFF7FEFF 		bl	memcpy
 544 002e 40F20003 		movw	r3, #:lower16:n
 545 0032 C0F20003 		movt	r3, #:upper16:n
 546 0036 1B68     		ldr	r3, [r3, #0]
 547 0038 03F10402 		add	r2, r3, #4
 548 003c 40F20003 		movw	r3, #:lower16:n
 549 0040 C0F20003 		movt	r3, #:upper16:n
 550 0044 1A60     		str	r2, [r3, #0]
 151:..\..\..\Drive_Platform\DrivePlatform.cydsn/scheduler.c ****     
 152:..\..\..\Drive_Platform\DrivePlatform.cydsn/scheduler.c ****     for (i=0; i<sizeof(SCH_Task); i++)
 551              		.loc 1 152 0
 552 0046 4FF00003 		mov	r3, #0
 553 004a 7B60     		str	r3, [r7, #4]
 554 004c 6EE1     		b	.L27
 555              	.L36:
 153:..\..\..\Drive_Platform\DrivePlatform.cydsn/scheduler.c ****     {
 154:..\..\..\Drive_Platform\DrivePlatform.cydsn/scheduler.c ****         if (NULL != SCH_Task[i].name)
 155:..\..\..\Drive_Platform\DrivePlatform.cydsn/scheduler.c ****         {
 156:..\..\..\Drive_Platform\DrivePlatform.cydsn/scheduler.c ****             n += sprintf((char*)SCH_TaskBuffer + n, "\nTask %i: %s/", i, SCH_Task[i].name);
 556              		.loc 1 156 0
 557 004e 40F20003 		movw	r3, #:lower16:n
 558 0052 C0F20003 		movt	r3, #:upper16:n
 559 0056 1B68     		ldr	r3, [r3, #0]
 560 0058 1A46     		mov	r2, r3
 561 005a 40F20003 		movw	r3, #:lower16:SCH_TaskBuffer
 562 005e C0F20003 		movt	r3, #:upper16:SCH_TaskBuffer
 563 0062 02EB0301 		add	r1, r2, r3
ARM GAS  C:\Users\Martin\AppData\Local\Temp\cc5MMMyG.s 			page 14


 564 0066 7A68     		ldr	r2, [r7, #4]
 565 0068 1346     		mov	r3, r2
 566 006a 4FEAC303 		lsl	r3, r3, #3
 567 006e C2EB0303 		rsb	r3, r2, r3
 568 0072 4FEA8302 		lsl	r2, r3, #2
 569 0076 40F20003 		movw	r3, #:lower16:SCH_Task
 570 007a C0F20003 		movt	r3, #:upper16:SCH_Task
 571 007e 1344     		add	r3, r2, r3
 572 0080 0846     		mov	r0, r1
 573 0082 40F20001 		movw	r1, #:lower16:.LC1
 574 0086 C0F20001 		movt	r1, #:upper16:.LC1
 575 008a 7A68     		ldr	r2, [r7, #4]
 576 008c FFF7FEFF 		bl	sprintf
 577 0090 0346     		mov	r3, r0
 578 0092 1A46     		mov	r2, r3
 579 0094 40F20003 		movw	r3, #:lower16:n
 580 0098 C0F20003 		movt	r3, #:upper16:n
 581 009c 1B68     		ldr	r3, [r3, #0]
 582 009e 1A44     		add	r2, r2, r3
 583 00a0 40F20003 		movw	r3, #:lower16:n
 584 00a4 C0F20003 		movt	r3, #:upper16:n
 585 00a8 1A60     		str	r2, [r3, #0]
 157:..\..\..\Drive_Platform\DrivePlatform.cydsn/scheduler.c ****         
 158:..\..\..\Drive_Platform\DrivePlatform.cydsn/scheduler.c ****             switch (SCH_Task[i].status)
 586              		.loc 1 158 0
 587 00aa 7968     		ldr	r1, [r7, #4]
 588 00ac 40F20002 		movw	r2, #:lower16:SCH_Task
 589 00b0 C0F20002 		movt	r2, #:upper16:SCH_Task
 590 00b4 0B46     		mov	r3, r1
 591 00b6 4FEAC303 		lsl	r3, r3, #3
 592 00ba C1EB0303 		rsb	r3, r1, r3
 593 00be 4FEA8303 		lsl	r3, r3, #2
 594 00c2 1344     		add	r3, r3, r2
 595 00c4 03F10803 		add	r3, r3, #8
 596 00c8 1B78     		ldrb	r3, [r3, #0]	@ zero_extendqisi2
 597 00ca A3F10203 		sub	r3, r3, #2
 598 00ce 1E2B     		cmp	r3, #30
 599 00d0 00F2E680 		bhi	.L28
 600 00d4 01A2     		adr	r2, .L34
 601 00d6 52F823F0 		ldr	pc, [r2, r3, lsl #2]
 602 00da 00BF     		.align	2
 603              	.L34:
 604 00dc 59010000 		.word	.L29+1
 605 00e0 A1020000 		.word	.L28+1
 606 00e4 9B010000 		.word	.L30+1
 607 00e8 A1020000 		.word	.L28+1
 608 00ec A1020000 		.word	.L28+1
 609 00f0 A1020000 		.word	.L28+1
 610 00f4 DD010000 		.word	.L31+1
 611 00f8 A1020000 		.word	.L28+1
 612 00fc A1020000 		.word	.L28+1
 613 0100 A1020000 		.word	.L28+1
 614 0104 A1020000 		.word	.L28+1
 615 0108 A1020000 		.word	.L28+1
 616 010c A1020000 		.word	.L28+1
 617 0110 A1020000 		.word	.L28+1
 618 0114 1F020000 		.word	.L32+1
ARM GAS  C:\Users\Martin\AppData\Local\Temp\cc5MMMyG.s 			page 15


 619 0118 A1020000 		.word	.L28+1
 620 011c A1020000 		.word	.L28+1
 621 0120 A1020000 		.word	.L28+1
 622 0124 A1020000 		.word	.L28+1
 623 0128 A1020000 		.word	.L28+1
 624 012c A1020000 		.word	.L28+1
 625 0130 A1020000 		.word	.L28+1
 626 0134 A1020000 		.word	.L28+1
 627 0138 A1020000 		.word	.L28+1
 628 013c A1020000 		.word	.L28+1
 629 0140 A1020000 		.word	.L28+1
 630 0144 A1020000 		.word	.L28+1
 631 0148 A1020000 		.word	.L28+1
 632 014c A1020000 		.word	.L28+1
 633 0150 A1020000 		.word	.L28+1
 634 0154 61020000 		.word	.L33+1
 635              	.L29:
 159:..\..\..\Drive_Platform\DrivePlatform.cydsn/scheduler.c ****             {
 160:..\..\..\Drive_Platform\DrivePlatform.cydsn/scheduler.c ****                 case SCH_TASK_NEW:          n += sprintf((char*)SCH_TaskBuffer + n, "NEW");
 636              		.loc 1 160 0
 637 0158 40F20003 		movw	r3, #:lower16:n
 638 015c C0F20003 		movt	r3, #:upper16:n
 639 0160 1B68     		ldr	r3, [r3, #0]
 640 0162 1A46     		mov	r2, r3
 641 0164 40F20003 		movw	r3, #:lower16:SCH_TaskBuffer
 642 0168 C0F20003 		movt	r3, #:upper16:SCH_TaskBuffer
 643 016c 1344     		add	r3, r2, r3
 644 016e 1846     		mov	r0, r3
 645 0170 40F20001 		movw	r1, #:lower16:.LC2
 646 0174 C0F20001 		movt	r1, #:upper16:.LC2
 647 0178 4FF00402 		mov	r2, #4
 648 017c FFF7FEFF 		bl	memcpy
 649 0180 40F20003 		movw	r3, #:lower16:n
 650 0184 C0F20003 		movt	r3, #:upper16:n
 651 0188 1B68     		ldr	r3, [r3, #0]
 652 018a 03F10302 		add	r2, r3, #3
 653 018e 40F20003 		movw	r3, #:lower16:n
 654 0192 C0F20003 		movt	r3, #:upper16:n
 655 0196 1A60     		str	r2, [r3, #0]
 161:..\..\..\Drive_Platform\DrivePlatform.cydsn/scheduler.c ****                                             break;
 656              		.loc 1 161 0
 657 0198 82E0     		b	.L28
 658              	.L30:
 162:..\..\..\Drive_Platform\DrivePlatform.cydsn/scheduler.c ****                 case SCH_TASK_READY:        n += sprintf((char*)SCH_TaskBuffer + n, "READY");
 659              		.loc 1 162 0
 660 019a 40F20003 		movw	r3, #:lower16:n
 661 019e C0F20003 		movt	r3, #:upper16:n
 662 01a2 1B68     		ldr	r3, [r3, #0]
 663 01a4 1A46     		mov	r2, r3
 664 01a6 40F20003 		movw	r3, #:lower16:SCH_TaskBuffer
 665 01aa C0F20003 		movt	r3, #:upper16:SCH_TaskBuffer
 666 01ae 1344     		add	r3, r2, r3
 667 01b0 1846     		mov	r0, r3
 668 01b2 40F20001 		movw	r1, #:lower16:.LC3
 669 01b6 C0F20001 		movt	r1, #:upper16:.LC3
 670 01ba 4FF00602 		mov	r2, #6
 671 01be FFF7FEFF 		bl	memcpy
ARM GAS  C:\Users\Martin\AppData\Local\Temp\cc5MMMyG.s 			page 16


 672 01c2 40F20003 		movw	r3, #:lower16:n
 673 01c6 C0F20003 		movt	r3, #:upper16:n
 674 01ca 1B68     		ldr	r3, [r3, #0]
 675 01cc 03F10502 		add	r2, r3, #5
 676 01d0 40F20003 		movw	r3, #:lower16:n
 677 01d4 C0F20003 		movt	r3, #:upper16:n
 678 01d8 1A60     		str	r2, [r3, #0]
 163:..\..\..\Drive_Platform\DrivePlatform.cydsn/scheduler.c ****                                             break;
 679              		.loc 1 163 0
 680 01da 61E0     		b	.L28
 681              	.L31:
 164:..\..\..\Drive_Platform\DrivePlatform.cydsn/scheduler.c ****                 case SCH_TASK_RUNNING:      n += sprintf((char*)SCH_TaskBuffer + n, "RUNNING");
 682              		.loc 1 164 0
 683 01dc 40F20003 		movw	r3, #:lower16:n
 684 01e0 C0F20003 		movt	r3, #:upper16:n
 685 01e4 1B68     		ldr	r3, [r3, #0]
 686 01e6 1A46     		mov	r2, r3
 687 01e8 40F20003 		movw	r3, #:lower16:SCH_TaskBuffer
 688 01ec C0F20003 		movt	r3, #:upper16:SCH_TaskBuffer
 689 01f0 1344     		add	r3, r2, r3
 690 01f2 1846     		mov	r0, r3
 691 01f4 40F20001 		movw	r1, #:lower16:.LC4
 692 01f8 C0F20001 		movt	r1, #:upper16:.LC4
 693 01fc 4FF00802 		mov	r2, #8
 694 0200 FFF7FEFF 		bl	memcpy
 695 0204 40F20003 		movw	r3, #:lower16:n
 696 0208 C0F20003 		movt	r3, #:upper16:n
 697 020c 1B68     		ldr	r3, [r3, #0]
 698 020e 03F10702 		add	r2, r3, #7
 699 0212 40F20003 		movw	r3, #:lower16:n
 700 0216 C0F20003 		movt	r3, #:upper16:n
 701 021a 1A60     		str	r2, [r3, #0]
 165:..\..\..\Drive_Platform\DrivePlatform.cydsn/scheduler.c ****                                             break;
 702              		.loc 1 165 0
 703 021c 40E0     		b	.L28
 704              	.L32:
 166:..\..\..\Drive_Platform\DrivePlatform.cydsn/scheduler.c ****                 case SCH_TASK_WAITING:      n += sprintf((char*)SCH_TaskBuffer + n, "WAITING");
 705              		.loc 1 166 0
 706 021e 40F20003 		movw	r3, #:lower16:n
 707 0222 C0F20003 		movt	r3, #:upper16:n
 708 0226 1B68     		ldr	r3, [r3, #0]
 709 0228 1A46     		mov	r2, r3
 710 022a 40F20003 		movw	r3, #:lower16:SCH_TaskBuffer
 711 022e C0F20003 		movt	r3, #:upper16:SCH_TaskBuffer
 712 0232 1344     		add	r3, r2, r3
 713 0234 1846     		mov	r0, r3
 714 0236 40F20001 		movw	r1, #:lower16:.LC5
 715 023a C0F20001 		movt	r1, #:upper16:.LC5
 716 023e 4FF00802 		mov	r2, #8
 717 0242 FFF7FEFF 		bl	memcpy
 718 0246 40F20003 		movw	r3, #:lower16:n
 719 024a C0F20003 		movt	r3, #:upper16:n
 720 024e 1B68     		ldr	r3, [r3, #0]
 721 0250 03F10702 		add	r2, r3, #7
 722 0254 40F20003 		movw	r3, #:lower16:n
 723 0258 C0F20003 		movt	r3, #:upper16:n
 724 025c 1A60     		str	r2, [r3, #0]
ARM GAS  C:\Users\Martin\AppData\Local\Temp\cc5MMMyG.s 			page 17


 167:..\..\..\Drive_Platform\DrivePlatform.cydsn/scheduler.c ****                                             break;
 725              		.loc 1 167 0
 726 025e 1FE0     		b	.L28
 727              	.L33:
 168:..\..\..\Drive_Platform\DrivePlatform.cydsn/scheduler.c ****                 case SCH_TASK_TERMINATED:   n += sprintf((char*)SCH_TaskBuffer + n, "TERMINATED");
 728              		.loc 1 168 0
 729 0260 40F20003 		movw	r3, #:lower16:n
 730 0264 C0F20003 		movt	r3, #:upper16:n
 731 0268 1B68     		ldr	r3, [r3, #0]
 732 026a 1A46     		mov	r2, r3
 733 026c 40F20003 		movw	r3, #:lower16:SCH_TaskBuffer
 734 0270 C0F20003 		movt	r3, #:upper16:SCH_TaskBuffer
 735 0274 1344     		add	r3, r2, r3
 736 0276 1846     		mov	r0, r3
 737 0278 40F20001 		movw	r1, #:lower16:.LC6
 738 027c C0F20001 		movt	r1, #:upper16:.LC6
 739 0280 4FF00B02 		mov	r2, #11
 740 0284 FFF7FEFF 		bl	memcpy
 741 0288 40F20003 		movw	r3, #:lower16:n
 742 028c C0F20003 		movt	r3, #:upper16:n
 743 0290 1B68     		ldr	r3, [r3, #0]
 744 0292 03F10A02 		add	r2, r3, #10
 745 0296 40F20003 		movw	r3, #:lower16:n
 746 029a C0F20003 		movt	r3, #:upper16:n
 747 029e 1A60     		str	r2, [r3, #0]
 748              	.L28:
 169:..\..\..\Drive_Platform\DrivePlatform.cydsn/scheduler.c ****                                             break;
 170:..\..\..\Drive_Platform\DrivePlatform.cydsn/scheduler.c ****                 default:                    break;                                
 171:..\..\..\Drive_Platform\DrivePlatform.cydsn/scheduler.c ****             }
 172:..\..\..\Drive_Platform\DrivePlatform.cydsn/scheduler.c ****             
 173:..\..\..\Drive_Platform\DrivePlatform.cydsn/scheduler.c ****             n += sprintf((char*)SCH_TaskBuffer + n, " %s\n", SCH_Task[i].dependency);
 749              		.loc 1 173 0
 750 02a0 40F20003 		movw	r3, #:lower16:n
 751 02a4 C0F20003 		movt	r3, #:upper16:n
 752 02a8 1B68     		ldr	r3, [r3, #0]
 753 02aa 1A46     		mov	r2, r3
 754 02ac 40F20003 		movw	r3, #:lower16:SCH_TaskBuffer
 755 02b0 C0F20003 		movt	r3, #:upper16:SCH_TaskBuffer
 756 02b4 02EB0301 		add	r1, r2, r3
 757 02b8 7A68     		ldr	r2, [r7, #4]
 758 02ba 1346     		mov	r3, r2
 759 02bc 4FEAC303 		lsl	r3, r3, #3
 760 02c0 C2EB0303 		rsb	r3, r2, r3
 761 02c4 4FEA8303 		lsl	r3, r3, #2
 762 02c8 03F11002 		add	r2, r3, #16
 763 02cc 40F20003 		movw	r3, #:lower16:SCH_Task
 764 02d0 C0F20003 		movt	r3, #:upper16:SCH_Task
 765 02d4 1344     		add	r3, r2, r3
 766 02d6 03F10403 		add	r3, r3, #4
 767 02da 0846     		mov	r0, r1
 768 02dc 40F20001 		movw	r1, #:lower16:.LC7
 769 02e0 C0F20001 		movt	r1, #:upper16:.LC7
 770 02e4 1A46     		mov	r2, r3
 771 02e6 FFF7FEFF 		bl	sprintf
 772 02ea 0246     		mov	r2, r0
 773 02ec 40F20003 		movw	r3, #:lower16:n
 774 02f0 C0F20003 		movt	r3, #:upper16:n
ARM GAS  C:\Users\Martin\AppData\Local\Temp\cc5MMMyG.s 			page 18


 775 02f4 1B68     		ldr	r3, [r3, #0]
 776 02f6 1A44     		add	r2, r2, r3
 777 02f8 40F20003 		movw	r3, #:lower16:n
 778 02fc C0F20003 		movt	r3, #:upper16:n
 779 0300 1A60     		str	r2, [r3, #0]
 174:..\..\..\Drive_Platform\DrivePlatform.cydsn/scheduler.c ****             if ((n+64)>1024)
 780              		.loc 1 174 0
 781 0302 40F20003 		movw	r3, #:lower16:n
 782 0306 C0F20003 		movt	r3, #:upper16:n
 783 030a 1B68     		ldr	r3, [r3, #0]
 784 030c 03F14003 		add	r3, r3, #64
 785 0310 B3F5806F 		cmp	r3, #1024
 786 0314 06DD     		ble	.L35
 175:..\..\..\Drive_Platform\DrivePlatform.cydsn/scheduler.c ****                 n=0;
 787              		.loc 1 175 0
 788 0316 40F20003 		movw	r3, #:lower16:n
 789 031a C0F20003 		movt	r3, #:upper16:n
 790 031e 4FF00002 		mov	r2, #0
 791 0322 1A60     		str	r2, [r3, #0]
 792              	.L35:
 793              		.loc 1 152 0
 794 0324 7B68     		ldr	r3, [r7, #4]
 795 0326 03F10103 		add	r3, r3, #1
 796 032a 7B60     		str	r3, [r7, #4]
 797              	.L27:
 798 032c 7B68     		ldr	r3, [r7, #4]
 799 032e C32B     		cmp	r3, #195
 800 0330 7FF68DAE 		bls	.L36
 176:..\..\..\Drive_Platform\DrivePlatform.cydsn/scheduler.c ****         }
 177:..\..\..\Drive_Platform\DrivePlatform.cydsn/scheduler.c ****     }
 178:..\..\..\Drive_Platform\DrivePlatform.cydsn/scheduler.c **** }
 801              		.loc 1 178 0
 802 0334 07F10807 		add	r7, r7, #8
 803 0338 BD46     		mov	sp, r7
 804 033a 80BD     		pop	{r7, pc}
 805              		.cfi_endproc
 806              	.LFE31:
 807              		.size	SCH_ShowCurrentTasks, .-SCH_ShowCurrentTasks
 808              		.text
 809              	.Letext0: