ARM GAS  C:\Users\Martin\AppData\Local\Temp\ccjBrMSq.s 			page 1


   1              		.syntax unified
   2              		.cpu cortex-m3
   3              		.fpu softvfp
   4              		.eabi_attribute 20, 1
   5              		.eabi_attribute 21, 1
   6              		.eabi_attribute 23, 3
   7              		.eabi_attribute 24, 1
   8              		.eabi_attribute 25, 1
   9              		.eabi_attribute 26, 1
  10              		.eabi_attribute 30, 6
  11              		.eabi_attribute 18, 4
  12              		.thumb
  13              		.file	"servo_cds5500.c"
  20 0000 5E010000 		.text
  20      0200D300 
  20      00000201 
  20      FB0E0D00 
  20      01010101 
  21              	.Ltext0:
  22              		.cfi_sections	.debug_frame
  23              		.section	.text.Checksum,"ax",%progbits
  24              		.align	2
  25              		.thumb
  26              		.thumb_func
  27              		.type	Checksum, %function
  28              	Checksum:
  29              	.LFB29:
  30              		.file 1 "..\\..\\..\\Drive_Platform\\DrivePlatform.cydsn\\servo_cds5500.c"
   1:..\..\..\Drive_Platform\DrivePlatform.cydsn/servo_cds5500.c **** /* Copyright (C) <2014> <Martin Schalk>
   2:..\..\..\Drive_Platform\DrivePlatform.cydsn/servo_cds5500.c ****  * All rights reserved.
   3:..\..\..\Drive_Platform\DrivePlatform.cydsn/servo_cds5500.c ****  *
   4:..\..\..\Drive_Platform\DrivePlatform.cydsn/servo_cds5500.c ****  * This software may be modified and distributed under the terms
   5:..\..\..\Drive_Platform\DrivePlatform.cydsn/servo_cds5500.c ****  * of the BSD license.  See the LICENSE file for details.
   6:..\..\..\Drive_Platform\DrivePlatform.cydsn/servo_cds5500.c ****  */
   7:..\..\..\Drive_Platform\DrivePlatform.cydsn/servo_cds5500.c **** 
   8:..\..\..\Drive_Platform\DrivePlatform.cydsn/servo_cds5500.c **** #include <project.h>
   9:..\..\..\Drive_Platform\DrivePlatform.cydsn/servo_cds5500.c **** #include "servo_cds5500.h"
  10:..\..\..\Drive_Platform\DrivePlatform.cydsn/servo_cds5500.c **** #include <stdio.h>
  11:..\..\..\Drive_Platform\DrivePlatform.cydsn/servo_cds5500.c **** #include "bal.h"
  12:..\..\..\Drive_Platform\DrivePlatform.cydsn/servo_cds5500.c **** 
  13:..\..\..\Drive_Platform\DrivePlatform.cydsn/servo_cds5500.c **** 
  14:..\..\..\Drive_Platform\DrivePlatform.cydsn/servo_cds5500.c **** /*------------------------ LOCAL FUNCTIONS -------------------------------*/
  15:..\..\..\Drive_Platform\DrivePlatform.cydsn/servo_cds5500.c **** 
  16:..\..\..\Drive_Platform\DrivePlatform.cydsn/servo_cds5500.c **** /**************************************************************************/
  17:..\..\..\Drive_Platform\DrivePlatform.cydsn/servo_cds5500.c **** static uint8 Checksum(CDS5500_MSG* msg)
  18:..\..\..\Drive_Platform\DrivePlatform.cydsn/servo_cds5500.c **** {
  31              		.loc 1 18 0
  32              		.cfi_startproc
  33              		@ args = 0, pretend = 0, frame = 16
  34              		@ frame_needed = 1, uses_anonymous_args = 0
  35              		@ link register save eliminated.
ARM GAS  C:\Users\Martin\AppData\Local\Temp\ccjBrMSq.s 			page 2


  36 0000 80B4     		push	{r7}
  37              	.LCFI0:
  38              		.cfi_def_cfa_offset 4
  39 0002 85B0     		sub	sp, sp, #20
  40              	.LCFI1:
  41              		.cfi_def_cfa_offset 24
  42 0004 00AF     		add	r7, sp, #0
  43              		.cfi_offset 7, -4
  44              	.LCFI2:
  45              		.cfi_def_cfa_register 7
  46 0006 7860     		str	r0, [r7, #4]
  19:..\..\..\Drive_Platform\DrivePlatform.cydsn/servo_cds5500.c **** 	uint8 checksum = 0;
  47              		.loc 1 19 0
  48 0008 4FF00003 		mov	r3, #0
  49 000c BB73     		strb	r3, [r7, #14]
  20:..\..\..\Drive_Platform\DrivePlatform.cydsn/servo_cds5500.c ****     uint8 i;
  21:..\..\..\Drive_Platform\DrivePlatform.cydsn/servo_cds5500.c ****         
  22:..\..\..\Drive_Platform\DrivePlatform.cydsn/servo_cds5500.c ****     /* add first 3 bytes of motor message */    
  23:..\..\..\Drive_Platform\DrivePlatform.cydsn/servo_cds5500.c ****     checksum = msg->motorId + msg->length + msg->instrId;
  50              		.loc 1 23 0
  51 000e 7B68     		ldr	r3, [r7, #4]
  52 0010 9A78     		ldrb	r2, [r3, #2]	@ zero_extendqisi2
  53 0012 7B68     		ldr	r3, [r7, #4]
  54 0014 DB78     		ldrb	r3, [r3, #3]	@ zero_extendqisi2
  55 0016 1344     		add	r3, r2, r3
  56 0018 DAB2     		uxtb	r2, r3
  57 001a 7B68     		ldr	r3, [r7, #4]
  58 001c 1B79     		ldrb	r3, [r3, #4]	@ zero_extendqisi2
  59 001e 1344     		add	r3, r2, r3
  60 0020 BB73     		strb	r3, [r7, #14]
  24:..\..\..\Drive_Platform\DrivePlatform.cydsn/servo_cds5500.c ****     
  25:..\..\..\Drive_Platform\DrivePlatform.cydsn/servo_cds5500.c ****     /* add parameter bytes of motor message */   
  26:..\..\..\Drive_Platform\DrivePlatform.cydsn/servo_cds5500.c ****     for (i=0; i<msg->length-1; i++)
  61              		.loc 1 26 0
  62 0022 4FF00003 		mov	r3, #0
  63 0026 FB73     		strb	r3, [r7, #15]
  64 0028 0AE0     		b	.L2
  65              	.L3:
  27:..\..\..\Drive_Platform\DrivePlatform.cydsn/servo_cds5500.c ****         checksum += msg->instrParams[i];
  66              		.loc 1 27 0
  67 002a FA7B     		ldrb	r2, [r7, #15]	@ zero_extendqisi2
  68 002c 7B68     		ldr	r3, [r7, #4]
  69 002e 1344     		add	r3, r2, r3
  70 0030 5A79     		ldrb	r2, [r3, #5]	@ zero_extendqisi2
  71 0032 BB7B     		ldrb	r3, [r7, #14]
  72 0034 1344     		add	r3, r2, r3
  73 0036 BB73     		strb	r3, [r7, #14]
  74              		.loc 1 26 0
  75 0038 FB7B     		ldrb	r3, [r7, #15]
  76 003a 03F10103 		add	r3, r3, #1
  77 003e FB73     		strb	r3, [r7, #15]
  78              	.L2:
  79 0040 FA7B     		ldrb	r2, [r7, #15]	@ zero_extendqisi2
  80 0042 7B68     		ldr	r3, [r7, #4]
  81 0044 DB78     		ldrb	r3, [r3, #3]	@ zero_extendqisi2
  82 0046 03F1FF33 		add	r3, r3, #-1
  83 004a 9A42     		cmp	r2, r3
ARM GAS  C:\Users\Martin\AppData\Local\Temp\ccjBrMSq.s 			page 3


  84 004c EDDB     		blt	.L3
  28:..\..\..\Drive_Platform\DrivePlatform.cydsn/servo_cds5500.c ****         
  29:..\..\..\Drive_Platform\DrivePlatform.cydsn/servo_cds5500.c ****     /* invert checksum */    
  30:..\..\..\Drive_Platform\DrivePlatform.cydsn/servo_cds5500.c ****     checksum = ~checksum & 0xFF; //    printf((~(ID + (messageLength) + INST_WRITE + P_GOAL_POSITIO
  85              		.loc 1 30 0
  86 004e BB7B     		ldrb	r3, [r7, #14]
  87 0050 6FEA0303 		mvn	r3, r3
  88 0054 BB73     		strb	r3, [r7, #14]
  31:..\..\..\Drive_Platform\DrivePlatform.cydsn/servo_cds5500.c **** 		
  32:..\..\..\Drive_Platform\DrivePlatform.cydsn/servo_cds5500.c **** 	return checksum;
  89              		.loc 1 32 0
  90 0056 BB7B     		ldrb	r3, [r7, #14]	@ zero_extendqisi2
  33:..\..\..\Drive_Platform\DrivePlatform.cydsn/servo_cds5500.c **** }
  91              		.loc 1 33 0
  92 0058 1846     		mov	r0, r3
  93 005a 07F11407 		add	r7, r7, #20
  94 005e BD46     		mov	sp, r7
  95 0060 80BC     		pop	{r7}
  96 0062 7047     		bx	lr
  97              		.cfi_endproc
  98              	.LFE29:
  99              		.size	Checksum, .-Checksum
 100              		.section	.text.SendServoMsg,"ax",%progbits
 101              		.align	2
 102              		.thumb
 103              		.thumb_func
 104              		.type	SendServoMsg, %function
 105              	SendServoMsg:
 106              	.LFB30:
  34:..\..\..\Drive_Platform\DrivePlatform.cydsn/servo_cds5500.c **** 
  35:..\..\..\Drive_Platform\DrivePlatform.cydsn/servo_cds5500.c **** /**************************************************************************/
  36:..\..\..\Drive_Platform\DrivePlatform.cydsn/servo_cds5500.c **** static STATUS SendServoMsg(uint8 ucMotorId, uint8 ucInstrId, uint8 ucNumParams, uint8* pucInstrPara
  37:..\..\..\Drive_Platform\DrivePlatform.cydsn/servo_cds5500.c **** {
 107              		.loc 1 37 0
 108              		.cfi_startproc
 109              		@ args = 0, pretend = 0, frame = 24
 110              		@ frame_needed = 1, uses_anonymous_args = 0
 111 0000 80B5     		push	{r7, lr}
 112              	.LCFI3:
 113              		.cfi_def_cfa_offset 8
 114 0002 86B0     		sub	sp, sp, #24
 115              	.LCFI4:
 116              		.cfi_def_cfa_offset 32
 117 0004 00AF     		add	r7, sp, #0
 118              		.cfi_offset 14, -4
 119              		.cfi_offset 7, -8
 120              	.LCFI5:
 121              		.cfi_def_cfa_register 7
 122 0006 3B60     		str	r3, [r7, #0]
 123 0008 0346     		mov	r3, r0
 124 000a FB71     		strb	r3, [r7, #7]
 125 000c 0B46     		mov	r3, r1
 126 000e BB71     		strb	r3, [r7, #6]
 127 0010 1346     		mov	r3, r2
 128 0012 7B71     		strb	r3, [r7, #5]
  38:..\..\..\Drive_Platform\DrivePlatform.cydsn/servo_cds5500.c ****     CDS5500_MSG msg;
  39:..\..\..\Drive_Platform\DrivePlatform.cydsn/servo_cds5500.c ****     
ARM GAS  C:\Users\Martin\AppData\Local\Temp\ccjBrMSq.s 			page 4


  40:..\..\..\Drive_Platform\DrivePlatform.cydsn/servo_cds5500.c ****     msg.startbyte0      = START_BYTE_0_VALUE;
 129              		.loc 1 40 0
 130 0014 4FF0FF33 		mov	r3, #-1
 131 0018 3B72     		strb	r3, [r7, #8]
  41:..\..\..\Drive_Platform\DrivePlatform.cydsn/servo_cds5500.c ****     msg.startbyte1      = START_BYTE_1_VALUE;
 132              		.loc 1 41 0
 133 001a 4FF0FF33 		mov	r3, #-1
 134 001e 7B72     		strb	r3, [r7, #9]
  42:..\..\..\Drive_Platform\DrivePlatform.cydsn/servo_cds5500.c ****     msg.motorId         = ucMotorId;
 135              		.loc 1 42 0
 136 0020 FB79     		ldrb	r3, [r7, #7]
 137 0022 BB72     		strb	r3, [r7, #10]
  43:..\..\..\Drive_Platform\DrivePlatform.cydsn/servo_cds5500.c ****     msg.instrId         = ucInstrId;
 138              		.loc 1 43 0
 139 0024 BB79     		ldrb	r3, [r7, #6]
 140 0026 3B73     		strb	r3, [r7, #12]
  44:..\..\..\Drive_Platform\DrivePlatform.cydsn/servo_cds5500.c ****     
  45:..\..\..\Drive_Platform\DrivePlatform.cydsn/servo_cds5500.c ****     if ((ucNumParams > 0) && (pucInstrParams != NULL))
 141              		.loc 1 45 0
 142 0028 7B79     		ldrb	r3, [r7, #5]	@ zero_extendqisi2
 143 002a 002B     		cmp	r3, #0
 144 002c 0CD0     		beq	.L6
 145 002e 3B68     		ldr	r3, [r7, #0]
 146 0030 002B     		cmp	r3, #0
 147 0032 09D0     		beq	.L6
  46:..\..\..\Drive_Platform\DrivePlatform.cydsn/servo_cds5500.c ****         memcpy(msg.instrParams, pucInstrParams, ucNumParams);
 148              		.loc 1 46 0
 149 0034 7B79     		ldrb	r3, [r7, #5]	@ zero_extendqisi2
 150 0036 07F10802 		add	r2, r7, #8
 151 003a 02F10502 		add	r2, r2, #5
 152 003e 1046     		mov	r0, r2
 153 0040 3968     		ldr	r1, [r7, #0]
 154 0042 1A46     		mov	r2, r3
 155 0044 FFF7FEFF 		bl	memcpy
 156              	.L6:
  47:..\..\..\Drive_Platform\DrivePlatform.cydsn/servo_cds5500.c **** 
  48:..\..\..\Drive_Platform\DrivePlatform.cydsn/servo_cds5500.c ****     msg.length          = ucNumParams + 2; //number of params + 1 (instrId) + 1 (checksum)
 157              		.loc 1 48 0
 158 0048 7B79     		ldrb	r3, [r7, #5]
 159 004a 03F10203 		add	r3, r3, #2
 160 004e DBB2     		uxtb	r3, r3
 161 0050 FB72     		strb	r3, [r7, #11]
  49:..\..\..\Drive_Platform\DrivePlatform.cydsn/servo_cds5500.c ****     msg.checksum        = Checksum(&msg);  
 162              		.loc 1 49 0
 163 0052 07F10803 		add	r3, r7, #8
 164 0056 1846     		mov	r0, r3
 165 0058 FFF7FEFF 		bl	Checksum
 166 005c 0346     		mov	r3, r0
 167 005e 7B75     		strb	r3, [r7, #21]
  50:..\..\..\Drive_Platform\DrivePlatform.cydsn/servo_cds5500.c ****     
  51:..\..\..\Drive_Platform\DrivePlatform.cydsn/servo_cds5500.c ****     return BAL_ServoMsg(&msg);
 168              		.loc 1 51 0
 169 0060 07F10803 		add	r3, r7, #8
 170 0064 1846     		mov	r0, r3
 171 0066 FFF7FEFF 		bl	BAL_ServoMsg
 172 006a 0346     		mov	r3, r0
  52:..\..\..\Drive_Platform\DrivePlatform.cydsn/servo_cds5500.c **** }
ARM GAS  C:\Users\Martin\AppData\Local\Temp\ccjBrMSq.s 			page 5


 173              		.loc 1 52 0
 174 006c 1846     		mov	r0, r3
 175 006e 07F11807 		add	r7, r7, #24
 176 0072 BD46     		mov	sp, r7
 177 0074 80BD     		pop	{r7, pc}
 178              		.cfi_endproc
 179              	.LFE30:
 180              		.size	SendServoMsg, .-SendServoMsg
 181 0076 00BF     		.section	.text.ServoTest,"ax",%progbits
 182              		.align	2
 183              		.global	ServoTest
 184              		.thumb
 185              		.thumb_func
 186              		.type	ServoTest, %function
 187              	ServoTest:
 188              	.LFB31:
  53:..\..\..\Drive_Platform\DrivePlatform.cydsn/servo_cds5500.c **** 
  54:..\..\..\Drive_Platform\DrivePlatform.cydsn/servo_cds5500.c **** 
  55:..\..\..\Drive_Platform\DrivePlatform.cydsn/servo_cds5500.c **** 
  56:..\..\..\Drive_Platform\DrivePlatform.cydsn/servo_cds5500.c **** /**************************************************************************/
  57:..\..\..\Drive_Platform\DrivePlatform.cydsn/servo_cds5500.c **** void ServoTest(void)
  58:..\..\..\Drive_Platform\DrivePlatform.cydsn/servo_cds5500.c **** {
 189              		.loc 1 58 0
 190              		.cfi_startproc
 191              		@ args = 0, pretend = 0, frame = 8
 192              		@ frame_needed = 1, uses_anonymous_args = 0
 193 0000 80B5     		push	{r7, lr}
 194              	.LCFI6:
 195              		.cfi_def_cfa_offset 8
 196 0002 82B0     		sub	sp, sp, #8
 197              	.LCFI7:
 198              		.cfi_def_cfa_offset 16
 199 0004 00AF     		add	r7, sp, #0
 200              		.cfi_offset 14, -4
 201              		.cfi_offset 7, -8
 202              	.LCFI8:
 203              		.cfi_def_cfa_register 7
  59:..\..\..\Drive_Platform\DrivePlatform.cydsn/servo_cds5500.c ****     STATUS status;
  60:..\..\..\Drive_Platform\DrivePlatform.cydsn/servo_cds5500.c ****     
  61:..\..\..\Drive_Platform\DrivePlatform.cydsn/servo_cds5500.c ****     status = SendServoMsg(  SERVO_1,    INST_PING_LENGTH,   INST_PING,      0);
 204              		.loc 1 61 0
 205 0006 4FF00100 		mov	r0, #1
 206 000a 4FF00001 		mov	r1, #0
 207 000e 4FF00102 		mov	r2, #1
 208 0012 4FF00003 		mov	r3, #0
 209 0016 FFF7FEFF 		bl	SendServoMsg
 210 001a 0346     		mov	r3, r0
 211 001c FB71     		strb	r3, [r7, #7]
  62:..\..\..\Drive_Platform\DrivePlatform.cydsn/servo_cds5500.c ****     
  63:..\..\..\Drive_Platform\DrivePlatform.cydsn/servo_cds5500.c ****     /*
  64:..\..\..\Drive_Platform\DrivePlatform.cydsn/servo_cds5500.c ****                         HEADER      ID      LENGTH      INSTRUCTION     PARAMETERS
  65:..\..\..\Drive_Platform\DrivePlatform.cydsn/servo_cds5500.c ****             SEND:       0XFF 0XFF   0X01    0X02        0X01            0XFB 
  66:..\..\..\Drive_Platform\DrivePlatform.cydsn/servo_cds5500.c ****             RETURN:     0XFF 0XFF   0X01    0X02        0X00            0XFC
  67:..\..\..\Drive_Platform\DrivePlatform.cydsn/servo_cds5500.c ****     */
  68:..\..\..\Drive_Platform\DrivePlatform.cydsn/servo_cds5500.c **** 
  69:..\..\..\Drive_Platform\DrivePlatform.cydsn/servo_cds5500.c **** }
 212              		.loc 1 69 0
ARM GAS  C:\Users\Martin\AppData\Local\Temp\ccjBrMSq.s 			page 6


 213 001e 07F10807 		add	r7, r7, #8
 214 0022 BD46     		mov	sp, r7
 215 0024 80BD     		pop	{r7, pc}
 216              		.cfi_endproc
 217              	.LFE31:
 218              		.size	ServoTest, .-ServoTest
 219 0026 00BF     		.section	.text.Ping,"ax",%progbits
 220              		.align	2
 221              		.global	Ping
 222              		.thumb
 223              		.thumb_func
 224              		.type	Ping, %function
 225              	Ping:
 226              	.LFB32:
  70:..\..\..\Drive_Platform\DrivePlatform.cydsn/servo_cds5500.c **** 
  71:..\..\..\Drive_Platform\DrivePlatform.cydsn/servo_cds5500.c **** 
  72:..\..\..\Drive_Platform\DrivePlatform.cydsn/servo_cds5500.c **** /**************************************************************************
  73:..\..\..\Drive_Platform\DrivePlatform.cydsn/servo_cds5500.c **** Does not command any operations. Used for requesting a status 
  74:..\..\..\Drive_Platform\DrivePlatform.cydsn/servo_cds5500.c **** packet or to check the existence of a CDS55xx servo with a specific 
  75:..\..\..\Drive_Platform\DrivePlatform.cydsn/servo_cds5500.c **** ID. 
  76:..\..\..\Drive_Platform\DrivePlatform.cydsn/servo_cds5500.c **** **************************************************************************/
  77:..\..\..\Drive_Platform\DrivePlatform.cydsn/servo_cds5500.c **** void Ping(uint8 motorId)
  78:..\..\..\Drive_Platform\DrivePlatform.cydsn/servo_cds5500.c **** {
 227              		.loc 1 78 0
 228              		.cfi_startproc
 229              		@ args = 0, pretend = 0, frame = 24
 230              		@ frame_needed = 1, uses_anonymous_args = 0
 231 0000 80B5     		push	{r7, lr}
 232              	.LCFI9:
 233              		.cfi_def_cfa_offset 8
 234 0002 86B0     		sub	sp, sp, #24
 235              	.LCFI10:
 236              		.cfi_def_cfa_offset 32
 237 0004 00AF     		add	r7, sp, #0
 238              		.cfi_offset 14, -4
 239              		.cfi_offset 7, -8
 240              	.LCFI11:
 241              		.cfi_def_cfa_register 7
 242 0006 0346     		mov	r3, r0
 243 0008 FB71     		strb	r3, [r7, #7]
  79:..\..\..\Drive_Platform\DrivePlatform.cydsn/servo_cds5500.c ****     STATUS status;
  80:..\..\..\Drive_Platform\DrivePlatform.cydsn/servo_cds5500.c **** 
  81:..\..\..\Drive_Platform\DrivePlatform.cydsn/servo_cds5500.c ****     CDS5500_MSG msg = { START_BYTE_0_VALUE, 
  82:..\..\..\Drive_Platform\DrivePlatform.cydsn/servo_cds5500.c ****                         START_BYTE_1_VALUE, 
  83:..\..\..\Drive_Platform\DrivePlatform.cydsn/servo_cds5500.c ****                         motorId,
  84:..\..\..\Drive_Platform\DrivePlatform.cydsn/servo_cds5500.c ****                         INST_PING_LENGTH,
  85:..\..\..\Drive_Platform\DrivePlatform.cydsn/servo_cds5500.c ****                         INST_PING,
  86:..\..\..\Drive_Platform\DrivePlatform.cydsn/servo_cds5500.c ****                         {0x00},
  87:..\..\..\Drive_Platform\DrivePlatform.cydsn/servo_cds5500.c ****                         0x00,
  88:..\..\..\Drive_Platform\DrivePlatform.cydsn/servo_cds5500.c ****                       };
 244              		.loc 1 88 0
 245 000a 07F10803 		add	r3, r7, #8
 246 000e 4FF00002 		mov	r2, #0
 247 0012 1A60     		str	r2, [r3, #0]
 248 0014 03F10403 		add	r3, r3, #4
 249 0018 4FF00002 		mov	r2, #0
 250 001c 1A60     		str	r2, [r3, #0]
ARM GAS  C:\Users\Martin\AppData\Local\Temp\ccjBrMSq.s 			page 7


 251 001e 03F10403 		add	r3, r3, #4
 252 0022 4FF00002 		mov	r2, #0
 253 0026 1A60     		str	r2, [r3, #0]
 254 0028 03F10403 		add	r3, r3, #4
 255 002c 4FF00002 		mov	r2, #0
 256 0030 1A80     		strh	r2, [r3, #0]	@ movhi
 257 0032 03F10203 		add	r3, r3, #2
 258 0036 4FF0FF33 		mov	r3, #-1
 259 003a 3B72     		strb	r3, [r7, #8]
 260 003c 4FF0FF33 		mov	r3, #-1
 261 0040 7B72     		strb	r3, [r7, #9]
 262 0042 FB79     		ldrb	r3, [r7, #7]
 263 0044 BB72     		strb	r3, [r7, #10]
 264 0046 4FF00103 		mov	r3, #1
 265 004a 3B73     		strb	r3, [r7, #12]
  89:..\..\..\Drive_Platform\DrivePlatform.cydsn/servo_cds5500.c **** 
  90:..\..\..\Drive_Platform\DrivePlatform.cydsn/servo_cds5500.c ****     
  91:..\..\..\Drive_Platform\DrivePlatform.cydsn/servo_cds5500.c ****     msg.checksum = Checksum(&msg);  
 266              		.loc 1 91 0
 267 004c 07F10803 		add	r3, r7, #8
 268 0050 1846     		mov	r0, r3
 269 0052 FFF7FEFF 		bl	Checksum
 270 0056 0346     		mov	r3, r0
 271 0058 7B75     		strb	r3, [r7, #21]
  92:..\..\..\Drive_Platform\DrivePlatform.cydsn/servo_cds5500.c ****                      
  93:..\..\..\Drive_Platform\DrivePlatform.cydsn/servo_cds5500.c ****     
  94:..\..\..\Drive_Platform\DrivePlatform.cydsn/servo_cds5500.c ****     /* 0xFF 0xFF 0x01 0x02 0x01 0xFB */                  
  95:..\..\..\Drive_Platform\DrivePlatform.cydsn/servo_cds5500.c ****     status = BAL_ServoMsg(&msg);
 272              		.loc 1 95 0
 273 005a 07F10803 		add	r3, r7, #8
 274 005e 1846     		mov	r0, r3
 275 0060 FFF7FEFF 		bl	BAL_ServoMsg
 276 0064 0346     		mov	r3, r0
 277 0066 FB75     		strb	r3, [r7, #23]
  96:..\..\..\Drive_Platform\DrivePlatform.cydsn/servo_cds5500.c ****     (void)status;
  97:..\..\..\Drive_Platform\DrivePlatform.cydsn/servo_cds5500.c **** }
 278              		.loc 1 97 0
 279 0068 07F11807 		add	r7, r7, #24
 280 006c BD46     		mov	sp, r7
 281 006e 80BD     		pop	{r7, pc}
 282              		.cfi_endproc
 283              	.LFE32:
 284              		.size	Ping, .-Ping
 285              		.section	.text.CheckResponse,"ax",%progbits
 286              		.align	2
 287              		.global	CheckResponse
 288              		.thumb
 289              		.thumb_func
 290              		.type	CheckResponse, %function
 291              	CheckResponse:
 292              	.LFB33:
  98:..\..\..\Drive_Platform\DrivePlatform.cydsn/servo_cds5500.c **** 
  99:..\..\..\Drive_Platform\DrivePlatform.cydsn/servo_cds5500.c **** /**************************************************************************
 100:..\..\..\Drive_Platform\DrivePlatform.cydsn/servo_cds5500.c **** CheckResponse
 101:..\..\..\Drive_Platform\DrivePlatform.cydsn/servo_cds5500.c **** //http://www.dfrobot.com/image/data/SER0026/CDS55XX_Robot_Servo_User_Manual_EN.pdf
 102:..\..\..\Drive_Platform\DrivePlatform.cydsn/servo_cds5500.c **** HEADER ID LENGTH ERROR PARAMETER CHECK SUM
 103:..\..\..\Drive_Platform\DrivePlatform.cydsn/servo_cds5500.c **** **************************************************************************/
ARM GAS  C:\Users\Martin\AppData\Local\Temp\ccjBrMSq.s 			page 8


 104:..\..\..\Drive_Platform\DrivePlatform.cydsn/servo_cds5500.c **** STATUS CheckResponse(CDS5500_MSG* response)
 105:..\..\..\Drive_Platform\DrivePlatform.cydsn/servo_cds5500.c **** {
 293              		.loc 1 105 0
 294              		.cfi_startproc
 295              		@ args = 0, pretend = 0, frame = 16
 296              		@ frame_needed = 1, uses_anonymous_args = 0
 297 0000 80B5     		push	{r7, lr}
 298              	.LCFI12:
 299              		.cfi_def_cfa_offset 8
 300 0002 84B0     		sub	sp, sp, #16
 301              	.LCFI13:
 302              		.cfi_def_cfa_offset 24
 303 0004 00AF     		add	r7, sp, #0
 304              		.cfi_offset 14, -4
 305              		.cfi_offset 7, -8
 306              	.LCFI14:
 307              		.cfi_def_cfa_register 7
 308 0006 7860     		str	r0, [r7, #4]
 106:..\..\..\Drive_Platform\DrivePlatform.cydsn/servo_cds5500.c ****     STATUS status=SUCCESS;
 309              		.loc 1 106 0
 310 0008 4FF00003 		mov	r3, #0
 311 000c 7B73     		strb	r3, [r7, #13]
 107:..\..\..\Drive_Platform\DrivePlatform.cydsn/servo_cds5500.c ****     uint8 msgCkecksum = response->checksum;
 312              		.loc 1 107 0
 313 000e 7B68     		ldr	r3, [r7, #4]
 314 0010 5B7B     		ldrb	r3, [r3, #13]
 315 0012 BB73     		strb	r3, [r7, #14]
 108:..\..\..\Drive_Platform\DrivePlatform.cydsn/servo_cds5500.c ****     uint8 calcChecksum = Checksum(response); 
 316              		.loc 1 108 0
 317 0014 7868     		ldr	r0, [r7, #4]
 318 0016 FFF7FEFF 		bl	Checksum
 319 001a 0346     		mov	r3, r0
 320 001c FB73     		strb	r3, [r7, #15]
 109:..\..\..\Drive_Platform\DrivePlatform.cydsn/servo_cds5500.c ****     
 110:..\..\..\Drive_Platform\DrivePlatform.cydsn/servo_cds5500.c ****     /* compare calculated with received checksum */
 111:..\..\..\Drive_Platform\DrivePlatform.cydsn/servo_cds5500.c ****     if (msgCkecksum != calcChecksum)
 321              		.loc 1 111 0
 322 001e BA7B     		ldrb	r2, [r7, #14]	@ zero_extendqisi2
 323 0020 FB7B     		ldrb	r3, [r7, #15]	@ zero_extendqisi2
 324 0022 9A42     		cmp	r2, r3
 325 0024 02D0     		beq	.L13
 112:..\..\..\Drive_Platform\DrivePlatform.cydsn/servo_cds5500.c ****         return ERROR_RECEIVED_CHECKSUM;
 326              		.loc 1 112 0
 327 0026 4FF0FE03 		mov	r3, #254
 328 002a 09E0     		b	.L14
 329              	.L13:
 113:..\..\..\Drive_Platform\DrivePlatform.cydsn/servo_cds5500.c ****     
 114:..\..\..\Drive_Platform\DrivePlatform.cydsn/servo_cds5500.c ****     /* check if error bits are set */
 115:..\..\..\Drive_Platform\DrivePlatform.cydsn/servo_cds5500.c ****     if (response->instrParams[0] & CDS5500_ERROR_INSTRUCTION_BIT) 
 330              		.loc 1 115 0
 331 002c 7B68     		ldr	r3, [r7, #4]
 332 002e 5B79     		ldrb	r3, [r3, #5]	@ zero_extendqisi2
 333 0030 03F04003 		and	r3, r3, #64
 334 0034 002B     		cmp	r3, #0
 335 0036 02D0     		beq	.L15
 116:..\..\..\Drive_Platform\DrivePlatform.cydsn/servo_cds5500.c ****         status = ERROR_INSTRUCTION;
 336              		.loc 1 116 0
ARM GAS  C:\Users\Martin\AppData\Local\Temp\ccjBrMSq.s 			page 9


 337 0038 4FF0FF33 		mov	r3, #-1
 338 003c 7B73     		strb	r3, [r7, #13]
 339              	.L15:
 117:..\..\..\Drive_Platform\DrivePlatform.cydsn/servo_cds5500.c ****         
 118:..\..\..\Drive_Platform\DrivePlatform.cydsn/servo_cds5500.c ****     return status;
 340              		.loc 1 118 0
 341 003e 7B7B     		ldrb	r3, [r7, #13]	@ zero_extendqisi2
 342              	.L14:
 119:..\..\..\Drive_Platform\DrivePlatform.cydsn/servo_cds5500.c **** }
 343              		.loc 1 119 0
 344 0040 1846     		mov	r0, r3
 345 0042 07F11007 		add	r7, r7, #16
 346 0046 BD46     		mov	sp, r7
 347 0048 80BD     		pop	{r7, pc}
 348              		.cfi_endproc
 349              	.LFE33:
 350              		.size	CheckResponse, .-CheckResponse
 351 004a 00BF     		.section	.text.WritePos,"ax",%progbits
 352              		.align	2
 353              		.global	WritePos
 354              		.thumb
 355              		.thumb_func
 356              		.type	WritePos, %function
 357              	WritePos:
 358              	.LFB34:
 120:..\..\..\Drive_Platform\DrivePlatform.cydsn/servo_cds5500.c **** 
 121:..\..\..\Drive_Platform\DrivePlatform.cydsn/servo_cds5500.c **** /**************************************************************************
 122:..\..\..\Drive_Platform\DrivePlatform.cydsn/servo_cds5500.c **** **************************************************************************/
 123:..\..\..\Drive_Platform\DrivePlatform.cydsn/servo_cds5500.c **** void WritePos(int id, int position, int velocity)
 124:..\..\..\Drive_Platform\DrivePlatform.cydsn/servo_cds5500.c **** {
 359              		.loc 1 124 0
 360              		.cfi_startproc
 361              		@ args = 0, pretend = 0, frame = 24
 362              		@ frame_needed = 1, uses_anonymous_args = 0
 363              		@ link register save eliminated.
 364 0000 80B4     		push	{r7}
 365              	.LCFI15:
 366              		.cfi_def_cfa_offset 4
 367 0002 87B0     		sub	sp, sp, #28
 368              	.LCFI16:
 369              		.cfi_def_cfa_offset 32
 370 0004 00AF     		add	r7, sp, #0
 371              		.cfi_offset 7, -4
 372              	.LCFI17:
 373              		.cfi_def_cfa_register 7
 374 0006 F860     		str	r0, [r7, #12]
 375 0008 B960     		str	r1, [r7, #8]
 376 000a 7A60     		str	r2, [r7, #4]
 125:..\..\..\Drive_Platform\DrivePlatform.cydsn/servo_cds5500.c **** 	int messageLength = 7;
 377              		.loc 1 125 0
 378 000c 4FF00703 		mov	r3, #7
 379 0010 7B61     		str	r3, [r7, #20]
 126:..\..\..\Drive_Platform\DrivePlatform.cydsn/servo_cds5500.c ****     (void)messageLength;
 127:..\..\..\Drive_Platform\DrivePlatform.cydsn/servo_cds5500.c **** 
 128:..\..\..\Drive_Platform\DrivePlatform.cydsn/servo_cds5500.c **** 	/*
 129:..\..\..\Drive_Platform\DrivePlatform.cydsn/servo_cds5500.c **** 	printf(startByte0);              // send some data
 130:..\..\..\Drive_Platform\DrivePlatform.cydsn/servo_cds5500.c **** 	printf(startByte1);
ARM GAS  C:\Users\Martin\AppData\Local\Temp\ccjBrMSq.s 			page 10


 131:..\..\..\Drive_Platform\DrivePlatform.cydsn/servo_cds5500.c **** 	printf(id);
 132:..\..\..\Drive_Platform\DrivePlatform.cydsn/servo_cds5500.c **** 	printf(messageLength);
 133:..\..\..\Drive_Platform\DrivePlatform.cydsn/servo_cds5500.c **** 	printf(INST_WRITE);
 134:..\..\..\Drive_Platform\DrivePlatform.cydsn/servo_cds5500.c **** 	printf(P_GOAL_POSITION_L);
 135:..\..\..\Drive_Platform\DrivePlatform.cydsn/servo_cds5500.c **** 	printf(pos);
 136:..\..\..\Drive_Platform\DrivePlatform.cydsn/servo_cds5500.c **** 	printf(pos2);
 137:..\..\..\Drive_Platform\DrivePlatform.cydsn/servo_cds5500.c **** 	printf(vel);
 138:..\..\..\Drive_Platform\DrivePlatform.cydsn/servo_cds5500.c **** 	printf(vel2);
 139:..\..\..\Drive_Platform\DrivePlatform.cydsn/servo_cds5500.c **** 	printf((~(ID + (messageLength) + INST_WRITE + P_GOAL_POSITION_L + pos + pos2 + vel + vel2))&0xFF);
 140:..\..\..\Drive_Platform\DrivePlatform.cydsn/servo_cds5500.c **** 	*/
 141:..\..\..\Drive_Platform\DrivePlatform.cydsn/servo_cds5500.c **** }
 380              		.loc 1 141 0
 381 0012 07F11C07 		add	r7, r7, #28
 382 0016 BD46     		mov	sp, r7
 383 0018 80BC     		pop	{r7}
 384 001a 7047     		bx	lr
 385              		.cfi_endproc
 386              	.LFE34:
 387              		.size	WritePos, .-WritePos
 388              		.text
 389              	.Letext0: