ARM GAS  C:\Users\Martin\AppData\Local\Temp\ccPYK8zP.s 			page 1


   1              		.syntax unified
   2              		.cpu cortex-m3
   3              		.fpu softvfp
   4              		.eabi_attribute 20, 1
   5              		.eabi_attribute 21, 1
   6              		.eabi_attribute 23, 3
   7              		.eabi_attribute 24, 1
   8              		.eabi_attribute 25, 1
   9              		.eabi_attribute 26, 1
  10              		.eabi_attribute 30, 6
  11              		.eabi_attribute 18, 4
  12              		.thumb
  13              		.file	"test.c"
  20 0000 FF000000 		.text
  20      0200BE00 
  20      00000201 
  20      FB0E0D00 
  20      01010101 
  21              	.Ltext0:
  22              		.cfi_sections	.debug_frame
  23              		.bss
  24              		.align	2
  25              	TST_MsgBuffer:
  26 0000 00000000 		.space	32
  26      00000000 
  26      00000000 
  26      00000000 
  26      00000000 
  27              		.data
  28              		.align	2
  29              		.type	TST_AckOkMsgBuffer, %object
  30              		.size	TST_AckOkMsgBuffer, 4
  31              	TST_AckOkMsgBuffer:
  32 0000 00       		.byte	0
  33 0001 01       		.byte	1
  34 0002 01       		.byte	1
  35 0003 01       		.byte	1
  36              		.section	.text.TST_Blink,"ax",%progbits
  37              		.align	2
  38              		.thumb
  39              		.thumb_func
  40              		.type	TST_Blink, %function
  41              	TST_Blink:
  42              	.LFB29:
  43              		.file 1 "..\\..\\..\\Drive_Platform\\DrivePlatform.cydsn\\test.c"
   1:..\..\..\Drive_Platform\DrivePlatform.cydsn/test.c **** /* Copyright (C) <2014> <Martin Schalk>
   2:..\..\..\Drive_Platform\DrivePlatform.cydsn/test.c ****  * All rights reserved.
   3:..\..\..\Drive_Platform\DrivePlatform.cydsn/test.c ****  *
   4:..\..\..\Drive_Platform\DrivePlatform.cydsn/test.c ****  * This software may be modified and distributed under the terms
   5:..\..\..\Drive_Platform\DrivePlatform.cydsn/test.c ****  * of the BSD license.  See the LICENSE file for details.
   6:..\..\..\Drive_Platform\DrivePlatform.cydsn/test.c ****  */
ARM GAS  C:\Users\Martin\AppData\Local\Temp\ccPYK8zP.s 			page 2


   7:..\..\..\Drive_Platform\DrivePlatform.cydsn/test.c **** 
   8:..\..\..\Drive_Platform\DrivePlatform.cydsn/test.c **** #include "global.h"
   9:..\..\..\Drive_Platform\DrivePlatform.cydsn/test.c **** #include "types.h"
  10:..\..\..\Drive_Platform\DrivePlatform.cydsn/test.c **** #include "test.h"
  11:..\..\..\Drive_Platform\DrivePlatform.cydsn/test.c **** #include "tmr.h"
  12:..\..\..\Drive_Platform\DrivePlatform.cydsn/test.c **** #include "hal.h"
  13:..\..\..\Drive_Platform\DrivePlatform.cydsn/test.c **** #include "bal.h"
  14:..\..\..\Drive_Platform\DrivePlatform.cydsn/test.c **** #include "ring_buffer.h"
  15:..\..\..\Drive_Platform\DrivePlatform.cydsn/test.c **** 
  16:..\..\..\Drive_Platform\DrivePlatform.cydsn/test.c **** #define TST_MSG_BUFFER_SIZE     32
  17:..\..\..\Drive_Platform\DrivePlatform.cydsn/test.c **** #define TST_MSG_ZERO_COUNT      5
  18:..\..\..\Drive_Platform\DrivePlatform.cydsn/test.c **** 
  19:..\..\..\Drive_Platform\DrivePlatform.cydsn/test.c **** 
  20:..\..\..\Drive_Platform\DrivePlatform.cydsn/test.c **** //static TEST_FUNC TST_FuncPtr = NULL;
  21:..\..\..\Drive_Platform\DrivePlatform.cydsn/test.c **** 
  22:..\..\..\Drive_Platform\DrivePlatform.cydsn/test.c **** 
  23:..\..\..\Drive_Platform\DrivePlatform.cydsn/test.c **** //static uchar    TST_TestCase;
  24:..\..\..\Drive_Platform\DrivePlatform.cydsn/test.c **** //static BOOL     TST_IsInitialized = FALSE;
  25:..\..\..\Drive_Platform\DrivePlatform.cydsn/test.c **** static uint8 TST_MsgBuffer[TST_MSG_BUFFER_SIZE];
  26:..\..\..\Drive_Platform\DrivePlatform.cydsn/test.c **** 
  27:..\..\..\Drive_Platform\DrivePlatform.cydsn/test.c **** static uint8 TST_AckOkMsgBuffer[] = {   (uint8)(BAL_MSG_ID_ACK << 8), 
  28:..\..\..\Drive_Platform\DrivePlatform.cydsn/test.c ****                             (uint8)(BAL_MSG_ID_ACK),
  29:..\..\..\Drive_Platform\DrivePlatform.cydsn/test.c ****                             BAL_MSG_LENGTH_ACK, 
  30:..\..\..\Drive_Platform\DrivePlatform.cydsn/test.c ****                             BAL_ACK_OK
  31:..\..\..\Drive_Platform\DrivePlatform.cydsn/test.c ****                         };
  32:..\..\..\Drive_Platform\DrivePlatform.cydsn/test.c **** /*
  33:..\..\..\Drive_Platform\DrivePlatform.cydsn/test.c **** -------------------------------------------
  34:..\..\..\Drive_Platform\DrivePlatform.cydsn/test.c **** | id0 | id1 | length | b0 | b1 | ... | bn |
  35:..\..\..\Drive_Platform\DrivePlatform.cydsn/test.c **** -------------------------------------------
  36:..\..\..\Drive_Platform\DrivePlatform.cydsn/test.c **** */
  37:..\..\..\Drive_Platform\DrivePlatform.cydsn/test.c **** /*******************************************************/
  38:..\..\..\Drive_Platform\DrivePlatform.cydsn/test.c **** /*
  39:..\..\..\Drive_Platform\DrivePlatform.cydsn/test.c **** static void TST_SendTestMsg(void)
  40:..\..\..\Drive_Platform\DrivePlatform.cydsn/test.c **** {
  41:..\..\..\Drive_Platform\DrivePlatform.cydsn/test.c **** //#define UART_TEST_MSG
  42:..\..\..\Drive_Platform\DrivePlatform.cydsn/test.c **** //#define BAL_TEST_MSG
  43:..\..\..\Drive_Platform\DrivePlatform.cydsn/test.c **** 
  44:..\..\..\Drive_Platform\DrivePlatform.cydsn/test.c **** #if defined(UART_TEST_MSG)
  45:..\..\..\Drive_Platform\DrivePlatform.cydsn/test.c ****     static uint8 TestMsg[] = {0xFF, 0x01, 5, 2, 3, 0, 4, 5};
  46:..\..\..\Drive_Platform\DrivePlatform.cydsn/test.c ****     
  47:..\..\..\Drive_Platform\DrivePlatform.cydsn/test.c ****     UART_TEST_PutArray(TestMsg, sizeof(TestMsg));
  48:..\..\..\Drive_Platform\DrivePlatform.cydsn/test.c **** #elif defined(BAL_TEST_MSG)
  49:..\..\..\Drive_Platform\DrivePlatform.cydsn/test.c ****     STATUS status; 
  50:..\..\..\Drive_Platform\DrivePlatform.cydsn/test.c ****     uint8 msgdata[4] = {1, 2, 3, 4};
  51:..\..\..\Drive_Platform\DrivePlatform.cydsn/test.c ****     
  52:..\..\..\Drive_Platform\DrivePlatform.cydsn/test.c ****     BAL_MSG testmsg = {0x0001, 4, msgdata};
  53:..\..\..\Drive_Platform\DrivePlatform.cydsn/test.c ****     status = BAL_SendMsg(&testmsg);
  54:..\..\..\Drive_Platform\DrivePlatform.cydsn/test.c ****     (void)status;
  55:..\..\..\Drive_Platform\DrivePlatform.cydsn/test.c **** #endif
  56:..\..\..\Drive_Platform\DrivePlatform.cydsn/test.c **** }
  57:..\..\..\Drive_Platform\DrivePlatform.cydsn/test.c **** */
  58:..\..\..\Drive_Platform\DrivePlatform.cydsn/test.c **** 
  59:..\..\..\Drive_Platform\DrivePlatform.cydsn/test.c **** /*******************************************************/
  60:..\..\..\Drive_Platform\DrivePlatform.cydsn/test.c **** /*
  61:..\..\..\Drive_Platform\DrivePlatform.cydsn/test.c **** static void TST_GetMsg(void)
  62:..\..\..\Drive_Platform\DrivePlatform.cydsn/test.c **** {
  63:..\..\..\Drive_Platform\DrivePlatform.cydsn/test.c ****     uint8 i=0;
ARM GAS  C:\Users\Martin\AppData\Local\Temp\ccPYK8zP.s 			page 3


  64:..\..\..\Drive_Platform\DrivePlatform.cydsn/test.c ****     STATUS status;
  65:..\..\..\Drive_Platform\DrivePlatform.cydsn/test.c ****     BOOL motorMsg=FALSE;
  66:..\..\..\Drive_Platform\DrivePlatform.cydsn/test.c ****     
  67:..\..\..\Drive_Platform\DrivePlatform.cydsn/test.c ****     // disable rx interrupt during data processing
  68:..\..\..\Drive_Platform\DrivePlatform.cydsn/test.c ****     UART_TEST_DisableRxInt();
  69:..\..\..\Drive_Platform\DrivePlatform.cydsn/test.c ****     
  70:..\..\..\Drive_Platform\DrivePlatform.cydsn/test.c ****     status = UART_TEST_ReadRxStatus();
  71:..\..\..\Drive_Platform\DrivePlatform.cydsn/test.c ****     
  72:..\..\..\Drive_Platform\DrivePlatform.cydsn/test.c ****     // if buffer full, parse for 0xff 0xff (only for testing)
  73:..\..\..\Drive_Platform\DrivePlatform.cydsn/test.c ****     if ((status == UART_RX_STS_OVERRUN) || (status == UART_RX_STS_SOFT_BUFF_OVER))
  74:..\..\..\Drive_Platform\DrivePlatform.cydsn/test.c ****     {
  75:..\..\..\Drive_Platform\DrivePlatform.cydsn/test.c ****         while (UART_TEST_GetRxBufferSize() > 0)
  76:..\..\..\Drive_Platform\DrivePlatform.cydsn/test.c ****         {
  77:..\..\..\Drive_Platform\DrivePlatform.cydsn/test.c ****             TST_MsgBuffer[i] = UART_TEST_ReadRxData();
  78:..\..\..\Drive_Platform\DrivePlatform.cydsn/test.c ****             if ((TST_MsgBuffer[i] == 0xFF) && (i>0) && (TST_MsgBuffer[i-1] == 0xFF))
  79:..\..\..\Drive_Platform\DrivePlatform.cydsn/test.c ****                 motorMsg = TRUE;
  80:..\..\..\Drive_Platform\DrivePlatform.cydsn/test.c ****             i++;
  81:..\..\..\Drive_Platform\DrivePlatform.cydsn/test.c ****         }
  82:..\..\..\Drive_Platform\DrivePlatform.cydsn/test.c ****     }
  83:..\..\..\Drive_Platform\DrivePlatform.cydsn/test.c ****         
  84:..\..\..\Drive_Platform\DrivePlatform.cydsn/test.c ****     // enable rx interrupt during data processing
  85:..\..\..\Drive_Platform\DrivePlatform.cydsn/test.c ****     UART_TEST_EnableRxInt();  
  86:..\..\..\Drive_Platform\DrivePlatform.cydsn/test.c ****     
  87:..\..\..\Drive_Platform\DrivePlatform.cydsn/test.c **** 
  88:..\..\..\Drive_Platform\DrivePlatform.cydsn/test.c ****     // check if message id is registered and acknowledge
  89:..\..\..\Drive_Platform\DrivePlatform.cydsn/test.c ****     if (motorMsg == TRUE)
  90:..\..\..\Drive_Platform\DrivePlatform.cydsn/test.c ****     {
  91:..\..\..\Drive_Platform\DrivePlatform.cydsn/test.c ****         UART_TEST_PutArray(TST_AckOkMsgBuffer, sizeof(TST_AckOkMsgBuffer));
  92:..\..\..\Drive_Platform\DrivePlatform.cydsn/test.c ****     }
  93:..\..\..\Drive_Platform\DrivePlatform.cydsn/test.c **** }
  94:..\..\..\Drive_Platform\DrivePlatform.cydsn/test.c **** */
  95:..\..\..\Drive_Platform\DrivePlatform.cydsn/test.c **** 
  96:..\..\..\Drive_Platform\DrivePlatform.cydsn/test.c **** /*******************************************************/
  97:..\..\..\Drive_Platform\DrivePlatform.cydsn/test.c **** static void TST_Blink(void)
  98:..\..\..\Drive_Platform\DrivePlatform.cydsn/test.c **** {
  44              		.loc 1 98 0
  45              		.cfi_startproc
  46              		@ args = 0, pretend = 0, frame = 0
  47              		@ frame_needed = 1, uses_anonymous_args = 0
  48 0000 80B5     		push	{r7, lr}
  49              	.LCFI0:
  50              		.cfi_def_cfa_offset 8
  51 0002 00AF     		add	r7, sp, #0
  52              		.cfi_offset 14, -4
  53              		.cfi_offset 7, -8
  54              	.LCFI1:
  55              		.cfi_def_cfa_register 7
  99:..\..\..\Drive_Platform\DrivePlatform.cydsn/test.c ****     static uint8 LedVal=0x00;
 100:..\..\..\Drive_Platform\DrivePlatform.cydsn/test.c **** 	LedVal ^= 0x01;
  56              		.loc 1 100 0
  57 0004 40F20003 		movw	r3, #:lower16:LedVal.2868
  58 0008 C0F20003 		movt	r3, #:upper16:LedVal.2868
  59 000c 1B78     		ldrb	r3, [r3, #0]	@ zero_extendqisi2
  60 000e 83F00103 		eor	r3, r3, #1
  61 0012 DAB2     		uxtb	r2, r3
  62 0014 40F20003 		movw	r3, #:lower16:LedVal.2868
  63 0018 C0F20003 		movt	r3, #:upper16:LedVal.2868
ARM GAS  C:\Users\Martin\AppData\Local\Temp\ccPYK8zP.s 			page 4


  64 001c 1A70     		strb	r2, [r3, #0]
 101:..\..\..\Drive_Platform\DrivePlatform.cydsn/test.c **** 	DEBUG_LED_1_Write(LedVal);
  65              		.loc 1 101 0
  66 001e 40F20003 		movw	r3, #:lower16:LedVal.2868
  67 0022 C0F20003 		movt	r3, #:upper16:LedVal.2868
  68 0026 1B78     		ldrb	r3, [r3, #0]	@ zero_extendqisi2
  69 0028 1846     		mov	r0, r3
  70 002a FFF7FEFF 		bl	DEBUG_LED_1_Write
 102:..\..\..\Drive_Platform\DrivePlatform.cydsn/test.c **** }
  71              		.loc 1 102 0
  72 002e 80BD     		pop	{r7, pc}
  73              		.cfi_endproc
  74              	.LFE29:
  75              		.size	TST_Blink, .-TST_Blink
  76              		.section	.text.TST_Init,"ax",%progbits
  77              		.align	2
  78              		.global	TST_Init
  79              		.thumb
  80              		.thumb_func
  81              		.type	TST_Init, %function
  82              	TST_Init:
  83              	.LFB30:
 103:..\..\..\Drive_Platform\DrivePlatform.cydsn/test.c **** 
 104:..\..\..\Drive_Platform\DrivePlatform.cydsn/test.c **** /*******************************************************/
 105:..\..\..\Drive_Platform\DrivePlatform.cydsn/test.c **** /*
 106:..\..\..\Drive_Platform\DrivePlatform.cydsn/test.c **** static void TST_SendMotorMsg(void)
 107:..\..\..\Drive_Platform\DrivePlatform.cydsn/test.c **** {
 108:..\..\..\Drive_Platform\DrivePlatform.cydsn/test.c ****     STATUS status; 
 109:..\..\..\Drive_Platform\DrivePlatform.cydsn/test.c **** 
 110:..\..\..\Drive_Platform\DrivePlatform.cydsn/test.c ****     Ping(0x01);
 111:..\..\..\Drive_Platform\DrivePlatform.cydsn/test.c ****     
 112:..\..\..\Drive_Platform\DrivePlatform.cydsn/test.c ****     (void)status;
 113:..\..\..\Drive_Platform\DrivePlatform.cydsn/test.c **** }
 114:..\..\..\Drive_Platform\DrivePlatform.cydsn/test.c **** */
 115:..\..\..\Drive_Platform\DrivePlatform.cydsn/test.c **** 
 116:..\..\..\Drive_Platform\DrivePlatform.cydsn/test.c **** /*******************************************************/
 117:..\..\..\Drive_Platform\DrivePlatform.cydsn/test.c **** /*
 118:..\..\..\Drive_Platform\DrivePlatform.cydsn/test.c **** void TST_SetModuleTest(TEST_FUNC* testFunction)
 119:..\..\..\Drive_Platform\DrivePlatform.cydsn/test.c **** {
 120:..\..\..\Drive_Platform\DrivePlatform.cydsn/test.c ****     TST_FuncPtr = testFunction;
 121:..\..\..\Drive_Platform\DrivePlatform.cydsn/test.c ****     //TMR_SetTimer(TIMER_4, TIMER_1SEC, TST_FuncPtr, TIMER_MODE_CONTINUOUS, TIMER_ENABLED);
 122:..\..\..\Drive_Platform\DrivePlatform.cydsn/test.c **** }
 123:..\..\..\Drive_Platform\DrivePlatform.cydsn/test.c **** */
 124:..\..\..\Drive_Platform\DrivePlatform.cydsn/test.c **** 
 125:..\..\..\Drive_Platform\DrivePlatform.cydsn/test.c **** /*******************************************************/
 126:..\..\..\Drive_Platform\DrivePlatform.cydsn/test.c **** STATUS TST_Init(void)
 127:..\..\..\Drive_Platform\DrivePlatform.cydsn/test.c **** {
  84              		.loc 1 127 0
  85              		.cfi_startproc
  86              		@ args = 0, pretend = 0, frame = 0
  87              		@ frame_needed = 1, uses_anonymous_args = 0
  88 0000 80B5     		push	{r7, lr}
  89              	.LCFI2:
  90              		.cfi_def_cfa_offset 8
  91 0002 82B0     		sub	sp, sp, #8
  92              	.LCFI3:
  93              		.cfi_def_cfa_offset 16
ARM GAS  C:\Users\Martin\AppData\Local\Temp\ccPYK8zP.s 			page 5


  94 0004 02AF     		add	r7, sp, #8
  95              		.cfi_offset 14, -4
  96              		.cfi_offset 7, -8
  97              	.LCFI4:
  98              		.cfi_def_cfa 7, 8
 128:..\..\..\Drive_Platform\DrivePlatform.cydsn/test.c ****     /* clear test msg buffer */
 129:..\..\..\Drive_Platform\DrivePlatform.cydsn/test.c ****     //memset(TST_MsgBuffer, 0x00, TST_MSG_BUFFER_SIZE);   
 130:..\..\..\Drive_Platform\DrivePlatform.cydsn/test.c **** 
 131:..\..\..\Drive_Platform\DrivePlatform.cydsn/test.c **** #ifdef TEST_BLINK
 132:..\..\..\Drive_Platform\DrivePlatform.cydsn/test.c **** 	TMR_SetTimer(TIMER_0, TIMER_1SEC, TST_Blink, TIMER_MODE_CONTINUOUS, TIMER_ENABLED);
  99              		.loc 1 132 0
 100 0006 4FF00103 		mov	r3, #1
 101 000a 0093     		str	r3, [sp, #0]
 102 000c 4FF00000 		mov	r0, #0
 103 0010 44F24021 		movw	r1, #:lower16:1000000
 104 0014 C0F20F01 		movt	r1, #:upper16:1000000
 105 0018 40F20002 		movw	r2, #:lower16:TST_Blink
 106 001c C0F20002 		movt	r2, #:upper16:TST_Blink
 107 0020 4FF00203 		mov	r3, #2
 108 0024 FFF7FEFF 		bl	TMR_SetTimer
 133:..\..\..\Drive_Platform\DrivePlatform.cydsn/test.c **** #endif	
 134:..\..\..\Drive_Platform\DrivePlatform.cydsn/test.c **** 
 135:..\..\..\Drive_Platform\DrivePlatform.cydsn/test.c ****     return SUCCESS;
 109              		.loc 1 135 0
 110 0028 4FF00003 		mov	r3, #0
 136:..\..\..\Drive_Platform\DrivePlatform.cydsn/test.c **** }
 111              		.loc 1 136 0
 112 002c 1846     		mov	r0, r3
 113 002e BD46     		mov	sp, r7
 114 0030 80BD     		pop	{r7, pc}
 115              		.cfi_endproc
 116              	.LFE30:
 117              		.size	TST_Init, .-TST_Init
 118 0032 00BF     		.section	.text.TST_HandleTask,"ax",%progbits
 119              		.align	2
 120              		.global	TST_HandleTask
 121              		.thumb
 122              		.thumb_func
 123              		.type	TST_HandleTask, %function
 124              	TST_HandleTask:
 125              	.LFB31:
 137:..\..\..\Drive_Platform\DrivePlatform.cydsn/test.c **** 
 138:..\..\..\Drive_Platform\DrivePlatform.cydsn/test.c **** /*******************************************************/
 139:..\..\..\Drive_Platform\DrivePlatform.cydsn/test.c **** STATUS TST_HandleTask(void)
 140:..\..\..\Drive_Platform\DrivePlatform.cydsn/test.c **** {
 126              		.loc 1 140 0
 127              		.cfi_startproc
 128              		@ args = 0, pretend = 0, frame = 8
 129              		@ frame_needed = 1, uses_anonymous_args = 0
 130 0000 80B5     		push	{r7, lr}
 131              	.LCFI5:
 132              		.cfi_def_cfa_offset 8
 133 0002 82B0     		sub	sp, sp, #8
 134              	.LCFI6:
 135              		.cfi_def_cfa_offset 16
 136 0004 00AF     		add	r7, sp, #0
 137              		.cfi_offset 14, -4
ARM GAS  C:\Users\Martin\AppData\Local\Temp\ccPYK8zP.s 			page 6


 138              		.cfi_offset 7, -8
 139              	.LCFI7:
 140              		.cfi_def_cfa_register 7
 141:..\..\..\Drive_Platform\DrivePlatform.cydsn/test.c ****     STATUS status = SUCCESS;
 141              		.loc 1 141 0
 142 0006 4FF00003 		mov	r3, #0
 143 000a FB71     		strb	r3, [r7, #7]
 142:..\..\..\Drive_Platform\DrivePlatform.cydsn/test.c ****     
 143:..\..\..\Drive_Platform\DrivePlatform.cydsn/test.c **** #ifdef RBF_MODULE_TEST
 144:..\..\..\Drive_Platform\DrivePlatform.cydsn/test.c ****     status = RBF_ucTest();
 144              		.loc 1 144 0
 145 000c FFF7FEFF 		bl	RBF_ucTest
 146 0010 0346     		mov	r3, r0
 147 0012 FB71     		strb	r3, [r7, #7]
 145:..\..\..\Drive_Platform\DrivePlatform.cydsn/test.c **** #endif
 146:..\..\..\Drive_Platform\DrivePlatform.cydsn/test.c ****     
 147:..\..\..\Drive_Platform\DrivePlatform.cydsn/test.c ****     return status;
 148              		.loc 1 147 0
 149 0014 FB79     		ldrb	r3, [r7, #7]	@ zero_extendqisi2
 148:..\..\..\Drive_Platform\DrivePlatform.cydsn/test.c **** }
 150              		.loc 1 148 0
 151 0016 1846     		mov	r0, r3
 152 0018 07F10807 		add	r7, r7, #8
 153 001c BD46     		mov	sp, r7
 154 001e 80BD     		pop	{r7, pc}
 155              		.cfi_endproc
 156              	.LFE31:
 157              		.size	TST_HandleTask, .-TST_HandleTask
 158              		.bss
 159              	LedVal.2868:
 160 0020 00       		.space	1
 161 0021 000000   		.text
 162              	.Letext0: