ARM GAS  C:\Users\Martin\AppData\Local\Temp\cc8fNUTZ.s 			page 1


   1              		.syntax unified
   2              		.cpu cortex-m3
   3              		.fpu softvfp
   4              		.eabi_attribute 20, 1
   5              		.eabi_attribute 21, 1
   6              		.eabi_attribute 23, 3
   7              		.eabi_attribute 24, 1
   8              		.eabi_attribute 25, 1
   9              		.eabi_attribute 26, 1
  10              		.eabi_attribute 30, 6
  11              		.eabi_attribute 18, 4
  12              		.thumb
  13              		.file	"tmr.c"
  20 0000 FB010000 		.text
  20      02006301 
  20      00000201 
  20      FB0E0D00 
  20      01010101 
  21              	.Ltext0:
  22              		.cfi_sections	.debug_frame
  23              		.bss
  24              	TimerOverrun:
  25 0000 00       		.space	1
  26              		.data
  27              		.type	IsFirstExecution, %object
  28              		.size	IsFirstExecution, 1
  29              	IsFirstExecution:
  30 0000 01       		.byte	1
  31              		.bss
  32 0001 000000   		.align	2
  33              	Timer:
  34 0004 00000000 		.space	160
  34      00000000 
  34      00000000 
  34      00000000 
  34      00000000 
  35              		.align	2
  36              	NewTime:
  37 00a4 00000000 		.space	4
  38              		.align	2
  39              	OldTime:
  40 00a8 00000000 		.space	4
  41              		.section	.text.isr_timer_routine,"ax",%progbits
  42              		.align	2
  43              		.global	isr_timer_routine
  44              		.thumb
  45              		.thumb_func
  46              		.type	isr_timer_routine, %function
  47              	isr_timer_routine:
  48              	.LFB29:
  49              		.file 1 "..\\..\\..\\Drive_Platform\\DrivePlatform.cydsn\\tmr.c"
ARM GAS  C:\Users\Martin\AppData\Local\Temp\cc8fNUTZ.s 			page 2


   1:..\..\..\Drive_Platform\DrivePlatform.cydsn/tmr.c **** /* Copyright (C) <2014> <Martin Schalk>
   2:..\..\..\Drive_Platform\DrivePlatform.cydsn/tmr.c ****  * All rights reserved.
   3:..\..\..\Drive_Platform\DrivePlatform.cydsn/tmr.c ****  *
   4:..\..\..\Drive_Platform\DrivePlatform.cydsn/tmr.c ****  * This software may be modified and distributed under the terms
   5:..\..\..\Drive_Platform\DrivePlatform.cydsn/tmr.c ****  * of the BSD license.  See the LICENSE file for details.
   6:..\..\..\Drive_Platform\DrivePlatform.cydsn/tmr.c ****  */
   7:..\..\..\Drive_Platform\DrivePlatform.cydsn/tmr.c **** 
   8:..\..\..\Drive_Platform\DrivePlatform.cydsn/tmr.c **** 
   9:..\..\..\Drive_Platform\DrivePlatform.cydsn/tmr.c **** #include <project.h>
  10:..\..\..\Drive_Platform\DrivePlatform.cydsn/tmr.c **** #include "types.h"
  11:..\..\..\Drive_Platform\DrivePlatform.cydsn/tmr.c **** #include "timer.h"
  12:..\..\..\Drive_Platform\DrivePlatform.cydsn/tmr.c **** #include "tmr.h"
  13:..\..\..\Drive_Platform\DrivePlatform.cydsn/tmr.c **** #include "error.h"
  14:..\..\..\Drive_Platform\DrivePlatform.cydsn/tmr.c **** #include "global.h"
  15:..\..\..\Drive_Platform\DrivePlatform.cydsn/tmr.c **** 
  16:..\..\..\Drive_Platform\DrivePlatform.cydsn/tmr.c **** static BOOL 	TimerOverrun = FALSE;
  17:..\..\..\Drive_Platform\DrivePlatform.cydsn/tmr.c **** static BOOL     IsFirstExecution = TRUE;
  18:..\..\..\Drive_Platform\DrivePlatform.cydsn/tmr.c **** static TIMER 	Timer[MAX_TIMERS];
  19:..\..\..\Drive_Platform\DrivePlatform.cydsn/tmr.c **** static uint32	NewTime, OldTime;
  20:..\..\..\Drive_Platform\DrivePlatform.cydsn/tmr.c **** 
  21:..\..\..\Drive_Platform\DrivePlatform.cydsn/tmr.c **** 
  22:..\..\..\Drive_Platform\DrivePlatform.cydsn/tmr.c **** /*******************************************************/
  23:..\..\..\Drive_Platform\DrivePlatform.cydsn/tmr.c **** CY_ISR(isr_timer_routine)
  24:..\..\..\Drive_Platform\DrivePlatform.cydsn/tmr.c **** {
  50              		.loc 1 24 0
  51              		.cfi_startproc
  52              		@ args = 0, pretend = 0, frame = 0
  53              		@ frame_needed = 1, uses_anonymous_args = 0
  54              		@ link register save eliminated.
  55 0000 80B4     		push	{r7}
  56              	.LCFI0:
  57              		.cfi_def_cfa_offset 4
  58 0002 00AF     		add	r7, sp, #0
  59              		.cfi_offset 7, -4
  60              	.LCFI1:
  61              		.cfi_def_cfa_register 7
  25:..\..\..\Drive_Platform\DrivePlatform.cydsn/tmr.c **** 	TimerOverrun = TRUE;
  62              		.loc 1 25 0
  63 0004 40F20003 		movw	r3, #:lower16:TimerOverrun
  64 0008 C0F20003 		movt	r3, #:upper16:TimerOverrun
  65 000c 4FF00102 		mov	r2, #1
  66 0010 1A70     		strb	r2, [r3, #0]
  26:..\..\..\Drive_Platform\DrivePlatform.cydsn/tmr.c **** }
  67              		.loc 1 26 0
  68 0012 BD46     		mov	sp, r7
  69 0014 80BC     		pop	{r7}
  70 0016 7047     		bx	lr
  71              		.cfi_endproc
  72              	.LFE29:
  73              		.size	isr_timer_routine, .-isr_timer_routine
  74              		.section	.text.TMR_Init,"ax",%progbits
  75              		.align	2
  76              		.global	TMR_Init
  77              		.thumb
  78              		.thumb_func
  79              		.type	TMR_Init, %function
  80              	TMR_Init:
ARM GAS  C:\Users\Martin\AppData\Local\Temp\cc8fNUTZ.s 			page 3


  81              	.LFB30:
  27:..\..\..\Drive_Platform\DrivePlatform.cydsn/tmr.c **** 
  28:..\..\..\Drive_Platform\DrivePlatform.cydsn/tmr.c **** 
  29:..\..\..\Drive_Platform\DrivePlatform.cydsn/tmr.c **** /*******************************************************/
  30:..\..\..\Drive_Platform\DrivePlatform.cydsn/tmr.c **** STATUS 	TMR_Init(void)
  31:..\..\..\Drive_Platform\DrivePlatform.cydsn/tmr.c **** {
  82              		.loc 1 31 0
  83              		.cfi_startproc
  84              		@ args = 0, pretend = 0, frame = 0
  85              		@ frame_needed = 1, uses_anonymous_args = 0
  86 0000 80B5     		push	{r7, lr}
  87              	.LCFI2:
  88              		.cfi_def_cfa_offset 8
  89 0002 00AF     		add	r7, sp, #0
  90              		.cfi_offset 14, -4
  91              		.cfi_offset 7, -8
  92              	.LCFI3:
  93              		.cfi_def_cfa_register 7
  32:..\..\..\Drive_Platform\DrivePlatform.cydsn/tmr.c **** 	NewTime = OldTime = 0;
  94              		.loc 1 32 0
  95 0004 40F20003 		movw	r3, #:lower16:OldTime
  96 0008 C0F20003 		movt	r3, #:upper16:OldTime
  97 000c 4FF00002 		mov	r2, #0
  98 0010 1A60     		str	r2, [r3, #0]
  99 0012 40F20003 		movw	r3, #:lower16:OldTime
 100 0016 C0F20003 		movt	r3, #:upper16:OldTime
 101 001a 1A68     		ldr	r2, [r3, #0]
 102 001c 40F20003 		movw	r3, #:lower16:NewTime
 103 0020 C0F20003 		movt	r3, #:upper16:NewTime
 104 0024 1A60     		str	r2, [r3, #0]
  33:..\..\..\Drive_Platform\DrivePlatform.cydsn/tmr.c **** 	memset(Timer, 0, sizeof(Timer));
 105              		.loc 1 33 0
 106 0026 40F20000 		movw	r0, #:lower16:Timer
 107 002a C0F20000 		movt	r0, #:upper16:Timer
 108 002e 4FF00001 		mov	r1, #0
 109 0032 4FF0A002 		mov	r2, #160
 110 0036 FFF7FEFF 		bl	memset
  34:..\..\..\Drive_Platform\DrivePlatform.cydsn/tmr.c **** 	
  35:..\..\..\Drive_Platform\DrivePlatform.cydsn/tmr.c **** 	TIMER_Init();
 111              		.loc 1 35 0
 112 003a FFF7FEFF 		bl	TIMER_Init
  36:..\..\..\Drive_Platform\DrivePlatform.cydsn/tmr.c **** 	Isr_timer_SetVector(isr_timer_routine);
 113              		.loc 1 36 0
 114 003e 40F20000 		movw	r0, #:lower16:isr_timer_routine
 115 0042 C0F20000 		movt	r0, #:upper16:isr_timer_routine
 116 0046 FFF7FEFF 		bl	Isr_timer_SetVector
  37:..\..\..\Drive_Platform\DrivePlatform.cydsn/tmr.c **** 	Isr_timer_Start();
 117              		.loc 1 37 0
 118 004a FFF7FEFF 		bl	Isr_timer_Start
  38:..\..\..\Drive_Platform\DrivePlatform.cydsn/tmr.c **** 	TIMER_WritePeriod(TIMER_PERIOD_1000SEC); //clock 1MHz
 119              		.loc 1 38 0
 120 004e 4CF60020 		movw	r0, #:lower16:1000000000
 121 0052 C3F69A30 		movt	r0, #:upper16:1000000000
 122 0056 FFF7FEFF 		bl	TIMER_WritePeriod
  39:..\..\..\Drive_Platform\DrivePlatform.cydsn/tmr.c **** 	TIMER_Enable();
 123              		.loc 1 39 0
 124 005a FFF7FEFF 		bl	TIMER_Enable
ARM GAS  C:\Users\Martin\AppData\Local\Temp\cc8fNUTZ.s 			page 4


  40:..\..\..\Drive_Platform\DrivePlatform.cydsn/tmr.c **** 	TIMER_CLOCK_Start();
 125              		.loc 1 40 0
 126 005e FFF7FEFF 		bl	TIMER_CLOCK_Start
  41:..\..\..\Drive_Platform\DrivePlatform.cydsn/tmr.c ****     
  42:..\..\..\Drive_Platform\DrivePlatform.cydsn/tmr.c **** 	return SUCCESS;
 127              		.loc 1 42 0
 128 0062 4FF00003 		mov	r3, #0
  43:..\..\..\Drive_Platform\DrivePlatform.cydsn/tmr.c **** }
 129              		.loc 1 43 0
 130 0066 1846     		mov	r0, r3
 131 0068 80BD     		pop	{r7, pc}
 132              		.cfi_endproc
 133              	.LFE30:
 134              		.size	TMR_Init, .-TMR_Init
 135 006a 00BF     		.section	.text.TMR_SetTimer,"ax",%progbits
 136              		.align	2
 137              		.global	TMR_SetTimer
 138              		.thumb
 139              		.thumb_func
 140              		.type	TMR_SetTimer, %function
 141              	TMR_SetTimer:
 142              	.LFB31:
  44:..\..\..\Drive_Platform\DrivePlatform.cydsn/tmr.c **** 
  45:..\..\..\Drive_Platform\DrivePlatform.cydsn/tmr.c **** /*******************************************************/
  46:..\..\..\Drive_Platform\DrivePlatform.cydsn/tmr.c **** void TMR_SetTimer(uint8 numTimer, uint32 us, TMR_FUNC func, uint8 mode, uint8 status)
  47:..\..\..\Drive_Platform\DrivePlatform.cydsn/tmr.c **** {
 143              		.loc 1 47 0
 144              		.cfi_startproc
 145              		@ args = 4, pretend = 0, frame = 16
 146              		@ frame_needed = 1, uses_anonymous_args = 0
 147              		@ link register save eliminated.
 148 0000 80B4     		push	{r7}
 149              	.LCFI4:
 150              		.cfi_def_cfa_offset 4
 151 0002 85B0     		sub	sp, sp, #20
 152              	.LCFI5:
 153              		.cfi_def_cfa_offset 24
 154 0004 00AF     		add	r7, sp, #0
 155              		.cfi_offset 7, -4
 156              	.LCFI6:
 157              		.cfi_def_cfa_register 7
 158 0006 B960     		str	r1, [r7, #8]
 159 0008 7A60     		str	r2, [r7, #4]
 160 000a 0246     		mov	r2, r0
 161 000c FA73     		strb	r2, [r7, #15]
 162 000e FB70     		strb	r3, [r7, #3]
  48:..\..\..\Drive_Platform\DrivePlatform.cydsn/tmr.c **** 	Timer[numTimer].count = 0;
 163              		.loc 1 48 0
 164 0010 FA7B     		ldrb	r2, [r7, #15]	@ zero_extendqisi2
 165 0012 40F20003 		movw	r3, #:lower16:Timer
 166 0016 C0F20003 		movt	r3, #:upper16:Timer
 167 001a 4FEA0212 		lsl	r2, r2, #4
 168 001e 1344     		add	r3, r2, r3
 169 0020 4FF00002 		mov	r2, #0
 170 0024 1A60     		str	r2, [r3, #0]
  49:..\..\..\Drive_Platform\DrivePlatform.cydsn/tmr.c **** 	Timer[numTimer].value = us;
 171              		.loc 1 49 0
ARM GAS  C:\Users\Martin\AppData\Local\Temp\cc8fNUTZ.s 			page 5


 172 0026 FA7B     		ldrb	r2, [r7, #15]	@ zero_extendqisi2
 173 0028 40F20003 		movw	r3, #:lower16:Timer
 174 002c C0F20003 		movt	r3, #:upper16:Timer
 175 0030 4FEA0212 		lsl	r2, r2, #4
 176 0034 1344     		add	r3, r2, r3
 177 0036 03F10403 		add	r3, r3, #4
 178 003a BA68     		ldr	r2, [r7, #8]
 179 003c 1A60     		str	r2, [r3, #0]
  50:..\..\..\Drive_Platform\DrivePlatform.cydsn/tmr.c **** 	Timer[numTimer].func = func;
 180              		.loc 1 50 0
 181 003e FA7B     		ldrb	r2, [r7, #15]	@ zero_extendqisi2
 182 0040 40F20003 		movw	r3, #:lower16:Timer
 183 0044 C0F20003 		movt	r3, #:upper16:Timer
 184 0048 4FEA4202 		lsl	r2, r2, #1
 185 004c 02F10102 		add	r2, r2, #1
 186 0050 7968     		ldr	r1, [r7, #4]
 187 0052 43F83210 		str	r1, [r3, r2, lsl #3]
  51:..\..\..\Drive_Platform\DrivePlatform.cydsn/tmr.c **** 	Timer[numTimer].mode = mode;
 188              		.loc 1 51 0
 189 0056 FB7B     		ldrb	r3, [r7, #15]	@ zero_extendqisi2
 190 0058 40F20002 		movw	r2, #:lower16:Timer
 191 005c C0F20002 		movt	r2, #:upper16:Timer
 192 0060 4FEA4303 		lsl	r3, r3, #1
 193 0064 03F10103 		add	r3, r3, #1
 194 0068 4FEAC303 		lsl	r3, r3, #3
 195 006c 1344     		add	r3, r3, r2
 196 006e FA78     		ldrb	r2, [r7, #3]
 197 0070 1A71     		strb	r2, [r3, #4]
  52:..\..\..\Drive_Platform\DrivePlatform.cydsn/tmr.c **** 	Timer[numTimer].status = status;
 198              		.loc 1 52 0
 199 0072 FB7B     		ldrb	r3, [r7, #15]	@ zero_extendqisi2
 200 0074 40F20002 		movw	r2, #:lower16:Timer
 201 0078 C0F20002 		movt	r2, #:upper16:Timer
 202 007c 4FEA4303 		lsl	r3, r3, #1
 203 0080 03F10103 		add	r3, r3, #1
 204 0084 4FEAC303 		lsl	r3, r3, #3
 205 0088 1344     		add	r3, r3, r2
 206 008a 3A7E     		ldrb	r2, [r7, #24]
 207 008c 5A71     		strb	r2, [r3, #5]
  53:..\..\..\Drive_Platform\DrivePlatform.cydsn/tmr.c **** }
 208              		.loc 1 53 0
 209 008e 07F11407 		add	r7, r7, #20
 210 0092 BD46     		mov	sp, r7
 211 0094 80BC     		pop	{r7}
 212 0096 7047     		bx	lr
 213              		.cfi_endproc
 214              	.LFE31:
 215              		.size	TMR_SetTimer, .-TMR_SetTimer
 216              		.section	.text.TMR_StartTimer,"ax",%progbits
 217              		.align	2
 218              		.global	TMR_StartTimer
 219              		.thumb
 220              		.thumb_func
 221              		.type	TMR_StartTimer, %function
 222              	TMR_StartTimer:
 223              	.LFB32:
  54:..\..\..\Drive_Platform\DrivePlatform.cydsn/tmr.c **** 
ARM GAS  C:\Users\Martin\AppData\Local\Temp\cc8fNUTZ.s 			page 6


  55:..\..\..\Drive_Platform\DrivePlatform.cydsn/tmr.c **** /*******************************************************/
  56:..\..\..\Drive_Platform\DrivePlatform.cydsn/tmr.c **** void TMR_StartTimer(uint8 numTimer)
  57:..\..\..\Drive_Platform\DrivePlatform.cydsn/tmr.c **** {
 224              		.loc 1 57 0
 225              		.cfi_startproc
 226              		@ args = 0, pretend = 0, frame = 8
 227              		@ frame_needed = 1, uses_anonymous_args = 0
 228              		@ link register save eliminated.
 229 0000 80B4     		push	{r7}
 230              	.LCFI7:
 231              		.cfi_def_cfa_offset 4
 232 0002 83B0     		sub	sp, sp, #12
 233              	.LCFI8:
 234              		.cfi_def_cfa_offset 16
 235 0004 00AF     		add	r7, sp, #0
 236              		.cfi_offset 7, -4
 237              	.LCFI9:
 238              		.cfi_def_cfa_register 7
 239 0006 0346     		mov	r3, r0
 240 0008 FB71     		strb	r3, [r7, #7]
  58:..\..\..\Drive_Platform\DrivePlatform.cydsn/tmr.c **** 	Timer[numTimer].count = 0;
 241              		.loc 1 58 0
 242 000a FA79     		ldrb	r2, [r7, #7]	@ zero_extendqisi2
 243 000c 40F20003 		movw	r3, #:lower16:Timer
 244 0010 C0F20003 		movt	r3, #:upper16:Timer
 245 0014 4FEA0212 		lsl	r2, r2, #4
 246 0018 1344     		add	r3, r2, r3
 247 001a 4FF00002 		mov	r2, #0
 248 001e 1A60     		str	r2, [r3, #0]
  59:..\..\..\Drive_Platform\DrivePlatform.cydsn/tmr.c **** 	Timer[numTimer].status = TIMER_ENABLED;
 249              		.loc 1 59 0
 250 0020 FB79     		ldrb	r3, [r7, #7]	@ zero_extendqisi2
 251 0022 40F20002 		movw	r2, #:lower16:Timer
 252 0026 C0F20002 		movt	r2, #:upper16:Timer
 253 002a 4FEA4303 		lsl	r3, r3, #1
 254 002e 03F10103 		add	r3, r3, #1
 255 0032 4FEAC303 		lsl	r3, r3, #3
 256 0036 1344     		add	r3, r3, r2
 257 0038 4FF00102 		mov	r2, #1
 258 003c 5A71     		strb	r2, [r3, #5]
  60:..\..\..\Drive_Platform\DrivePlatform.cydsn/tmr.c **** }
 259              		.loc 1 60 0
 260 003e 07F10C07 		add	r7, r7, #12
 261 0042 BD46     		mov	sp, r7
 262 0044 80BC     		pop	{r7}
 263 0046 7047     		bx	lr
 264              		.cfi_endproc
 265              	.LFE32:
 266              		.size	TMR_StartTimer, .-TMR_StartTimer
 267              		.section	.text.TMR_StopTimer,"ax",%progbits
 268              		.align	2
 269              		.global	TMR_StopTimer
 270              		.thumb
 271              		.thumb_func
 272              		.type	TMR_StopTimer, %function
 273              	TMR_StopTimer:
 274              	.LFB33:
ARM GAS  C:\Users\Martin\AppData\Local\Temp\cc8fNUTZ.s 			page 7


  61:..\..\..\Drive_Platform\DrivePlatform.cydsn/tmr.c **** 
  62:..\..\..\Drive_Platform\DrivePlatform.cydsn/tmr.c **** /*******************************************************/
  63:..\..\..\Drive_Platform\DrivePlatform.cydsn/tmr.c **** void TMR_StopTimer(uint8 numTimer)
  64:..\..\..\Drive_Platform\DrivePlatform.cydsn/tmr.c **** {
 275              		.loc 1 64 0
 276              		.cfi_startproc
 277              		@ args = 0, pretend = 0, frame = 8
 278              		@ frame_needed = 1, uses_anonymous_args = 0
 279              		@ link register save eliminated.
 280 0000 80B4     		push	{r7}
 281              	.LCFI10:
 282              		.cfi_def_cfa_offset 4
 283 0002 83B0     		sub	sp, sp, #12
 284              	.LCFI11:
 285              		.cfi_def_cfa_offset 16
 286 0004 00AF     		add	r7, sp, #0
 287              		.cfi_offset 7, -4
 288              	.LCFI12:
 289              		.cfi_def_cfa_register 7
 290 0006 0346     		mov	r3, r0
 291 0008 FB71     		strb	r3, [r7, #7]
  65:..\..\..\Drive_Platform\DrivePlatform.cydsn/tmr.c **** 	Timer[numTimer].count = 0;
 292              		.loc 1 65 0
 293 000a FA79     		ldrb	r2, [r7, #7]	@ zero_extendqisi2
 294 000c 40F20003 		movw	r3, #:lower16:Timer
 295 0010 C0F20003 		movt	r3, #:upper16:Timer
 296 0014 4FEA0212 		lsl	r2, r2, #4
 297 0018 1344     		add	r3, r2, r3
 298 001a 4FF00002 		mov	r2, #0
 299 001e 1A60     		str	r2, [r3, #0]
  66:..\..\..\Drive_Platform\DrivePlatform.cydsn/tmr.c **** 	Timer[numTimer].status = TIMER_DISABLED;
 300              		.loc 1 66 0
 301 0020 FB79     		ldrb	r3, [r7, #7]	@ zero_extendqisi2
 302 0022 40F20002 		movw	r2, #:lower16:Timer
 303 0026 C0F20002 		movt	r2, #:upper16:Timer
 304 002a 4FEA4303 		lsl	r3, r3, #1
 305 002e 03F10103 		add	r3, r3, #1
 306 0032 4FEAC303 		lsl	r3, r3, #3
 307 0036 1344     		add	r3, r3, r2
 308 0038 4FF00002 		mov	r2, #0
 309 003c 5A71     		strb	r2, [r3, #5]
  67:..\..\..\Drive_Platform\DrivePlatform.cydsn/tmr.c **** }
 310              		.loc 1 67 0
 311 003e 07F10C07 		add	r7, r7, #12
 312 0042 BD46     		mov	sp, r7
 313 0044 80BC     		pop	{r7}
 314 0046 7047     		bx	lr
 315              		.cfi_endproc
 316              	.LFE33:
 317              		.size	TMR_StopTimer, .-TMR_StopTimer
 318              		.section	.text.TMR_HandleTask,"ax",%progbits
 319              		.align	2
 320              		.global	TMR_HandleTask
 321              		.thumb
 322              		.thumb_func
 323              		.type	TMR_HandleTask, %function
 324              	TMR_HandleTask:
ARM GAS  C:\Users\Martin\AppData\Local\Temp\cc8fNUTZ.s 			page 8


 325              	.LFB34:
  68:..\..\..\Drive_Platform\DrivePlatform.cydsn/tmr.c **** 
  69:..\..\..\Drive_Platform\DrivePlatform.cydsn/tmr.c **** 
  70:..\..\..\Drive_Platform\DrivePlatform.cydsn/tmr.c **** /*******************************************************/
  71:..\..\..\Drive_Platform\DrivePlatform.cydsn/tmr.c **** STATUS TMR_HandleTask(void)
  72:..\..\..\Drive_Platform\DrivePlatform.cydsn/tmr.c **** {
 326              		.loc 1 72 0
 327              		.cfi_startproc
 328              		@ args = 0, pretend = 0, frame = 8
 329              		@ frame_needed = 1, uses_anonymous_args = 0
 330 0000 80B5     		push	{r7, lr}
 331              	.LCFI13:
 332              		.cfi_def_cfa_offset 8
 333 0002 82B0     		sub	sp, sp, #8
 334              	.LCFI14:
 335              		.cfi_def_cfa_offset 16
 336 0004 00AF     		add	r7, sp, #0
 337              		.cfi_offset 14, -4
 338              		.cfi_offset 7, -8
 339              	.LCFI15:
 340              		.cfi_def_cfa_register 7
  73:..\..\..\Drive_Platform\DrivePlatform.cydsn/tmr.c **** 	uint8 i;
  74:..\..\..\Drive_Platform\DrivePlatform.cydsn/tmr.c **** 	uint32 timediff;
  75:..\..\..\Drive_Platform\DrivePlatform.cydsn/tmr.c **** 	
  76:..\..\..\Drive_Platform\DrivePlatform.cydsn/tmr.c **** 	/* get new time (down counter) */
  77:..\..\..\Drive_Platform\DrivePlatform.cydsn/tmr.c **** 	NewTime = 0xFFFFFFFF - TIMER_ReadCounter();
 341              		.loc 1 77 0
 342 0006 FFF7FEFF 		bl	TIMER_ReadCounter
 343 000a 0346     		mov	r3, r0
 344 000c 6FEA0302 		mvn	r2, r3
 345 0010 40F20003 		movw	r3, #:lower16:NewTime
 346 0014 C0F20003 		movt	r3, #:upper16:NewTime
 347 0018 1A60     		str	r2, [r3, #0]
  78:..\..\..\Drive_Platform\DrivePlatform.cydsn/tmr.c **** 	
  79:..\..\..\Drive_Platform\DrivePlatform.cydsn/tmr.c ****     if (IsFirstExecution)
 348              		.loc 1 79 0
 349 001a 40F20003 		movw	r3, #:lower16:IsFirstExecution
 350 001e C0F20003 		movt	r3, #:upper16:IsFirstExecution
 351 0022 1B78     		ldrb	r3, [r3, #0]	@ zero_extendqisi2
 352 0024 002B     		cmp	r3, #0
 353 0026 13D0     		beq	.L12
  80:..\..\..\Drive_Platform\DrivePlatform.cydsn/tmr.c ****     {
  81:..\..\..\Drive_Platform\DrivePlatform.cydsn/tmr.c ****         OldTime = NewTime;
 354              		.loc 1 81 0
 355 0028 40F20003 		movw	r3, #:lower16:NewTime
 356 002c C0F20003 		movt	r3, #:upper16:NewTime
 357 0030 1A68     		ldr	r2, [r3, #0]
 358 0032 40F20003 		movw	r3, #:lower16:OldTime
 359 0036 C0F20003 		movt	r3, #:upper16:OldTime
 360 003a 1A60     		str	r2, [r3, #0]
  82:..\..\..\Drive_Platform\DrivePlatform.cydsn/tmr.c ****         IsFirstExecution = FALSE;
 361              		.loc 1 82 0
 362 003c 40F20003 		movw	r3, #:lower16:IsFirstExecution
 363 0040 C0F20003 		movt	r3, #:upper16:IsFirstExecution
 364 0044 4FF00002 		mov	r2, #0
 365 0048 1A70     		strb	r2, [r3, #0]
  83:..\..\..\Drive_Platform\DrivePlatform.cydsn/tmr.c ****         return SUCCESS;
ARM GAS  C:\Users\Martin\AppData\Local\Temp\cc8fNUTZ.s 			page 9


 366              		.loc 1 83 0
 367 004a 4FF00003 		mov	r3, #0
 368 004e C5E0     		b	.L13
 369              	.L12:
  84:..\..\..\Drive_Platform\DrivePlatform.cydsn/tmr.c ****     }
  85:..\..\..\Drive_Platform\DrivePlatform.cydsn/tmr.c ****     
  86:..\..\..\Drive_Platform\DrivePlatform.cydsn/tmr.c **** 	/* this variable is set by isr when timer runs over */
  87:..\..\..\Drive_Platform\DrivePlatform.cydsn/tmr.c **** 	if (TimerOverrun == TRUE)
 370              		.loc 1 87 0
 371 0050 40F20003 		movw	r3, #:lower16:TimerOverrun
 372 0054 C0F20003 		movt	r3, #:upper16:TimerOverrun
 373 0058 1B78     		ldrb	r3, [r3, #0]	@ zero_extendqisi2
 374 005a 012B     		cmp	r3, #1
 375 005c 19D1     		bne	.L14
  88:..\..\..\Drive_Platform\DrivePlatform.cydsn/tmr.c **** 	{
  89:..\..\..\Drive_Platform\DrivePlatform.cydsn/tmr.c **** 		timediff = TIMER_PERIOD_1000SEC - OldTime + NewTime;
 376              		.loc 1 89 0
 377 005e 40F20003 		movw	r3, #:lower16:NewTime
 378 0062 C0F20003 		movt	r3, #:upper16:NewTime
 379 0066 1A68     		ldr	r2, [r3, #0]
 380 0068 40F20003 		movw	r3, #:lower16:OldTime
 381 006c C0F20003 		movt	r3, #:upper16:OldTime
 382 0070 1B68     		ldr	r3, [r3, #0]
 383 0072 C3EB0202 		rsb	r2, r3, r2
 384 0076 4CF60023 		movw	r3, #:lower16:1000000000
 385 007a C3F69A33 		movt	r3, #:upper16:1000000000
 386 007e 1344     		add	r3, r2, r3
 387 0080 7B60     		str	r3, [r7, #4]
  90:..\..\..\Drive_Platform\DrivePlatform.cydsn/tmr.c **** 		TimerOverrun = FALSE;
 388              		.loc 1 90 0
 389 0082 40F20003 		movw	r3, #:lower16:TimerOverrun
 390 0086 C0F20003 		movt	r3, #:upper16:TimerOverrun
 391 008a 4FF00002 		mov	r2, #0
 392 008e 1A70     		strb	r2, [r3, #0]
 393 0090 0CE0     		b	.L15
 394              	.L14:
  91:..\..\..\Drive_Platform\DrivePlatform.cydsn/tmr.c **** 	}
  92:..\..\..\Drive_Platform\DrivePlatform.cydsn/tmr.c **** 	else
  93:..\..\..\Drive_Platform\DrivePlatform.cydsn/tmr.c **** 	{
  94:..\..\..\Drive_Platform\DrivePlatform.cydsn/tmr.c **** 		timediff = NewTime - OldTime;
 395              		.loc 1 94 0
 396 0092 40F20003 		movw	r3, #:lower16:NewTime
 397 0096 C0F20003 		movt	r3, #:upper16:NewTime
 398 009a 1A68     		ldr	r2, [r3, #0]
 399 009c 40F20003 		movw	r3, #:lower16:OldTime
 400 00a0 C0F20003 		movt	r3, #:upper16:OldTime
 401 00a4 1B68     		ldr	r3, [r3, #0]
 402 00a6 C3EB0203 		rsb	r3, r3, r2
 403 00aa 7B60     		str	r3, [r7, #4]
 404              	.L15:
  95:..\..\..\Drive_Platform\DrivePlatform.cydsn/tmr.c **** 	}
  96:..\..\..\Drive_Platform\DrivePlatform.cydsn/tmr.c **** 	
  97:..\..\..\Drive_Platform\DrivePlatform.cydsn/tmr.c **** 	OldTime = NewTime;
 405              		.loc 1 97 0
 406 00ac 40F20003 		movw	r3, #:lower16:NewTime
 407 00b0 C0F20003 		movt	r3, #:upper16:NewTime
 408 00b4 1A68     		ldr	r2, [r3, #0]
ARM GAS  C:\Users\Martin\AppData\Local\Temp\cc8fNUTZ.s 			page 10


 409 00b6 40F20003 		movw	r3, #:lower16:OldTime
 410 00ba C0F20003 		movt	r3, #:upper16:OldTime
 411 00be 1A60     		str	r2, [r3, #0]
  98:..\..\..\Drive_Platform\DrivePlatform.cydsn/tmr.c **** 	
  99:..\..\..\Drive_Platform\DrivePlatform.cydsn/tmr.c **** 	/* update timers */
 100:..\..\..\Drive_Platform\DrivePlatform.cydsn/tmr.c **** 	for (i=0; i<MAX_TIMERS; i++)
 412              		.loc 1 100 0
 413 00c0 4FF00003 		mov	r3, #0
 414 00c4 FB70     		strb	r3, [r7, #3]
 415 00c6 83E0     		b	.L16
 416              	.L21:
 101:..\..\..\Drive_Platform\DrivePlatform.cydsn/tmr.c **** 	{
 102:..\..\..\Drive_Platform\DrivePlatform.cydsn/tmr.c **** 		if (Timer[i].status == TIMER_ENABLED)
 417              		.loc 1 102 0
 418 00c8 FB78     		ldrb	r3, [r7, #3]	@ zero_extendqisi2
 419 00ca 40F20002 		movw	r2, #:lower16:Timer
 420 00ce C0F20002 		movt	r2, #:upper16:Timer
 421 00d2 4FEA4303 		lsl	r3, r3, #1
 422 00d6 03F10103 		add	r3, r3, #1
 423 00da 4FEAC303 		lsl	r3, r3, #3
 424 00de 1344     		add	r3, r3, r2
 425 00e0 5B79     		ldrb	r3, [r3, #5]	@ zero_extendqisi2
 426 00e2 012B     		cmp	r3, #1
 427 00e4 70D1     		bne	.L17
 103:..\..\..\Drive_Platform\DrivePlatform.cydsn/tmr.c **** 		{
 104:..\..\..\Drive_Platform\DrivePlatform.cydsn/tmr.c **** 			/* increase timer */
 105:..\..\..\Drive_Platform\DrivePlatform.cydsn/tmr.c **** 			Timer[i].count += timediff;
 428              		.loc 1 105 0
 429 00e6 F978     		ldrb	r1, [r7, #3]	@ zero_extendqisi2
 430 00e8 FA78     		ldrb	r2, [r7, #3]	@ zero_extendqisi2
 431 00ea 40F20003 		movw	r3, #:lower16:Timer
 432 00ee C0F20003 		movt	r3, #:upper16:Timer
 433 00f2 4FEA0212 		lsl	r2, r2, #4
 434 00f6 1344     		add	r3, r2, r3
 435 00f8 1A68     		ldr	r2, [r3, #0]
 436 00fa 7B68     		ldr	r3, [r7, #4]
 437 00fc 1A44     		add	r2, r2, r3
 438 00fe 40F20003 		movw	r3, #:lower16:Timer
 439 0102 C0F20003 		movt	r3, #:upper16:Timer
 440 0106 4FEA0111 		lsl	r1, r1, #4
 441 010a 0B44     		add	r3, r1, r3
 442 010c 1A60     		str	r2, [r3, #0]
 106:..\..\..\Drive_Platform\DrivePlatform.cydsn/tmr.c **** 			if (Timer[i].count >= Timer[i].value)
 443              		.loc 1 106 0
 444 010e FA78     		ldrb	r2, [r7, #3]	@ zero_extendqisi2
 445 0110 40F20003 		movw	r3, #:lower16:Timer
 446 0114 C0F20003 		movt	r3, #:upper16:Timer
 447 0118 4FEA0212 		lsl	r2, r2, #4
 448 011c 1344     		add	r3, r2, r3
 449 011e 1A68     		ldr	r2, [r3, #0]
 450 0120 F978     		ldrb	r1, [r7, #3]	@ zero_extendqisi2
 451 0122 40F20003 		movw	r3, #:lower16:Timer
 452 0126 C0F20003 		movt	r3, #:upper16:Timer
 453 012a 4FEA0111 		lsl	r1, r1, #4
 454 012e 0B44     		add	r3, r1, r3
 455 0130 03F10403 		add	r3, r3, #4
 456 0134 1B68     		ldr	r3, [r3, #0]
ARM GAS  C:\Users\Martin\AppData\Local\Temp\cc8fNUTZ.s 			page 11


 457 0136 9A42     		cmp	r2, r3
 458 0138 46D3     		bcc	.L17
 107:..\..\..\Drive_Platform\DrivePlatform.cydsn/tmr.c **** 			{
 108:..\..\..\Drive_Platform\DrivePlatform.cydsn/tmr.c **** 				/* call timer down function */
 109:..\..\..\Drive_Platform\DrivePlatform.cydsn/tmr.c ****                 if (Timer[i].func != NULL)
 459              		.loc 1 109 0
 460 013a FA78     		ldrb	r2, [r7, #3]	@ zero_extendqisi2
 461 013c 40F20003 		movw	r3, #:lower16:Timer
 462 0140 C0F20003 		movt	r3, #:upper16:Timer
 463 0144 4FEA4202 		lsl	r2, r2, #1
 464 0148 02F10102 		add	r2, r2, #1
 465 014c 53F83230 		ldr	r3, [r3, r2, lsl #3]
 466 0150 002B     		cmp	r3, #0
 467 0152 0CD0     		beq	.L18
 110:..\..\..\Drive_Platform\DrivePlatform.cydsn/tmr.c ****                 {
 111:..\..\..\Drive_Platform\DrivePlatform.cydsn/tmr.c ****                     Timer[i].func();
 468              		.loc 1 111 0
 469 0154 FA78     		ldrb	r2, [r7, #3]	@ zero_extendqisi2
 470 0156 40F20003 		movw	r3, #:lower16:Timer
 471 015a C0F20003 		movt	r3, #:upper16:Timer
 472 015e 4FEA4202 		lsl	r2, r2, #1
 473 0162 02F10102 		add	r2, r2, #1
 474 0166 53F83230 		ldr	r3, [r3, r2, lsl #3]
 475 016a 9847     		blx	r3
 476 016c 03E0     		b	.L19
 477              	.L18:
 112:..\..\..\Drive_Platform\DrivePlatform.cydsn/tmr.c ****                 }
 113:..\..\..\Drive_Platform\DrivePlatform.cydsn/tmr.c ****                 else
 114:..\..\..\Drive_Platform\DrivePlatform.cydsn/tmr.c ****                 {
 115:..\..\..\Drive_Platform\DrivePlatform.cydsn/tmr.c ****                     ERR_Error(ERROR_WARNING);
 478              		.loc 1 115 0
 479 016e 4FF0FD00 		mov	r0, #253
 480 0172 FFF7FEFF 		bl	ERR_Error
 481              	.L19:
 116:..\..\..\Drive_Platform\DrivePlatform.cydsn/tmr.c ****                 }
 117:..\..\..\Drive_Platform\DrivePlatform.cydsn/tmr.c ****                 
 118:..\..\..\Drive_Platform\DrivePlatform.cydsn/tmr.c ****                 
 119:..\..\..\Drive_Platform\DrivePlatform.cydsn/tmr.c **** 				if (Timer[i].mode != TIMER_MODE_CONTINUOUS)
 482              		.loc 1 119 0
 483 0176 FB78     		ldrb	r3, [r7, #3]	@ zero_extendqisi2
 484 0178 40F20002 		movw	r2, #:lower16:Timer
 485 017c C0F20002 		movt	r2, #:upper16:Timer
 486 0180 4FEA4303 		lsl	r3, r3, #1
 487 0184 03F10103 		add	r3, r3, #1
 488 0188 4FEAC303 		lsl	r3, r3, #3
 489 018c 1344     		add	r3, r3, r2
 490 018e 1B79     		ldrb	r3, [r3, #4]	@ zero_extendqisi2
 491 0190 022B     		cmp	r3, #2
 492 0192 0ED0     		beq	.L20
 120:..\..\..\Drive_Platform\DrivePlatform.cydsn/tmr.c **** 				{
 121:..\..\..\Drive_Platform\DrivePlatform.cydsn/tmr.c **** 					Timer[i].status = TIMER_DISABLED;
 493              		.loc 1 121 0
 494 0194 FB78     		ldrb	r3, [r7, #3]	@ zero_extendqisi2
 495 0196 40F20002 		movw	r2, #:lower16:Timer
 496 019a C0F20002 		movt	r2, #:upper16:Timer
 497 019e 4FEA4303 		lsl	r3, r3, #1
 498 01a2 03F10103 		add	r3, r3, #1
ARM GAS  C:\Users\Martin\AppData\Local\Temp\cc8fNUTZ.s 			page 12


 499 01a6 4FEAC303 		lsl	r3, r3, #3
 500 01aa 1344     		add	r3, r3, r2
 501 01ac 4FF00002 		mov	r2, #0
 502 01b0 5A71     		strb	r2, [r3, #5]
 503              	.L20:
 122:..\..\..\Drive_Platform\DrivePlatform.cydsn/tmr.c **** 				}
 123:..\..\..\Drive_Platform\DrivePlatform.cydsn/tmr.c **** 				Timer[i].count = 0;
 504              		.loc 1 123 0
 505 01b2 FA78     		ldrb	r2, [r7, #3]	@ zero_extendqisi2
 506 01b4 40F20003 		movw	r3, #:lower16:Timer
 507 01b8 C0F20003 		movt	r3, #:upper16:Timer
 508 01bc 4FEA0212 		lsl	r2, r2, #4
 509 01c0 1344     		add	r3, r2, r3
 510 01c2 4FF00002 		mov	r2, #0
 511 01c6 1A60     		str	r2, [r3, #0]
 512              	.L17:
 513              		.loc 1 100 0
 514 01c8 FB78     		ldrb	r3, [r7, #3]
 515 01ca 03F10103 		add	r3, r3, #1
 516 01ce FB70     		strb	r3, [r7, #3]
 517              	.L16:
 518 01d0 FB78     		ldrb	r3, [r7, #3]	@ zero_extendqisi2
 519 01d2 092B     		cmp	r3, #9
 520 01d4 7FF678AF 		bls	.L21
 124:..\..\..\Drive_Platform\DrivePlatform.cydsn/tmr.c **** 			}
 125:..\..\..\Drive_Platform\DrivePlatform.cydsn/tmr.c **** 		}
 126:..\..\..\Drive_Platform\DrivePlatform.cydsn/tmr.c **** 	}
 127:..\..\..\Drive_Platform\DrivePlatform.cydsn/tmr.c **** 	
 128:..\..\..\Drive_Platform\DrivePlatform.cydsn/tmr.c **** 	return SUCCESS;
 521              		.loc 1 128 0
 522 01d8 4FF00003 		mov	r3, #0
 523              	.L13:
 129:..\..\..\Drive_Platform\DrivePlatform.cydsn/tmr.c **** }
 524              		.loc 1 129 0
 525 01dc 1846     		mov	r0, r3
 526 01de 07F10807 		add	r7, r7, #8
 527 01e2 BD46     		mov	sp, r7
 528 01e4 80BD     		pop	{r7, pc}
 529              		.cfi_endproc
 530              	.LFE34:
 531              		.size	TMR_HandleTask, .-TMR_HandleTask
 532 01e6 00BF     		.text
 533              	.Letext0: