ARM GAS  C:\Users\Martin\AppData\Local\Temp\ccIngenE.s 			page 1


   1              		.syntax unified
   2              		.cpu cortex-m3
   3              		.fpu softvfp
   4              		.eabi_attribute 20, 1
   5              		.eabi_attribute 21, 1
   6              		.eabi_attribute 23, 3
   7              		.eabi_attribute 24, 1
   8              		.eabi_attribute 25, 1
   9              		.eabi_attribute 26, 1
  10              		.eabi_attribute 30, 6
  11              		.eabi_attribute 34, 1
  12              		.eabi_attribute 18, 4
  13              		.thumb
  14              		.file	"bus.c"
  15              		.text
  16              	.Ltext0:
  17              		.cfi_sections	.debug_frame
  18              		.bss
  19              		.align	2
  20              	TransmitBuffer:
  21 0000 00000000 		.space	16
  21      00000000 
  21      00000000 
  21      00000000 
  22              		.align	2
  23              	ReceiveBuffer:
  24 0010 00000000 		.space	16
  24      00000000 
  24      00000000 
  24      00000000 
  25              		.comm	Bus,16,4
  26              		.section	.text.BUS_Init,"ax",%progbits
  27              		.align	2
  28              		.global	BUS_Init
  29              		.thumb
  30              		.thumb_func
  31              		.type	BUS_Init, %function
  32              	BUS_Init:
  33              	.LFB56:
  34              		.file 1 ".\\bus.c"
   1:.\bus.c       **** /* Copyright (C) <2014> <Martin Schalk>
   2:.\bus.c       ****  * All rights reserved.
   3:.\bus.c       ****  *
   4:.\bus.c       ****  * This software may be modified and distributed under the terms
   5:.\bus.c       ****  * of the BSD license.  See the LICENSE file for details.
   6:.\bus.c       ****  */
   7:.\bus.c       **** 
   8:.\bus.c       **** #include "bus.h"
   9:.\bus.c       **** #include <project.h>
  10:.\bus.c       **** #include "global.h"
  11:.\bus.c       **** #include <stdio.h>
  12:.\bus.c       **** 
  13:.\bus.c       **** 
  14:.\bus.c       **** static uint8 TransmitBuffer[BUS_MSG_BUFFER_SIZE];
  15:.\bus.c       **** static uint8 ReceiveBuffer[BUS_MSG_BUFFER_SIZE];
  16:.\bus.c       **** 
  17:.\bus.c       **** BUS_OBJ Bus;
ARM GAS  C:\Users\Martin\AppData\Local\Temp\ccIngenE.s 			page 2


  18:.\bus.c       **** 
  19:.\bus.c       **** /*****************************************************************/
  20:.\bus.c       **** STATUS BUS_Init(void)
  21:.\bus.c       **** {
  35              		.loc 1 21 0
  36              		.cfi_startproc
  37              		@ args = 0, pretend = 0, frame = 0
  38              		@ frame_needed = 1, uses_anonymous_args = 0
  39              		@ link register save eliminated.
  40 0000 80B4     		push	{r7}
  41              	.LCFI0:
  42              		.cfi_def_cfa_offset 4
  43              		.cfi_offset 7, -4
  44 0002 00AF     		add	r7, sp, #0
  45              	.LCFI1:
  46              		.cfi_def_cfa_register 7
  22:.\bus.c       **** 	Bus.transmit.tBuffer = TransmitBuffer;
  47              		.loc 1 22 0
  48 0004 40F20003 		movw	r3, #:lower16:Bus
  49 0008 C0F20003 		movt	r3, #:upper16:Bus
  50 000c 40F20002 		movw	r2, #:lower16:TransmitBuffer
  51 0010 C0F20002 		movt	r2, #:upper16:TransmitBuffer
  52 0014 1A60     		str	r2, [r3, #0]
  23:.\bus.c       **** 	Bus.transmit.tBytes = 0;
  53              		.loc 1 23 0
  54 0016 40F20003 		movw	r3, #:lower16:Bus
  55 001a C0F20003 		movt	r3, #:upper16:Bus
  56 001e 4FF00002 		mov	r2, #0
  57 0022 1A71     		strb	r2, [r3, #4]
  24:.\bus.c       **** 	Bus.transmit.tRequest = FALSE;
  58              		.loc 1 24 0
  59 0024 40F20003 		movw	r3, #:lower16:Bus
  60 0028 C0F20003 		movt	r3, #:upper16:Bus
  61 002c 4FF00002 		mov	r2, #0
  62 0030 5A71     		strb	r2, [r3, #5]
  25:.\bus.c       **** 	Bus.transmit.tInProgress = FALSE;
  63              		.loc 1 25 0
  64 0032 40F20003 		movw	r3, #:lower16:Bus
  65 0036 C0F20003 		movt	r3, #:upper16:Bus
  66 003a 4FF00002 		mov	r2, #0
  67 003e 9A71     		strb	r2, [r3, #6]
  26:.\bus.c       **** 	Bus.receive.rBuffer = ReceiveBuffer;
  68              		.loc 1 26 0
  69 0040 40F20003 		movw	r3, #:lower16:Bus
  70 0044 C0F20003 		movt	r3, #:upper16:Bus
  71 0048 40F20002 		movw	r2, #:lower16:ReceiveBuffer
  72 004c C0F20002 		movt	r2, #:upper16:ReceiveBuffer
  73 0050 9A60     		str	r2, [r3, #8]
  27:.\bus.c       **** 	Bus.receive.rBytes = 0;
  74              		.loc 1 27 0
  75 0052 40F20003 		movw	r3, #:lower16:Bus
  76 0056 C0F20003 		movt	r3, #:upper16:Bus
  77 005a 4FF00002 		mov	r2, #0
  78 005e 1A73     		strb	r2, [r3, #12]
  28:.\bus.c       **** 	Bus.receive.rNewMsg = FALSE;
  79              		.loc 1 28 0
  80 0060 40F20003 		movw	r3, #:lower16:Bus
ARM GAS  C:\Users\Martin\AppData\Local\Temp\ccIngenE.s 			page 3


  81 0064 C0F20003 		movt	r3, #:upper16:Bus
  82 0068 4FF00002 		mov	r2, #0
  83 006c 5A73     		strb	r2, [r3, #13]
  29:.\bus.c       **** 	Bus.receive.rInProgress = FALSE;
  84              		.loc 1 29 0
  85 006e 40F20003 		movw	r3, #:lower16:Bus
  86 0072 C0F20003 		movt	r3, #:upper16:Bus
  87 0076 4FF00002 		mov	r2, #0
  88 007a 9A73     		strb	r2, [r3, #14]
  30:.\bus.c       **** 	
  31:.\bus.c       **** 	return SUCCESS;
  89              		.loc 1 31 0
  90 007c 4FF00003 		mov	r3, #0
  32:.\bus.c       **** }
  91              		.loc 1 32 0
  92 0080 1846     		mov	r0, r3
  93 0082 BD46     		mov	sp, r7
  94 0084 80BC     		pop	{r7}
  95 0086 7047     		bx	lr
  96              		.cfi_endproc
  97              	.LFE56:
  98              		.size	BUS_Init, .-BUS_Init
  99              		.section	.text.BUS_Transmit,"ax",%progbits
 100              		.align	2
 101              		.thumb
 102              		.thumb_func
 103              		.type	BUS_Transmit, %function
 104              	BUS_Transmit:
 105              	.LFB57:
  33:.\bus.c       **** 
  34:.\bus.c       **** /*****************************************************************/
  35:.\bus.c       **** static STATUS BUS_Transmit(void)
  36:.\bus.c       **** {
 106              		.loc 1 36 0
 107              		.cfi_startproc
 108              		@ args = 0, pretend = 0, frame = 8
 109              		@ frame_needed = 1, uses_anonymous_args = 0
 110 0000 80B5     		push	{r7, lr}
 111              	.LCFI2:
 112              		.cfi_def_cfa_offset 8
 113              		.cfi_offset 7, -8
 114              		.cfi_offset 14, -4
 115 0002 82B0     		sub	sp, sp, #8
 116              	.LCFI3:
 117              		.cfi_def_cfa_offset 16
 118 0004 00AF     		add	r7, sp, #0
 119              	.LCFI4:
 120              		.cfi_def_cfa_register 7
  37:.\bus.c       **** 	STATUS status;
  38:.\bus.c       **** 	int i=0;
 121              		.loc 1 38 0
 122 0006 4FF00003 		mov	r3, #0
 123 000a 3B60     		str	r3, [r7, #0]
  39:.\bus.c       **** 	uint8 tStatus;
  40:.\bus.c       **** 	
  41:.\bus.c       **** 	while ((i<BUS_MSG_BUFFER_SIZE) && (i<Bus.transmit.tBytes))
 124              		.loc 1 41 0
ARM GAS  C:\Users\Martin\AppData\Local\Temp\ccIngenE.s 			page 4


 125 000c 14E0     		b	.L4
 126              	.L11:
  42:.\bus.c       **** 	{
  43:.\bus.c       **** 		while (UART_SERVO_TX_STS_COMPLETE != UART_SERVO_ReadTxStatus())
 127              		.loc 1 43 0
 128 000e 00BF     		nop
 129              	.L5:
 130              		.loc 1 43 0 is_stmt 0 discriminator 1
 131 0010 FFF7FEFF 		bl	UART_SERVO_ReadTxStatus
 132 0014 0346     		mov	r3, r0
 133 0016 012B     		cmp	r3, #1
 134 0018 FAD1     		bne	.L5
  44:.\bus.c       **** 		;
  45:.\bus.c       **** 		
  46:.\bus.c       **** 		UART_SERVO_WriteTxData(Bus.transmit.tBuffer[i]);
 135              		.loc 1 46 0 is_stmt 1
 136 001a 40F20003 		movw	r3, #:lower16:Bus
 137 001e C0F20003 		movt	r3, #:upper16:Bus
 138 0022 1A68     		ldr	r2, [r3, #0]
 139 0024 3B68     		ldr	r3, [r7, #0]
 140 0026 D318     		adds	r3, r2, r3
 141 0028 1B78     		ldrb	r3, [r3, #0]	@ zero_extendqisi2
 142 002a 1846     		mov	r0, r3
 143 002c FFF7FEFF 		bl	UART_SERVO_WriteTxData
  47:.\bus.c       **** 		i++;
 144              		.loc 1 47 0
 145 0030 3B68     		ldr	r3, [r7, #0]
 146 0032 03F10103 		add	r3, r3, #1
 147 0036 3B60     		str	r3, [r7, #0]
 148              	.L4:
  41:.\bus.c       **** 	while ((i<BUS_MSG_BUFFER_SIZE) && (i<Bus.transmit.tBytes))
 149              		.loc 1 41 0 discriminator 1
 150 0038 3B68     		ldr	r3, [r7, #0]
 151 003a 0F2B     		cmp	r3, #15
 152 003c 08DC     		bgt	.L6
  41:.\bus.c       **** 	while ((i<BUS_MSG_BUFFER_SIZE) && (i<Bus.transmit.tBytes))
 153              		.loc 1 41 0 is_stmt 0 discriminator 2
 154 003e 40F20003 		movw	r3, #:lower16:Bus
 155 0042 C0F20003 		movt	r3, #:upper16:Bus
 156 0046 1B79     		ldrb	r3, [r3, #4]	@ zero_extendqisi2
 157 0048 1A46     		mov	r2, r3
 158 004a 3B68     		ldr	r3, [r7, #0]
 159 004c 9A42     		cmp	r2, r3
 160 004e DEDC     		bgt	.L11
 161              	.L6:
  48:.\bus.c       **** 	}
  49:.\bus.c       **** 	
  50:.\bus.c       **** 	if (i != Bus.transmit.tBytes - 1)
 162              		.loc 1 50 0 is_stmt 1
 163 0050 40F20003 		movw	r3, #:lower16:Bus
 164 0054 C0F20003 		movt	r3, #:upper16:Bus
 165 0058 1B79     		ldrb	r3, [r3, #4]	@ zero_extendqisi2
 166 005a 03F1FF32 		add	r2, r3, #-1
 167 005e 3B68     		ldr	r3, [r7, #0]
 168 0060 9A42     		cmp	r2, r3
 169 0062 03D0     		beq	.L8
  51:.\bus.c       **** 		status = BUS_LENGTH_ERROR;
ARM GAS  C:\Users\Martin\AppData\Local\Temp\ccIngenE.s 			page 5


 170              		.loc 1 51 0
 171 0064 4FF0FF03 		mov	r3, #255
 172 0068 FB71     		strb	r3, [r7, #7]
 173 006a 02E0     		b	.L9
 174              	.L8:
  52:.\bus.c       **** 	else
  53:.\bus.c       **** 		status = SUCCESS;
 175              		.loc 1 53 0
 176 006c 4FF00003 		mov	r3, #0
 177 0070 FB71     		strb	r3, [r7, #7]
 178              	.L9:
  54:.\bus.c       **** 	
  55:.\bus.c       **** 	return status;
 179              		.loc 1 55 0
 180 0072 FB79     		ldrb	r3, [r7, #7]	@ zero_extendqisi2
  56:.\bus.c       **** }
 181              		.loc 1 56 0
 182 0074 1846     		mov	r0, r3
 183 0076 07F10807 		add	r7, r7, #8
 184 007a BD46     		mov	sp, r7
 185 007c 80BD     		pop	{r7, pc}
 186              		.cfi_endproc
 187              	.LFE57:
 188              		.size	BUS_Transmit, .-BUS_Transmit
 189 007e 00BF     		.section	.text.BUS_Receive,"ax",%progbits
 190              		.align	2
 191              		.thumb
 192              		.thumb_func
 193              		.type	BUS_Receive, %function
 194              	BUS_Receive:
 195              	.LFB58:
  57:.\bus.c       **** 
  58:.\bus.c       **** //todo: replace by isr
  59:.\bus.c       **** /*****************************************************************/
  60:.\bus.c       **** static STATUS BUS_Receive(void)
  61:.\bus.c       **** {
 196              		.loc 1 61 0
 197              		.cfi_startproc
 198              		@ args = 0, pretend = 0, frame = 8
 199              		@ frame_needed = 1, uses_anonymous_args = 0
 200 0000 90B5     		push	{r4, r7, lr}
 201              	.LCFI5:
 202              		.cfi_def_cfa_offset 12
 203              		.cfi_offset 4, -12
 204              		.cfi_offset 7, -8
 205              		.cfi_offset 14, -4
 206 0002 83B0     		sub	sp, sp, #12
 207              	.LCFI6:
 208              		.cfi_def_cfa_offset 24
 209 0004 00AF     		add	r7, sp, #0
 210              	.LCFI7:
 211              		.cfi_def_cfa_register 7
  62:.\bus.c       **** 	STATUS status;
  63:.\bus.c       **** 	int i=0;
 212              		.loc 1 63 0
 213 0006 4FF00003 		mov	r3, #0
 214 000a 3B60     		str	r3, [r7, #0]
ARM GAS  C:\Users\Martin\AppData\Local\Temp\ccIngenE.s 			page 6


  64:.\bus.c       **** 	
  65:.\bus.c       **** 	Bus.receive.rInProgress = TRUE;
 215              		.loc 1 65 0
 216 000c 40F20003 		movw	r3, #:lower16:Bus
 217 0010 C0F20003 		movt	r3, #:upper16:Bus
 218 0014 4FF00102 		mov	r2, #1
 219 0018 9A73     		strb	r2, [r3, #14]
  66:.\bus.c       **** 	
  67:.\bus.c       **** 	//Returns the number of received bytes remaining in the RX buffer and returns the count in bytes
  68:.\bus.c       **** 	Bus.receive.rBytes = UART_SERVO_GetRxBufferSize();
 220              		.loc 1 68 0
 221 001a FFF7FEFF 		bl	UART_SERVO_GetRxBufferSize
 222 001e 0346     		mov	r3, r0
 223 0020 1A46     		mov	r2, r3
 224 0022 40F20003 		movw	r3, #:lower16:Bus
 225 0026 C0F20003 		movt	r3, #:upper16:Bus
 226 002a 1A73     		strb	r2, [r3, #12]
  69:.\bus.c       **** 	
  70:.\bus.c       **** 	while (Bus.receive.rBytes != 0)
 227              		.loc 1 70 0
 228 002c 17E0     		b	.L13
 229              	.L14:
  71:.\bus.c       **** 	{
  72:.\bus.c       **** 		Bus.receive.rBuffer[i] = UART_SERVO_ReadRxData(); // Returns the next byte of received data.
 230              		.loc 1 72 0
 231 002e 40F20003 		movw	r3, #:lower16:Bus
 232 0032 C0F20003 		movt	r3, #:upper16:Bus
 233 0036 9A68     		ldr	r2, [r3, #8]
 234 0038 3B68     		ldr	r3, [r7, #0]
 235 003a D418     		adds	r4, r2, r3
 236 003c FFF7FEFF 		bl	UART_SERVO_ReadRxData
 237 0040 0346     		mov	r3, r0
 238 0042 2370     		strb	r3, [r4, #0]
  73:.\bus.c       **** 		Bus.receive.rBytes --;
 239              		.loc 1 73 0
 240 0044 40F20003 		movw	r3, #:lower16:Bus
 241 0048 C0F20003 		movt	r3, #:upper16:Bus
 242 004c 1B7B     		ldrb	r3, [r3, #12]	@ zero_extendqisi2
 243 004e 03F1FF33 		add	r3, r3, #-1
 244 0052 DAB2     		uxtb	r2, r3
 245 0054 40F20003 		movw	r3, #:lower16:Bus
 246 0058 C0F20003 		movt	r3, #:upper16:Bus
 247 005c 1A73     		strb	r2, [r3, #12]
 248              	.L13:
  70:.\bus.c       **** 	while (Bus.receive.rBytes != 0)
 249              		.loc 1 70 0 discriminator 1
 250 005e 40F20003 		movw	r3, #:lower16:Bus
 251 0062 C0F20003 		movt	r3, #:upper16:Bus
 252 0066 1B7B     		ldrb	r3, [r3, #12]	@ zero_extendqisi2
 253 0068 002B     		cmp	r3, #0
 254 006a E0D1     		bne	.L14
  74:.\bus.c       **** 	}
  75:.\bus.c       **** 	
  76:.\bus.c       **** 	Bus.receive.rInProgress = FALSE;
 255              		.loc 1 76 0
 256 006c 40F20003 		movw	r3, #:lower16:Bus
 257 0070 C0F20003 		movt	r3, #:upper16:Bus
ARM GAS  C:\Users\Martin\AppData\Local\Temp\ccIngenE.s 			page 7


 258 0074 4FF00002 		mov	r2, #0
 259 0078 9A73     		strb	r2, [r3, #14]
  77:.\bus.c       **** 	
  78:.\bus.c       **** 	if (i != Bus.receive.rBytes - 1)
 260              		.loc 1 78 0
 261 007a 40F20003 		movw	r3, #:lower16:Bus
 262 007e C0F20003 		movt	r3, #:upper16:Bus
 263 0082 1B7B     		ldrb	r3, [r3, #12]	@ zero_extendqisi2
 264 0084 03F1FF32 		add	r2, r3, #-1
 265 0088 3B68     		ldr	r3, [r7, #0]
 266 008a 9A42     		cmp	r2, r3
 267 008c 03D0     		beq	.L15
  79:.\bus.c       **** 		status = BUS_LENGTH_ERROR;
 268              		.loc 1 79 0
 269 008e 4FF0FF03 		mov	r3, #255
 270 0092 FB71     		strb	r3, [r7, #7]
 271 0094 02E0     		b	.L16
 272              	.L15:
  80:.\bus.c       **** 	else
  81:.\bus.c       **** 		status = SUCCESS;
 273              		.loc 1 81 0
 274 0096 4FF00003 		mov	r3, #0
 275 009a FB71     		strb	r3, [r7, #7]
 276              	.L16:
  82:.\bus.c       **** 	
  83:.\bus.c       **** 	return status;
 277              		.loc 1 83 0
 278 009c FB79     		ldrb	r3, [r7, #7]	@ zero_extendqisi2
  84:.\bus.c       **** }
 279              		.loc 1 84 0
 280 009e 1846     		mov	r0, r3
 281 00a0 07F10C07 		add	r7, r7, #12
 282 00a4 BD46     		mov	sp, r7
 283 00a6 90BD     		pop	{r4, r7, pc}
 284              		.cfi_endproc
 285              	.LFE58:
 286              		.size	BUS_Receive, .-BUS_Receive
 287              		.section	.text.BUS_Handler,"ax",%progbits
 288              		.align	2
 289              		.global	BUS_Handler
 290              		.thumb
 291              		.thumb_func
 292              		.type	BUS_Handler, %function
 293              	BUS_Handler:
 294              	.LFB59:
  85:.\bus.c       **** 
  86:.\bus.c       **** /*****************************************************************/
  87:.\bus.c       **** STATUS BUS_Handler(void)
  88:.\bus.c       **** {
 295              		.loc 1 88 0
 296              		.cfi_startproc
 297              		@ args = 0, pretend = 0, frame = 8
 298              		@ frame_needed = 1, uses_anonymous_args = 0
 299 0000 80B5     		push	{r7, lr}
 300              	.LCFI8:
 301              		.cfi_def_cfa_offset 8
 302              		.cfi_offset 7, -8
ARM GAS  C:\Users\Martin\AppData\Local\Temp\ccIngenE.s 			page 8


 303              		.cfi_offset 14, -4
 304 0002 82B0     		sub	sp, sp, #8
 305              	.LCFI9:
 306              		.cfi_def_cfa_offset 16
 307 0004 00AF     		add	r7, sp, #0
 308              	.LCFI10:
 309              		.cfi_def_cfa_register 7
  89:.\bus.c       **** 	STATUS status;
  90:.\bus.c       **** 	
  91:.\bus.c       **** 	if ((Bus.transmit.tRequest == TRUE) && (Bus.receive.rInProgress == FALSE))
 310              		.loc 1 91 0
 311 0006 40F20003 		movw	r3, #:lower16:Bus
 312 000a C0F20003 		movt	r3, #:upper16:Bus
 313 000e 5B79     		ldrb	r3, [r3, #5]	@ zero_extendqisi2
 314 0010 012B     		cmp	r3, #1
 315 0012 12D1     		bne	.L19
 316              		.loc 1 91 0 is_stmt 0 discriminator 1
 317 0014 40F20003 		movw	r3, #:lower16:Bus
 318 0018 C0F20003 		movt	r3, #:upper16:Bus
 319 001c 9B7B     		ldrb	r3, [r3, #14]	@ zero_extendqisi2
 320 001e 002B     		cmp	r3, #0
 321 0020 0BD1     		bne	.L19
  92:.\bus.c       **** 	{
  93:.\bus.c       **** 		if (SUCCESS == BUS_Transmit())
 322              		.loc 1 93 0 is_stmt 1
 323 0022 FFF7FEFF 		bl	BUS_Transmit
 324 0026 0346     		mov	r3, r0
 325 0028 002B     		cmp	r3, #0
 326 002a 06D1     		bne	.L19
  94:.\bus.c       **** 			Bus.transmit.tRequest = FALSE;
 327              		.loc 1 94 0
 328 002c 40F20003 		movw	r3, #:lower16:Bus
 329 0030 C0F20003 		movt	r3, #:upper16:Bus
 330 0034 4FF00002 		mov	r2, #0
 331 0038 5A71     		strb	r2, [r3, #5]
 332              	.L19:
  95:.\bus.c       **** 	}
  96:.\bus.c       **** 	
  97:.\bus.c       **** 	if (Bus.receive.rNewMsg == TRUE)
 333              		.loc 1 97 0
 334 003a 40F20003 		movw	r3, #:lower16:Bus
 335 003e C0F20003 		movt	r3, #:upper16:Bus
 336 0042 5B7B     		ldrb	r3, [r3, #13]	@ zero_extendqisi2
 337 0044 012B     		cmp	r3, #1
 338 0046 0BD1     		bne	.L20
  98:.\bus.c       **** 	{
  99:.\bus.c       **** 		if (SUCCESS == BUS_Receive())
 339              		.loc 1 99 0
 340 0048 FFF7FEFF 		bl	BUS_Receive
 341 004c 0346     		mov	r3, r0
 342 004e 002B     		cmp	r3, #0
 343 0050 06D1     		bne	.L20
 100:.\bus.c       **** 			Bus.receive.rNewMsg = FALSE;
 344              		.loc 1 100 0
 345 0052 40F20003 		movw	r3, #:lower16:Bus
 346 0056 C0F20003 		movt	r3, #:upper16:Bus
 347 005a 4FF00002 		mov	r2, #0
ARM GAS  C:\Users\Martin\AppData\Local\Temp\ccIngenE.s 			page 9


 348 005e 5A73     		strb	r2, [r3, #13]
 349              	.L20:
 101:.\bus.c       **** 	}
 102:.\bus.c       **** 	
 103:.\bus.c       **** 	return status;
 350              		.loc 1 103 0
 351 0060 FB79     		ldrb	r3, [r7, #7]	@ zero_extendqisi2
 104:.\bus.c       **** }
 352              		.loc 1 104 0
 353 0062 1846     		mov	r0, r3
 354 0064 07F10807 		add	r7, r7, #8
 355 0068 BD46     		mov	sp, r7
 356 006a 80BD     		pop	{r7, pc}
 357              		.cfi_endproc
 358              	.LFE59:
 359              		.size	BUS_Handler, .-BUS_Handler
 360              		.text
 361              	.Letext0:
 362              		.file 2 "c:\\program files (x86)\\cypress\\psoc creator\\3.0\\psoc creator\\import\\gnu_cs\\arm\\4
 363              		.file 3 "./Generated_Source/PSoC5/cytypes.h"
 364              		.file 4 ".\\global.h"
 365              		.file 5 ".\\bus.h"
 366              		.file 6 "./Generated_Source/PSoC5/core_cm3.h"