ARM GAS  C:\Users\Martin\AppData\Local\Temp\ccM2HBMD.s 			page 1


   1              		.syntax unified
   2              		.cpu cortex-m3
   3              		.fpu softvfp
   4              		.eabi_attribute 20, 1
   5              		.eabi_attribute 21, 1
   6              		.eabi_attribute 23, 3
   7              		.eabi_attribute 24, 1
   8              		.eabi_attribute 25, 1
   9              		.eabi_attribute 26, 1
  10              		.eabi_attribute 30, 6
  11              		.eabi_attribute 34, 1
  12              		.eabi_attribute 18, 4
  13              		.thumb
  14              		.file	"servo_cds5500.c"
  15              		.text
  16              	.Ltext0:
  17              		.cfi_sections	.debug_frame
  18              		.section	.text.Checksum,"ax",%progbits
  19              		.align	2
  20              		.global	Checksum
  21              		.thumb
  22              		.thumb_func
  23              		.type	Checksum, %function
  24              	Checksum:
  25              	.LFB56:
  26              		.file 1 ".\\servo_cds5500.c"
   1:.\servo_cds5500.c **** /* Copyright (C) <2014> <Martin Schalk>
   2:.\servo_cds5500.c ****  * All rights reserved.
   3:.\servo_cds5500.c ****  *
   4:.\servo_cds5500.c ****  * This software may be modified and distributed under the terms
   5:.\servo_cds5500.c ****  * of the BSD license.  See the LICENSE file for details.
   6:.\servo_cds5500.c ****  */
   7:.\servo_cds5500.c **** 
   8:.\servo_cds5500.c **** #include <project.h>
   9:.\servo_cds5500.c **** #include "servo_cds5500.h"
  10:.\servo_cds5500.c **** #include <stdio.h>
  11:.\servo_cds5500.c **** 
  12:.\servo_cds5500.c **** 
  13:.\servo_cds5500.c **** uint8 Checksum(void)
  14:.\servo_cds5500.c **** {
  27              		.loc 1 14 0
  28              		.cfi_startproc
  29              		@ args = 0, pretend = 0, frame = 8
  30              		@ frame_needed = 1, uses_anonymous_args = 0
  31              		@ link register save eliminated.
  32 0000 80B4     		push	{r7}
  33              	.LCFI0:
  34              		.cfi_def_cfa_offset 4
  35              		.cfi_offset 7, -4
  36 0002 83B0     		sub	sp, sp, #12
  37              	.LCFI1:
  38              		.cfi_def_cfa_offset 16
  39 0004 00AF     		add	r7, sp, #0
  40              	.LCFI2:
  41              		.cfi_def_cfa_register 7
  15:.\servo_cds5500.c **** 	uint8 checksum = 0;
  42              		.loc 1 15 0
ARM GAS  C:\Users\Martin\AppData\Local\Temp\ccM2HBMD.s 			page 2


  43 0006 4FF00003 		mov	r3, #0
  44 000a FB71     		strb	r3, [r7, #7]
  16:.\servo_cds5500.c **** 	
  17:.\servo_cds5500.c **** 	
  18:.\servo_cds5500.c **** 	
  19:.\servo_cds5500.c **** 	return checksum;
  45              		.loc 1 19 0
  46 000c FB79     		ldrb	r3, [r7, #7]	@ zero_extendqisi2
  20:.\servo_cds5500.c **** }
  47              		.loc 1 20 0
  48 000e 1846     		mov	r0, r3
  49 0010 07F10C07 		add	r7, r7, #12
  50 0014 BD46     		mov	sp, r7
  51 0016 80BC     		pop	{r7}
  52 0018 7047     		bx	lr
  53              		.cfi_endproc
  54              	.LFE56:
  55              		.size	Checksum, .-Checksum
  56 001a 00BF     		.section	.text.WritePos,"ax",%progbits
  57              		.align	2
  58              		.global	WritePos
  59              		.thumb
  60              		.thumb_func
  61              		.type	WritePos, %function
  62              	WritePos:
  63              	.LFB57:
  21:.\servo_cds5500.c **** 
  22:.\servo_cds5500.c **** void WritePos(int id, int position, int velocity)
  23:.\servo_cds5500.c **** {
  64              		.loc 1 23 0
  65              		.cfi_startproc
  66              		@ args = 0, pretend = 0, frame = 24
  67              		@ frame_needed = 1, uses_anonymous_args = 0
  68              		@ link register save eliminated.
  69 0000 80B4     		push	{r7}
  70              	.LCFI3:
  71              		.cfi_def_cfa_offset 4
  72              		.cfi_offset 7, -4
  73 0002 87B0     		sub	sp, sp, #28
  74              	.LCFI4:
  75              		.cfi_def_cfa_offset 32
  76 0004 00AF     		add	r7, sp, #0
  77              	.LCFI5:
  78              		.cfi_def_cfa_register 7
  79 0006 F860     		str	r0, [r7, #12]
  80 0008 B960     		str	r1, [r7, #8]
  81 000a 7A60     		str	r2, [r7, #4]
  24:.\servo_cds5500.c **** 	int messageLength = 7;
  82              		.loc 1 24 0
  83 000c 4FF00703 		mov	r3, #7
  84 0010 7B61     		str	r3, [r7, #20]
  25:.\servo_cds5500.c **** 
  26:.\servo_cds5500.c **** 	/*
  27:.\servo_cds5500.c **** 	printf(startByte0);              // send some data
  28:.\servo_cds5500.c **** 	printf(startByte1);
  29:.\servo_cds5500.c **** 	printf(id);
  30:.\servo_cds5500.c **** 	printf(messageLength);
ARM GAS  C:\Users\Martin\AppData\Local\Temp\ccM2HBMD.s 			page 3


  31:.\servo_cds5500.c **** 	printf(INST_WRITE);
  32:.\servo_cds5500.c **** 	printf(P_GOAL_POSITION_L);
  33:.\servo_cds5500.c **** 	printf(pos);
  34:.\servo_cds5500.c **** 	printf(pos2);
  35:.\servo_cds5500.c **** 	printf(vel);
  36:.\servo_cds5500.c **** 	printf(vel2);
  37:.\servo_cds5500.c **** 	printf((~(ID + (messageLength) + INST_WRITE + P_GOAL_POSITION_L + pos + pos2 + vel + vel2))&0xFF);
  38:.\servo_cds5500.c **** 	*/
  39:.\servo_cds5500.c **** }
  85              		.loc 1 39 0
  86 0012 07F11C07 		add	r7, r7, #28
  87 0016 BD46     		mov	sp, r7
  88 0018 80BC     		pop	{r7}
  89 001a 7047     		bx	lr
  90              		.cfi_endproc
  91              	.LFE57:
  92              		.size	WritePos, .-WritePos
  93              		.text
  94              	.Letext0:
  95              		.file 2 "c:\\program files (x86)\\cypress\\psoc creator\\3.0\\psoc creator\\import\\gnu_cs\\arm\\4
  96              		.file 3 "./Generated_Source/PSoC5/cytypes.h"
  97              		.file 4 "./Generated_Source/PSoC5/core_cm3.h"