ARM GAS  C:\Users\Martin\AppData\Local\Temp\cc2exCd9.s 			page 1


   1              		.syntax unified
   2              		.cpu cortex-m3
   3              		.fpu softvfp
   4              		.eabi_attribute 20, 1
   5              		.eabi_attribute 21, 1
   6              		.eabi_attribute 23, 3
   7              		.eabi_attribute 24, 1
   8              		.eabi_attribute 25, 1
   9              		.eabi_attribute 26, 1
  10              		.eabi_attribute 30, 6
  11              		.eabi_attribute 34, 1
  12              		.eabi_attribute 18, 4
  13              		.thumb
  14              		.file	"UART_SERVO_INT.c"
  15              		.text
  16              	.Ltext0:
  17              		.cfi_sections	.debug_frame
  18              		.section	.text.UART_SERVO_RXISR,"ax",%progbits
  19              		.align	2
  20              		.global	UART_SERVO_RXISR
  21              		.thumb
  22              		.thumb_func
  23              		.type	UART_SERVO_RXISR, %function
  24              	UART_SERVO_RXISR:
  25              	.LFB0:
  26              		.file 1 ".\\Generated_Source\\PSoC5\\UART_SERVO_INT.c"
   1:.\Generated_Source\PSoC5/UART_SERVO_INT.c **** /*******************************************************************************
   2:.\Generated_Source\PSoC5/UART_SERVO_INT.c **** * File Name: UART_SERVO_INT.c
   3:.\Generated_Source\PSoC5/UART_SERVO_INT.c **** * Version 2.30
   4:.\Generated_Source\PSoC5/UART_SERVO_INT.c **** *
   5:.\Generated_Source\PSoC5/UART_SERVO_INT.c **** * Description:
   6:.\Generated_Source\PSoC5/UART_SERVO_INT.c **** *  This file provides all Interrupt Service functionality of the UART component
   7:.\Generated_Source\PSoC5/UART_SERVO_INT.c **** *
   8:.\Generated_Source\PSoC5/UART_SERVO_INT.c **** * Note:
   9:.\Generated_Source\PSoC5/UART_SERVO_INT.c **** *  Any unusual or non-standard behavior should be noted here. Other-
  10:.\Generated_Source\PSoC5/UART_SERVO_INT.c **** *  wise, this section should remain blank.
  11:.\Generated_Source\PSoC5/UART_SERVO_INT.c **** *
  12:.\Generated_Source\PSoC5/UART_SERVO_INT.c **** ********************************************************************************
  13:.\Generated_Source\PSoC5/UART_SERVO_INT.c **** * Copyright 2008-2012, Cypress Semiconductor Corporation.  All rights reserved.
  14:.\Generated_Source\PSoC5/UART_SERVO_INT.c **** * You may use this file only in accordance with the license, terms, conditions,
  15:.\Generated_Source\PSoC5/UART_SERVO_INT.c **** * disclaimers, and limitations in the end user license agreement accompanying
  16:.\Generated_Source\PSoC5/UART_SERVO_INT.c **** * the software package with which this file was provided.
  17:.\Generated_Source\PSoC5/UART_SERVO_INT.c **** *******************************************************************************/
  18:.\Generated_Source\PSoC5/UART_SERVO_INT.c **** 
  19:.\Generated_Source\PSoC5/UART_SERVO_INT.c **** #include "UART_SERVO.h"
  20:.\Generated_Source\PSoC5/UART_SERVO_INT.c **** #include "CyLib.h"
  21:.\Generated_Source\PSoC5/UART_SERVO_INT.c **** 
  22:.\Generated_Source\PSoC5/UART_SERVO_INT.c **** 
  23:.\Generated_Source\PSoC5/UART_SERVO_INT.c **** /***************************************
  24:.\Generated_Source\PSoC5/UART_SERVO_INT.c **** * Custom Declratations
  25:.\Generated_Source\PSoC5/UART_SERVO_INT.c **** ***************************************/
  26:.\Generated_Source\PSoC5/UART_SERVO_INT.c **** /* `#START CUSTOM_DECLARATIONS` Place your declaration here */
  27:.\Generated_Source\PSoC5/UART_SERVO_INT.c **** 
  28:.\Generated_Source\PSoC5/UART_SERVO_INT.c **** /* `#END` */
  29:.\Generated_Source\PSoC5/UART_SERVO_INT.c **** 
  30:.\Generated_Source\PSoC5/UART_SERVO_INT.c **** #if( (UART_SERVO_RX_ENABLED || UART_SERVO_HD_ENABLED) && \
  31:.\Generated_Source\PSoC5/UART_SERVO_INT.c ****      (UART_SERVO_RXBUFFERSIZE > UART_SERVO_FIFO_LENGTH))
ARM GAS  C:\Users\Martin\AppData\Local\Temp\cc2exCd9.s 			page 2


  32:.\Generated_Source\PSoC5/UART_SERVO_INT.c **** 
  33:.\Generated_Source\PSoC5/UART_SERVO_INT.c **** 
  34:.\Generated_Source\PSoC5/UART_SERVO_INT.c ****     /*******************************************************************************
  35:.\Generated_Source\PSoC5/UART_SERVO_INT.c ****     * Function Name: UART_SERVO_RXISR
  36:.\Generated_Source\PSoC5/UART_SERVO_INT.c ****     ********************************************************************************
  37:.\Generated_Source\PSoC5/UART_SERVO_INT.c ****     *
  38:.\Generated_Source\PSoC5/UART_SERVO_INT.c ****     * Summary:
  39:.\Generated_Source\PSoC5/UART_SERVO_INT.c ****     *  Interrupt Service Routine for RX portion of the UART
  40:.\Generated_Source\PSoC5/UART_SERVO_INT.c ****     *
  41:.\Generated_Source\PSoC5/UART_SERVO_INT.c ****     * Parameters:
  42:.\Generated_Source\PSoC5/UART_SERVO_INT.c ****     *  None.
  43:.\Generated_Source\PSoC5/UART_SERVO_INT.c ****     *
  44:.\Generated_Source\PSoC5/UART_SERVO_INT.c ****     * Return:
  45:.\Generated_Source\PSoC5/UART_SERVO_INT.c ****     *  None.
  46:.\Generated_Source\PSoC5/UART_SERVO_INT.c ****     *
  47:.\Generated_Source\PSoC5/UART_SERVO_INT.c ****     * Global Variables:
  48:.\Generated_Source\PSoC5/UART_SERVO_INT.c ****     *  UART_SERVO_rxBuffer - RAM buffer pointer for save received data.
  49:.\Generated_Source\PSoC5/UART_SERVO_INT.c ****     *  UART_SERVO_rxBufferWrite - cyclic index for write to rxBuffer,
  50:.\Generated_Source\PSoC5/UART_SERVO_INT.c ****     *     increments after each byte saved to buffer.
  51:.\Generated_Source\PSoC5/UART_SERVO_INT.c ****     *  UART_SERVO_rxBufferRead - cyclic index for read from rxBuffer,
  52:.\Generated_Source\PSoC5/UART_SERVO_INT.c ****     *     checked to detect overflow condition.
  53:.\Generated_Source\PSoC5/UART_SERVO_INT.c ****     *  UART_SERVO_rxBufferOverflow - software overflow flag. Set to one
  54:.\Generated_Source\PSoC5/UART_SERVO_INT.c ****     *     when UART_SERVO_rxBufferWrite index overtakes
  55:.\Generated_Source\PSoC5/UART_SERVO_INT.c ****     *     UART_SERVO_rxBufferRead index.
  56:.\Generated_Source\PSoC5/UART_SERVO_INT.c ****     *  UART_SERVO_rxBufferLoopDetect - additional variable to detect overflow.
  57:.\Generated_Source\PSoC5/UART_SERVO_INT.c ****     *     Set to one when UART_SERVO_rxBufferWrite is equal to
  58:.\Generated_Source\PSoC5/UART_SERVO_INT.c ****     *    UART_SERVO_rxBufferRead
  59:.\Generated_Source\PSoC5/UART_SERVO_INT.c ****     *  UART_SERVO_rxAddressMode - this variable contains the Address mode,
  60:.\Generated_Source\PSoC5/UART_SERVO_INT.c ****     *     selected in customizer or set by UART_SetRxAddressMode() API.
  61:.\Generated_Source\PSoC5/UART_SERVO_INT.c ****     *  UART_SERVO_rxAddressDetected - set to 1 when correct address received,
  62:.\Generated_Source\PSoC5/UART_SERVO_INT.c ****     *     and analysed to store following addressed data bytes to the buffer.
  63:.\Generated_Source\PSoC5/UART_SERVO_INT.c ****     *     When not correct address received, set to 0 to skip following data bytes.
  64:.\Generated_Source\PSoC5/UART_SERVO_INT.c ****     *
  65:.\Generated_Source\PSoC5/UART_SERVO_INT.c ****     *******************************************************************************/
  66:.\Generated_Source\PSoC5/UART_SERVO_INT.c ****     CY_ISR(UART_SERVO_RXISR)
  67:.\Generated_Source\PSoC5/UART_SERVO_INT.c ****     {
  27              		.loc 1 67 0
  28              		.cfi_startproc
  29              		@ args = 0, pretend = 0, frame = 8
  30              		@ frame_needed = 1, uses_anonymous_args = 0
  31              		@ link register save eliminated.
  32 0000 80B4     		push	{r7}
  33              	.LCFI0:
  34              		.cfi_def_cfa_offset 4
  35              		.cfi_offset 7, -4
  36 0002 83B0     		sub	sp, sp, #12
  37              	.LCFI1:
  38              		.cfi_def_cfa_offset 16
  39 0004 00AF     		add	r7, sp, #0
  40              	.LCFI2:
  41              		.cfi_def_cfa_register 7
  68:.\Generated_Source\PSoC5/UART_SERVO_INT.c ****         uint8 readData;
  69:.\Generated_Source\PSoC5/UART_SERVO_INT.c ****         uint8 increment_pointer = 0u;
  42              		.loc 1 69 0
  43 0006 4FF00003 		mov	r3, #0
  44 000a BB71     		strb	r3, [r7, #6]
  70:.\Generated_Source\PSoC5/UART_SERVO_INT.c ****         #if(CY_PSOC3)
ARM GAS  C:\Users\Martin\AppData\Local\Temp\cc2exCd9.s 			page 3


  71:.\Generated_Source\PSoC5/UART_SERVO_INT.c ****             uint8 int_en;
  72:.\Generated_Source\PSoC5/UART_SERVO_INT.c ****         #endif /* CY_PSOC3 */
  73:.\Generated_Source\PSoC5/UART_SERVO_INT.c **** 
  74:.\Generated_Source\PSoC5/UART_SERVO_INT.c ****         /* User code required at start of ISR */
  75:.\Generated_Source\PSoC5/UART_SERVO_INT.c ****         /* `#START UART_SERVO_RXISR_START` */
  76:.\Generated_Source\PSoC5/UART_SERVO_INT.c **** 
  77:.\Generated_Source\PSoC5/UART_SERVO_INT.c ****         /* `#END` */
  78:.\Generated_Source\PSoC5/UART_SERVO_INT.c **** 
  79:.\Generated_Source\PSoC5/UART_SERVO_INT.c ****         #if(CY_PSOC3)   /* Make sure nested interrupt is enabled */
  80:.\Generated_Source\PSoC5/UART_SERVO_INT.c ****             int_en = EA;
  81:.\Generated_Source\PSoC5/UART_SERVO_INT.c ****             CyGlobalIntEnable;
  82:.\Generated_Source\PSoC5/UART_SERVO_INT.c ****         #endif /* CY_PSOC3 */
  83:.\Generated_Source\PSoC5/UART_SERVO_INT.c **** 
  84:.\Generated_Source\PSoC5/UART_SERVO_INT.c ****         readData = UART_SERVO_RXSTATUS_REG;
  45              		.loc 1 84 0
  46 000c 46F26243 		movw	r3, #25698
  47 0010 C4F20003 		movt	r3, 16384
  48 0014 1B78     		ldrb	r3, [r3, #0]
  49 0016 FB71     		strb	r3, [r7, #7]
  85:.\Generated_Source\PSoC5/UART_SERVO_INT.c **** 
  86:.\Generated_Source\PSoC5/UART_SERVO_INT.c ****         if((readData & (UART_SERVO_RX_STS_BREAK | UART_SERVO_RX_STS_PAR_ERROR |
  87:.\Generated_Source\PSoC5/UART_SERVO_INT.c ****                         UART_SERVO_RX_STS_STOP_ERROR | UART_SERVO_RX_STS_OVERRUN)) != 0u)
  88:.\Generated_Source\PSoC5/UART_SERVO_INT.c ****         {
  89:.\Generated_Source\PSoC5/UART_SERVO_INT.c ****             /* ERROR handling. */
  90:.\Generated_Source\PSoC5/UART_SERVO_INT.c ****             /* `#START UART_SERVO_RXISR_ERROR` */
  91:.\Generated_Source\PSoC5/UART_SERVO_INT.c **** 
  92:.\Generated_Source\PSoC5/UART_SERVO_INT.c ****             /* `#END` */
  93:.\Generated_Source\PSoC5/UART_SERVO_INT.c ****         }
  94:.\Generated_Source\PSoC5/UART_SERVO_INT.c **** 
  95:.\Generated_Source\PSoC5/UART_SERVO_INT.c ****         while((readData & UART_SERVO_RX_STS_FIFO_NOTEMPTY) != 0u)
  50              		.loc 1 95 0
  51 0018 5EE0     		b	.L2
  52              	.L6:
  96:.\Generated_Source\PSoC5/UART_SERVO_INT.c ****         {
  97:.\Generated_Source\PSoC5/UART_SERVO_INT.c **** 
  98:.\Generated_Source\PSoC5/UART_SERVO_INT.c ****             #if (UART_SERVO_RXHW_ADDRESS_ENABLED)
  99:.\Generated_Source\PSoC5/UART_SERVO_INT.c ****                 if(UART_SERVO_rxAddressMode == (uint8)UART_SERVO__B_UART__AM_SW_DETECT_TO_BUFFER)
 100:.\Generated_Source\PSoC5/UART_SERVO_INT.c ****                 {
 101:.\Generated_Source\PSoC5/UART_SERVO_INT.c ****                     if((readData & UART_SERVO_RX_STS_MRKSPC) != 0u)
 102:.\Generated_Source\PSoC5/UART_SERVO_INT.c ****                     {
 103:.\Generated_Source\PSoC5/UART_SERVO_INT.c ****                         if ((readData & UART_SERVO_RX_STS_ADDR_MATCH) != 0u)
 104:.\Generated_Source\PSoC5/UART_SERVO_INT.c ****                         {
 105:.\Generated_Source\PSoC5/UART_SERVO_INT.c ****                             UART_SERVO_rxAddressDetected = 1u;
 106:.\Generated_Source\PSoC5/UART_SERVO_INT.c ****                         }
 107:.\Generated_Source\PSoC5/UART_SERVO_INT.c ****                         else
 108:.\Generated_Source\PSoC5/UART_SERVO_INT.c ****                         {
 109:.\Generated_Source\PSoC5/UART_SERVO_INT.c ****                             UART_SERVO_rxAddressDetected = 0u;
 110:.\Generated_Source\PSoC5/UART_SERVO_INT.c ****                         }
 111:.\Generated_Source\PSoC5/UART_SERVO_INT.c ****                     }
 112:.\Generated_Source\PSoC5/UART_SERVO_INT.c **** 
 113:.\Generated_Source\PSoC5/UART_SERVO_INT.c ****                     readData = UART_SERVO_RXDATA_REG;
 114:.\Generated_Source\PSoC5/UART_SERVO_INT.c ****                     if(UART_SERVO_rxAddressDetected != 0u)
 115:.\Generated_Source\PSoC5/UART_SERVO_INT.c ****                     {   /* store only addressed data */
 116:.\Generated_Source\PSoC5/UART_SERVO_INT.c ****                         UART_SERVO_rxBuffer[UART_SERVO_rxBufferWrite] = readData;
 117:.\Generated_Source\PSoC5/UART_SERVO_INT.c ****                         increment_pointer = 1u;
 118:.\Generated_Source\PSoC5/UART_SERVO_INT.c ****                     }
 119:.\Generated_Source\PSoC5/UART_SERVO_INT.c ****                 }
ARM GAS  C:\Users\Martin\AppData\Local\Temp\cc2exCd9.s 			page 4


 120:.\Generated_Source\PSoC5/UART_SERVO_INT.c ****                 else /* without software addressing */
 121:.\Generated_Source\PSoC5/UART_SERVO_INT.c ****                 {
 122:.\Generated_Source\PSoC5/UART_SERVO_INT.c ****                     UART_SERVO_rxBuffer[UART_SERVO_rxBufferWrite] = UART_SERVO_RXDATA_REG;
 123:.\Generated_Source\PSoC5/UART_SERVO_INT.c ****                     increment_pointer = 1u;
 124:.\Generated_Source\PSoC5/UART_SERVO_INT.c ****                 }
 125:.\Generated_Source\PSoC5/UART_SERVO_INT.c ****             #else  /* without addressing */
 126:.\Generated_Source\PSoC5/UART_SERVO_INT.c ****                 UART_SERVO_rxBuffer[UART_SERVO_rxBufferWrite] = UART_SERVO_RXDATA_REG;
  53              		.loc 1 126 0
  54 001a 40F20003 		movw	r3, #:lower16:UART_SERVO_rxBufferWrite
  55 001e C0F20003 		movt	r3, #:upper16:UART_SERVO_rxBufferWrite
  56 0022 1B78     		ldrb	r3, [r3, #0]
  57 0024 DBB2     		uxtb	r3, r3
  58 0026 1A46     		mov	r2, r3
  59 0028 46F24243 		movw	r3, #25666
  60 002c C4F20003 		movt	r3, 16384
  61 0030 1B78     		ldrb	r3, [r3, #0]
  62 0032 D9B2     		uxtb	r1, r3
  63 0034 40F20003 		movw	r3, #:lower16:UART_SERVO_rxBuffer
  64 0038 C0F20003 		movt	r3, #:upper16:UART_SERVO_rxBuffer
  65 003c 9954     		strb	r1, [r3, r2]
 127:.\Generated_Source\PSoC5/UART_SERVO_INT.c ****                 increment_pointer = 1u;
  66              		.loc 1 127 0
  67 003e 4FF00103 		mov	r3, #1
  68 0042 BB71     		strb	r3, [r7, #6]
 128:.\Generated_Source\PSoC5/UART_SERVO_INT.c ****             #endif /* End SW_DETECT_TO_BUFFER */
 129:.\Generated_Source\PSoC5/UART_SERVO_INT.c **** 
 130:.\Generated_Source\PSoC5/UART_SERVO_INT.c ****             /* do not increment buffer pointer when skip not adderessed data */
 131:.\Generated_Source\PSoC5/UART_SERVO_INT.c ****             if( increment_pointer != 0u )
  69              		.loc 1 131 0
  70 0044 BB79     		ldrb	r3, [r7, #6]	@ zero_extendqisi2
  71 0046 002B     		cmp	r3, #0
  72 0048 40D0     		beq	.L3
 132:.\Generated_Source\PSoC5/UART_SERVO_INT.c ****             {
 133:.\Generated_Source\PSoC5/UART_SERVO_INT.c ****                 if(UART_SERVO_rxBufferLoopDetect != 0u)
  73              		.loc 1 133 0
  74 004a 40F20003 		movw	r3, #:lower16:UART_SERVO_rxBufferLoopDetect
  75 004e C0F20003 		movt	r3, #:upper16:UART_SERVO_rxBufferLoopDetect
  76 0052 1B78     		ldrb	r3, [r3, #0]
  77 0054 DBB2     		uxtb	r3, r3
  78 0056 002B     		cmp	r3, #0
  79 0058 06D0     		beq	.L4
 134:.\Generated_Source\PSoC5/UART_SERVO_INT.c ****                 {   /* Set Software Buffer status Overflow */
 135:.\Generated_Source\PSoC5/UART_SERVO_INT.c ****                     UART_SERVO_rxBufferOverflow = 1u;
  80              		.loc 1 135 0
  81 005a 40F20003 		movw	r3, #:lower16:UART_SERVO_rxBufferOverflow
  82 005e C0F20003 		movt	r3, #:upper16:UART_SERVO_rxBufferOverflow
  83 0062 4FF00102 		mov	r2, #1
  84 0066 1A70     		strb	r2, [r3, #0]
  85              	.L4:
 136:.\Generated_Source\PSoC5/UART_SERVO_INT.c ****                 }
 137:.\Generated_Source\PSoC5/UART_SERVO_INT.c ****                 /* Set next pointer. */
 138:.\Generated_Source\PSoC5/UART_SERVO_INT.c ****                 UART_SERVO_rxBufferWrite++;
  86              		.loc 1 138 0
  87 0068 40F20003 		movw	r3, #:lower16:UART_SERVO_rxBufferWrite
  88 006c C0F20003 		movt	r3, #:upper16:UART_SERVO_rxBufferWrite
  89 0070 1B78     		ldrb	r3, [r3, #0]
  90 0072 DBB2     		uxtb	r3, r3
ARM GAS  C:\Users\Martin\AppData\Local\Temp\cc2exCd9.s 			page 5


  91 0074 03F10103 		add	r3, r3, #1
  92 0078 DAB2     		uxtb	r2, r3
  93 007a 40F20003 		movw	r3, #:lower16:UART_SERVO_rxBufferWrite
  94 007e C0F20003 		movt	r3, #:upper16:UART_SERVO_rxBufferWrite
  95 0082 1A70     		strb	r2, [r3, #0]
 139:.\Generated_Source\PSoC5/UART_SERVO_INT.c **** 
 140:.\Generated_Source\PSoC5/UART_SERVO_INT.c ****                 /* Check pointer for a loop condition */
 141:.\Generated_Source\PSoC5/UART_SERVO_INT.c ****                 if(UART_SERVO_rxBufferWrite >= UART_SERVO_RXBUFFERSIZE)
  96              		.loc 1 141 0
  97 0084 40F20003 		movw	r3, #:lower16:UART_SERVO_rxBufferWrite
  98 0088 C0F20003 		movt	r3, #:upper16:UART_SERVO_rxBufferWrite
  99 008c 1B78     		ldrb	r3, [r3, #0]
 100 008e DBB2     		uxtb	r3, r3
 101 0090 1F2B     		cmp	r3, #31
 102 0092 06D9     		bls	.L5
 142:.\Generated_Source\PSoC5/UART_SERVO_INT.c ****                 {
 143:.\Generated_Source\PSoC5/UART_SERVO_INT.c ****                     UART_SERVO_rxBufferWrite = 0u;
 103              		.loc 1 143 0
 104 0094 40F20003 		movw	r3, #:lower16:UART_SERVO_rxBufferWrite
 105 0098 C0F20003 		movt	r3, #:upper16:UART_SERVO_rxBufferWrite
 106 009c 4FF00002 		mov	r2, #0
 107 00a0 1A70     		strb	r2, [r3, #0]
 108              	.L5:
 144:.\Generated_Source\PSoC5/UART_SERVO_INT.c ****                 }
 145:.\Generated_Source\PSoC5/UART_SERVO_INT.c ****                 /* Detect pre-overload condition and set flag */
 146:.\Generated_Source\PSoC5/UART_SERVO_INT.c ****                 if(UART_SERVO_rxBufferWrite == UART_SERVO_rxBufferRead)
 109              		.loc 1 146 0
 110 00a2 40F20003 		movw	r3, #:lower16:UART_SERVO_rxBufferWrite
 111 00a6 C0F20003 		movt	r3, #:upper16:UART_SERVO_rxBufferWrite
 112 00aa 1B78     		ldrb	r3, [r3, #0]
 113 00ac DAB2     		uxtb	r2, r3
 114 00ae 40F20003 		movw	r3, #:lower16:UART_SERVO_rxBufferRead
 115 00b2 C0F20003 		movt	r3, #:upper16:UART_SERVO_rxBufferRead
 116 00b6 1B78     		ldrb	r3, [r3, #0]
 117 00b8 DBB2     		uxtb	r3, r3
 118 00ba 9A42     		cmp	r2, r3
 119 00bc 06D1     		bne	.L3
 147:.\Generated_Source\PSoC5/UART_SERVO_INT.c ****                 {
 148:.\Generated_Source\PSoC5/UART_SERVO_INT.c ****                     UART_SERVO_rxBufferLoopDetect = 1u;
 120              		.loc 1 148 0
 121 00be 40F20003 		movw	r3, #:lower16:UART_SERVO_rxBufferLoopDetect
 122 00c2 C0F20003 		movt	r3, #:upper16:UART_SERVO_rxBufferLoopDetect
 123 00c6 4FF00102 		mov	r2, #1
 124 00ca 1A70     		strb	r2, [r3, #0]
 125              	.L3:
 149:.\Generated_Source\PSoC5/UART_SERVO_INT.c ****                     /* When Hardware Flow Control selected */
 150:.\Generated_Source\PSoC5/UART_SERVO_INT.c ****                     #if(UART_SERVO_FLOW_CONTROL != 0u)
 151:.\Generated_Source\PSoC5/UART_SERVO_INT.c ****                     /* Disable RX interrupt mask, it will be enabled when user read data from the b
 152:.\Generated_Source\PSoC5/UART_SERVO_INT.c ****                         UART_SERVO_RXSTATUS_MASK_REG  &= (uint8)~UART_SERVO_RX_STS_FIFO_NOTEMPTY;
 153:.\Generated_Source\PSoC5/UART_SERVO_INT.c ****                         CyIntClearPending(UART_SERVO_RX_VECT_NUM);
 154:.\Generated_Source\PSoC5/UART_SERVO_INT.c ****                         break; /* Break the reading of the FIFO loop, leave the data there for gene
 155:.\Generated_Source\PSoC5/UART_SERVO_INT.c ****                     #endif /* End UART_SERVO_FLOW_CONTROL != 0 */
 156:.\Generated_Source\PSoC5/UART_SERVO_INT.c ****                 }
 157:.\Generated_Source\PSoC5/UART_SERVO_INT.c ****             }
 158:.\Generated_Source\PSoC5/UART_SERVO_INT.c **** 
 159:.\Generated_Source\PSoC5/UART_SERVO_INT.c ****             /* Check again if there is data. */
 160:.\Generated_Source\PSoC5/UART_SERVO_INT.c ****             readData = UART_SERVO_RXSTATUS_REG;
ARM GAS  C:\Users\Martin\AppData\Local\Temp\cc2exCd9.s 			page 6


 126              		.loc 1 160 0
 127 00cc 46F26243 		movw	r3, #25698
 128 00d0 C4F20003 		movt	r3, 16384
 129 00d4 1B78     		ldrb	r3, [r3, #0]
 130 00d6 FB71     		strb	r3, [r7, #7]
 131              	.L2:
  95:.\Generated_Source\PSoC5/UART_SERVO_INT.c ****         while((readData & UART_SERVO_RX_STS_FIFO_NOTEMPTY) != 0u)
 132              		.loc 1 95 0 discriminator 1
 133 00d8 FB79     		ldrb	r3, [r7, #7]	@ zero_extendqisi2
 134 00da 03F02003 		and	r3, r3, #32
 135 00de 002B     		cmp	r3, #0
 136 00e0 9BD1     		bne	.L6
 161:.\Generated_Source\PSoC5/UART_SERVO_INT.c ****         }
 162:.\Generated_Source\PSoC5/UART_SERVO_INT.c **** 
 163:.\Generated_Source\PSoC5/UART_SERVO_INT.c ****         /* User code required at end of ISR (Optional) */
 164:.\Generated_Source\PSoC5/UART_SERVO_INT.c ****         /* `#START UART_SERVO_RXISR_END` */
 165:.\Generated_Source\PSoC5/UART_SERVO_INT.c **** 
 166:.\Generated_Source\PSoC5/UART_SERVO_INT.c ****         /* `#END` */
 167:.\Generated_Source\PSoC5/UART_SERVO_INT.c **** 
 168:.\Generated_Source\PSoC5/UART_SERVO_INT.c ****         #if(CY_PSOC3)
 169:.\Generated_Source\PSoC5/UART_SERVO_INT.c ****             EA = int_en;
 170:.\Generated_Source\PSoC5/UART_SERVO_INT.c ****         #endif /* CY_PSOC3 */
 171:.\Generated_Source\PSoC5/UART_SERVO_INT.c **** 
 172:.\Generated_Source\PSoC5/UART_SERVO_INT.c ****     }
 137              		.loc 1 172 0
 138 00e2 07F10C07 		add	r7, r7, #12
 139 00e6 BD46     		mov	sp, r7
 140 00e8 80BC     		pop	{r7}
 141 00ea 7047     		bx	lr
 142              		.cfi_endproc
 143              	.LFE0:
 144              		.size	UART_SERVO_RXISR, .-UART_SERVO_RXISR
 145              		.section	.text.UART_SERVO_TXISR,"ax",%progbits
 146              		.align	2
 147              		.global	UART_SERVO_TXISR
 148              		.thumb
 149              		.thumb_func
 150              		.type	UART_SERVO_TXISR, %function
 151              	UART_SERVO_TXISR:
 152              	.LFB1:
 173:.\Generated_Source\PSoC5/UART_SERVO_INT.c **** 
 174:.\Generated_Source\PSoC5/UART_SERVO_INT.c **** #endif /* End UART_SERVO_RX_ENABLED && (UART_SERVO_RXBUFFERSIZE > UART_SERVO_FIFO_LENGTH) */
 175:.\Generated_Source\PSoC5/UART_SERVO_INT.c **** 
 176:.\Generated_Source\PSoC5/UART_SERVO_INT.c **** 
 177:.\Generated_Source\PSoC5/UART_SERVO_INT.c **** #if(UART_SERVO_TX_ENABLED && (UART_SERVO_TXBUFFERSIZE > UART_SERVO_FIFO_LENGTH))
 178:.\Generated_Source\PSoC5/UART_SERVO_INT.c **** 
 179:.\Generated_Source\PSoC5/UART_SERVO_INT.c **** 
 180:.\Generated_Source\PSoC5/UART_SERVO_INT.c ****     /*******************************************************************************
 181:.\Generated_Source\PSoC5/UART_SERVO_INT.c ****     * Function Name: UART_SERVO_TXISR
 182:.\Generated_Source\PSoC5/UART_SERVO_INT.c ****     ********************************************************************************
 183:.\Generated_Source\PSoC5/UART_SERVO_INT.c ****     *
 184:.\Generated_Source\PSoC5/UART_SERVO_INT.c ****     * Summary:
 185:.\Generated_Source\PSoC5/UART_SERVO_INT.c ****     * Interrupt Service Routine for the TX portion of the UART
 186:.\Generated_Source\PSoC5/UART_SERVO_INT.c ****     *
 187:.\Generated_Source\PSoC5/UART_SERVO_INT.c ****     * Parameters:
 188:.\Generated_Source\PSoC5/UART_SERVO_INT.c ****     *  None.
 189:.\Generated_Source\PSoC5/UART_SERVO_INT.c ****     *
ARM GAS  C:\Users\Martin\AppData\Local\Temp\cc2exCd9.s 			page 7


 190:.\Generated_Source\PSoC5/UART_SERVO_INT.c ****     * Return:
 191:.\Generated_Source\PSoC5/UART_SERVO_INT.c ****     *  None.
 192:.\Generated_Source\PSoC5/UART_SERVO_INT.c ****     *
 193:.\Generated_Source\PSoC5/UART_SERVO_INT.c ****     * Global Variables:
 194:.\Generated_Source\PSoC5/UART_SERVO_INT.c ****     *  UART_SERVO_txBuffer - RAM buffer pointer for transmit data from.
 195:.\Generated_Source\PSoC5/UART_SERVO_INT.c ****     *  UART_SERVO_txBufferRead - cyclic index for read and transmit data
 196:.\Generated_Source\PSoC5/UART_SERVO_INT.c ****     *     from txBuffer, increments after each transmited byte.
 197:.\Generated_Source\PSoC5/UART_SERVO_INT.c ****     *  UART_SERVO_rxBufferWrite - cyclic index for write to txBuffer,
 198:.\Generated_Source\PSoC5/UART_SERVO_INT.c ****     *     checked to detect available for transmission bytes.
 199:.\Generated_Source\PSoC5/UART_SERVO_INT.c ****     *
 200:.\Generated_Source\PSoC5/UART_SERVO_INT.c ****     *******************************************************************************/
 201:.\Generated_Source\PSoC5/UART_SERVO_INT.c ****     CY_ISR(UART_SERVO_TXISR)
 202:.\Generated_Source\PSoC5/UART_SERVO_INT.c ****     {
 153              		.loc 1 202 0
 154              		.cfi_startproc
 155              		@ args = 0, pretend = 0, frame = 0
 156              		@ frame_needed = 1, uses_anonymous_args = 0
 157              		@ link register save eliminated.
 158 0000 80B4     		push	{r7}
 159              	.LCFI3:
 160              		.cfi_def_cfa_offset 4
 161              		.cfi_offset 7, -4
 162 0002 00AF     		add	r7, sp, #0
 163              	.LCFI4:
 164              		.cfi_def_cfa_register 7
 203:.\Generated_Source\PSoC5/UART_SERVO_INT.c **** 
 204:.\Generated_Source\PSoC5/UART_SERVO_INT.c ****         #if(CY_PSOC3)
 205:.\Generated_Source\PSoC5/UART_SERVO_INT.c ****             uint8 int_en;
 206:.\Generated_Source\PSoC5/UART_SERVO_INT.c ****         #endif /* CY_PSOC3 */
 207:.\Generated_Source\PSoC5/UART_SERVO_INT.c **** 
 208:.\Generated_Source\PSoC5/UART_SERVO_INT.c ****         /* User code required at start of ISR */
 209:.\Generated_Source\PSoC5/UART_SERVO_INT.c ****         /* `#START UART_SERVO_TXISR_START` */
 210:.\Generated_Source\PSoC5/UART_SERVO_INT.c **** 
 211:.\Generated_Source\PSoC5/UART_SERVO_INT.c ****         /* `#END` */
 212:.\Generated_Source\PSoC5/UART_SERVO_INT.c **** 
 213:.\Generated_Source\PSoC5/UART_SERVO_INT.c ****         #if(CY_PSOC3)   /* Make sure nested interrupt is enabled */
 214:.\Generated_Source\PSoC5/UART_SERVO_INT.c ****             int_en = EA;
 215:.\Generated_Source\PSoC5/UART_SERVO_INT.c ****             CyGlobalIntEnable;
 216:.\Generated_Source\PSoC5/UART_SERVO_INT.c ****         #endif /* CY_PSOC3 */
 217:.\Generated_Source\PSoC5/UART_SERVO_INT.c **** 
 218:.\Generated_Source\PSoC5/UART_SERVO_INT.c ****         while((UART_SERVO_txBufferRead != UART_SERVO_txBufferWrite) &&
 165              		.loc 1 218 0
 166 0004 2EE0     		b	.L8
 167              	.L11:
 219:.\Generated_Source\PSoC5/UART_SERVO_INT.c ****              ((UART_SERVO_TXSTATUS_REG & UART_SERVO_TX_STS_FIFO_FULL) == 0u))
 220:.\Generated_Source\PSoC5/UART_SERVO_INT.c ****         {
 221:.\Generated_Source\PSoC5/UART_SERVO_INT.c ****             /* Check pointer. */
 222:.\Generated_Source\PSoC5/UART_SERVO_INT.c ****             if(UART_SERVO_txBufferRead >= UART_SERVO_TXBUFFERSIZE)
 168              		.loc 1 222 0
 169 0006 40F20003 		movw	r3, #:lower16:UART_SERVO_txBufferRead
 170 000a C0F20003 		movt	r3, #:upper16:UART_SERVO_txBufferRead
 171 000e 1B78     		ldrb	r3, [r3, #0]
 172 0010 DBB2     		uxtb	r3, r3
 173 0012 1F2B     		cmp	r3, #31
 174 0014 06D9     		bls	.L9
 223:.\Generated_Source\PSoC5/UART_SERVO_INT.c ****             {
 224:.\Generated_Source\PSoC5/UART_SERVO_INT.c ****                 UART_SERVO_txBufferRead = 0u;
ARM GAS  C:\Users\Martin\AppData\Local\Temp\cc2exCd9.s 			page 8


 175              		.loc 1 224 0
 176 0016 40F20003 		movw	r3, #:lower16:UART_SERVO_txBufferRead
 177 001a C0F20003 		movt	r3, #:upper16:UART_SERVO_txBufferRead
 178 001e 4FF00002 		mov	r2, #0
 179 0022 1A70     		strb	r2, [r3, #0]
 180              	.L9:
 225:.\Generated_Source\PSoC5/UART_SERVO_INT.c ****             }
 226:.\Generated_Source\PSoC5/UART_SERVO_INT.c **** 
 227:.\Generated_Source\PSoC5/UART_SERVO_INT.c ****             UART_SERVO_TXDATA_REG = UART_SERVO_txBuffer[UART_SERVO_txBufferRead];
 181              		.loc 1 227 0
 182 0024 46F24043 		movw	r3, #25664
 183 0028 C4F20003 		movt	r3, 16384
 184 002c 40F20002 		movw	r2, #:lower16:UART_SERVO_txBufferRead
 185 0030 C0F20002 		movt	r2, #:upper16:UART_SERVO_txBufferRead
 186 0034 1278     		ldrb	r2, [r2, #0]
 187 0036 D2B2     		uxtb	r2, r2
 188 0038 1146     		mov	r1, r2
 189 003a 40F20002 		movw	r2, #:lower16:UART_SERVO_txBuffer
 190 003e C0F20002 		movt	r2, #:upper16:UART_SERVO_txBuffer
 191 0042 525C     		ldrb	r2, [r2, r1]
 192 0044 D2B2     		uxtb	r2, r2
 193 0046 1A70     		strb	r2, [r3, #0]
 228:.\Generated_Source\PSoC5/UART_SERVO_INT.c **** 
 229:.\Generated_Source\PSoC5/UART_SERVO_INT.c ****             /* Set next pointer. */
 230:.\Generated_Source\PSoC5/UART_SERVO_INT.c ****             UART_SERVO_txBufferRead++;
 194              		.loc 1 230 0
 195 0048 40F20003 		movw	r3, #:lower16:UART_SERVO_txBufferRead
 196 004c C0F20003 		movt	r3, #:upper16:UART_SERVO_txBufferRead
 197 0050 1B78     		ldrb	r3, [r3, #0]
 198 0052 DBB2     		uxtb	r3, r3
 199 0054 03F10103 		add	r3, r3, #1
 200 0058 DAB2     		uxtb	r2, r3
 201 005a 40F20003 		movw	r3, #:lower16:UART_SERVO_txBufferRead
 202 005e C0F20003 		movt	r3, #:upper16:UART_SERVO_txBufferRead
 203 0062 1A70     		strb	r2, [r3, #0]
 204              	.L8:
 218:.\Generated_Source\PSoC5/UART_SERVO_INT.c ****         while((UART_SERVO_txBufferRead != UART_SERVO_txBufferWrite) &&
 205              		.loc 1 218 0 discriminator 1
 206 0064 40F20003 		movw	r3, #:lower16:UART_SERVO_txBufferRead
 207 0068 C0F20003 		movt	r3, #:upper16:UART_SERVO_txBufferRead
 208 006c 1B78     		ldrb	r3, [r3, #0]
 209 006e DAB2     		uxtb	r2, r3
 210 0070 40F20003 		movw	r3, #:lower16:UART_SERVO_txBufferWrite
 211 0074 C0F20003 		movt	r3, #:upper16:UART_SERVO_txBufferWrite
 212 0078 1B78     		ldrb	r3, [r3, #0]	@ zero_extendqisi2
 213 007a 9A42     		cmp	r2, r3
 214 007c 09D0     		beq	.L7
 219:.\Generated_Source\PSoC5/UART_SERVO_INT.c ****              ((UART_SERVO_TXSTATUS_REG & UART_SERVO_TX_STS_FIFO_FULL) == 0u))
 215              		.loc 1 219 0 discriminator 2
 216 007e 46F26043 		movw	r3, #25696
 217 0082 C4F20003 		movt	r3, 16384
 218 0086 1B78     		ldrb	r3, [r3, #0]
 219 0088 DBB2     		uxtb	r3, r3
 220 008a 03F00403 		and	r3, r3, #4
 218:.\Generated_Source\PSoC5/UART_SERVO_INT.c ****         while((UART_SERVO_txBufferRead != UART_SERVO_txBufferWrite) &&
 221              		.loc 1 218 0 discriminator 2
 222 008e 002B     		cmp	r3, #0
ARM GAS  C:\Users\Martin\AppData\Local\Temp\cc2exCd9.s 			page 9


 223 0090 B9D0     		beq	.L11
 224              	.L7:
 231:.\Generated_Source\PSoC5/UART_SERVO_INT.c ****         }
 232:.\Generated_Source\PSoC5/UART_SERVO_INT.c **** 
 233:.\Generated_Source\PSoC5/UART_SERVO_INT.c ****         /* User code required at end of ISR (Optional) */
 234:.\Generated_Source\PSoC5/UART_SERVO_INT.c ****         /* `#START UART_SERVO_TXISR_END` */
 235:.\Generated_Source\PSoC5/UART_SERVO_INT.c **** 
 236:.\Generated_Source\PSoC5/UART_SERVO_INT.c ****         /* `#END` */
 237:.\Generated_Source\PSoC5/UART_SERVO_INT.c **** 
 238:.\Generated_Source\PSoC5/UART_SERVO_INT.c ****         #if(CY_PSOC3)
 239:.\Generated_Source\PSoC5/UART_SERVO_INT.c ****             EA = int_en;
 240:.\Generated_Source\PSoC5/UART_SERVO_INT.c ****         #endif /* CY_PSOC3 */
 241:.\Generated_Source\PSoC5/UART_SERVO_INT.c **** 
 242:.\Generated_Source\PSoC5/UART_SERVO_INT.c ****     }
 225              		.loc 1 242 0
 226 0092 BD46     		mov	sp, r7
 227 0094 80BC     		pop	{r7}
 228 0096 7047     		bx	lr
 229              		.cfi_endproc
 230              	.LFE1:
 231              		.size	UART_SERVO_TXISR, .-UART_SERVO_TXISR
 232              		.text
 233              	.Letext0:
 234              		.file 2 ".\\Generated_Source\\PSoC5\\cytypes.h"
 235              		.file 3 ".\\Generated_Source\\PSoC5\\UART_SERVO.h"