ARM GAS  C:\Users\Martin\AppData\Local\Temp\ccIanqXP.s 			page 1


   1              		.syntax unified
   2              		.cpu cortex-m3
   3              		.fpu softvfp
   4              		.eabi_attribute 20, 1
   5              		.eabi_attribute 21, 1
   6              		.eabi_attribute 23, 3
   7              		.eabi_attribute 24, 1
   8              		.eabi_attribute 25, 1
   9              		.eabi_attribute 26, 1
  10              		.eabi_attribute 30, 6
  11              		.eabi_attribute 18, 4
  12              		.thumb
  13              		.file	"bal.c"
  20 0000 DE000000 		.text
  20      02008200 
  20      00000201 
  20      FB0E0D00 
  20      01010101 
  21              	.Ltext0:
  22              		.cfi_sections	.debug_frame
  23              		.section	.text.BAL_ServoMsg,"ax",%progbits
  24              		.align	2
  25              		.global	BAL_ServoMsg
  26              		.thumb
  27              		.thumb_func
  28              		.type	BAL_ServoMsg, %function
  29              	BAL_ServoMsg:
  30              	.LFB29:
  31              		.file 1 ".\\bal.c"
   1:.\bal.c       **** /* Copyright (C) <2014> <Martin Schalk>
   2:.\bal.c       ****  * All rights reserved.
   3:.\bal.c       ****  *
   4:.\bal.c       ****  * This software may be modified and distributed under the terms
   5:.\bal.c       ****  * of the BSD license.  See the LICENSE file for details.
   6:.\bal.c       ****  */
   7:.\bal.c       **** 
   8:.\bal.c       **** #include <project.h>
   9:.\bal.c       **** #include <stdio.h>
  10:.\bal.c       **** #include "bal.h"
  11:.\bal.c       **** #include "bpl.h"
  12:.\bal.c       **** 
  13:.\bal.c       **** #include "servo_cds5500.h"
  14:.\bal.c       **** #include "global.h"
  15:.\bal.c       **** #include "tmr.h"
  16:.\bal.c       **** 
  17:.\bal.c       **** //static uint8 MsgReceiveBuffer[BAL_MSG_RECEIVE_BUFFER_SIZE];
  18:.\bal.c       **** //static uint8 MsgTransmitBuffer[BAL_MSG_RECEIVE_BUFFER_SIZE];
  19:.\bal.c       **** 
  20:.\bal.c       **** /*****************************************************************/
  21:.\bal.c       **** /* | startbyte0 | startbyte1 | motorId | length | instrId | instrParams[8] | checksum | 
  22:.\bal.c       ****      0            1            2         3        4         5                13       
ARM GAS  C:\Users\Martin\AppData\Local\Temp\ccIanqXP.s 			page 2


  23:.\bal.c       ****      length = 1(instrId) + sizeof(instrParams) + 1(checksum)
  24:.\bal.c       **** */
  25:.\bal.c       **** STATUS BAL_ServoMsg(CDS5500_MSG* msg)
  26:.\bal.c       **** {
  32              		.loc 1 26 0
  33              		.cfi_startproc
  34              		@ args = 0, pretend = 0, frame = 16
  35              		@ frame_needed = 1, uses_anonymous_args = 0
  36 0000 80B5     		push	{r7, lr}
  37              	.LCFI0:
  38              		.cfi_def_cfa_offset 8
  39 0002 84B0     		sub	sp, sp, #16
  40              	.LCFI1:
  41              		.cfi_def_cfa_offset 24
  42 0004 00AF     		add	r7, sp, #0
  43              		.cfi_offset 14, -4
  44              		.cfi_offset 7, -8
  45              	.LCFI2:
  46              		.cfi_def_cfa_register 7
  47 0006 7860     		str	r0, [r7, #4]
  27:.\bal.c       ****     STATUS status;
  28:.\bal.c       ****             
  29:.\bal.c       ****     if (msg->motorId > 254)
  48              		.loc 1 29 0
  49 0008 7B68     		ldr	r3, [r7, #4]
  50 000a 9B78     		ldrb	r3, [r3, #2]	@ zero_extendqisi2
  51 000c FF2B     		cmp	r3, #255
  52 000e 03D1     		bne	.L2
  30:.\bal.c       ****         status = CDS5500_ERROR_MOTOR_ID;
  53              		.loc 1 30 0
  54 0010 6FF00903 		mvn	r3, #9
  55 0014 FB73     		strb	r3, [r7, #15]
  56 0016 28E0     		b	.L3
  57              	.L2:
  31:.\bal.c       ****     else  if (msg->length > CDS5500_INST_LENGTH_MAX) 
  58              		.loc 1 31 0
  59 0018 7B68     		ldr	r3, [r7, #4]
  60 001a DB78     		ldrb	r3, [r3, #3]	@ zero_extendqisi2
  61 001c 0A2B     		cmp	r3, #10
  62 001e 03D9     		bls	.L4
  32:.\bal.c       ****         status = CDS5500_ERROR_LENGTH;
  63              		.loc 1 32 0
  64 0020 6FF00A03 		mvn	r3, #10
  65 0024 FB73     		strb	r3, [r7, #15]
  66 0026 20E0     		b	.L3
  67              	.L4:
  33:.\bal.c       ****     else  if (msg->instrId == 0) 
  68              		.loc 1 33 0
  69 0028 7B68     		ldr	r3, [r7, #4]
  70 002a 1B79     		ldrb	r3, [r3, #4]	@ zero_extendqisi2
  71 002c 002B     		cmp	r3, #0
  72 002e 03D1     		bne	.L5
  34:.\bal.c       ****         status = CDS5500_ERROR_INSTR_ID;
  73              		.loc 1 34 0
  74 0030 6FF00B03 		mvn	r3, #11
  75 0034 FB73     		strb	r3, [r7, #15]
  76 0036 18E0     		b	.L3
ARM GAS  C:\Users\Martin\AppData\Local\Temp\ccIanqXP.s 			page 3


  77              	.L5:
  35:.\bal.c       ****     else  if ((msg->instrParams)[msg->length - CDS5500_COMPLEMENTARY_BYTES] == 0) 
  78              		.loc 1 35 0
  79 0038 7B68     		ldr	r3, [r7, #4]
  80 003a DB78     		ldrb	r3, [r3, #3]	@ zero_extendqisi2
  81 003c A3F10202 		sub	r2, r3, #2
  82 0040 7B68     		ldr	r3, [r7, #4]
  83 0042 1344     		add	r3, r2, r3
  84 0044 5B79     		ldrb	r3, [r3, #5]	@ zero_extendqisi2
  85 0046 002B     		cmp	r3, #0
  86 0048 03D1     		bne	.L6
  36:.\bal.c       ****         status = CDS5500_ERROR_CHKSUM;
  87              		.loc 1 36 0
  88 004a 6FF00C03 		mvn	r3, #12
  89 004e FB73     		strb	r3, [r7, #15]
  90 0050 0BE0     		b	.L3
  91              	.L6:
  37:.\bal.c       ****     else
  38:.\bal.c       ****     {
  39:.\bal.c       ****         status = BPL_TransmitMessage((uint8*)msg, msg->length + 4); 
  92              		.loc 1 39 0
  93 0052 7A68     		ldr	r2, [r7, #4]
  94 0054 7B68     		ldr	r3, [r7, #4]
  95 0056 DB78     		ldrb	r3, [r3, #3]	@ zero_extendqisi2
  96 0058 03F10403 		add	r3, r3, #4
  97 005c DBB2     		uxtb	r3, r3
  98 005e 1046     		mov	r0, r2
  99 0060 1946     		mov	r1, r3
 100 0062 FFF7FEFF 		bl	BPL_TransmitMessage
 101 0066 0346     		mov	r3, r0
 102 0068 FB73     		strb	r3, [r7, #15]
 103              	.L3:
  40:.\bal.c       ****         // 1(startbyte0) + 1(startbyte1) + 1(motorId) + 1(length) = +4
  41:.\bal.c       ****         // 1(instrId) + 1(checksum) = +2
  42:.\bal.c       ****     }
  43:.\bal.c       ****     
  44:.\bal.c       **** 	return status;
 104              		.loc 1 44 0
 105 006a FB7B     		ldrb	r3, [r7, #15]	@ zero_extendqisi2
  45:.\bal.c       **** }
 106              		.loc 1 45 0
 107 006c 1846     		mov	r0, r3
 108 006e 07F11007 		add	r7, r7, #16
 109 0072 BD46     		mov	sp, r7
 110 0074 80BD     		pop	{r7, pc}
 111              		.cfi_endproc
 112              	.LFE29:
 113              		.size	BAL_ServoMsg, .-BAL_ServoMsg
 114 0076 00BF     		.section	.text.BAL_SendAck,"ax",%progbits
 115              		.align	2
 116              		.global	BAL_SendAck
 117              		.thumb
 118              		.thumb_func
 119              		.type	BAL_SendAck, %function
 120              	BAL_SendAck:
 121              	.LFB30:
  46:.\bal.c       **** 
ARM GAS  C:\Users\Martin\AppData\Local\Temp\ccIanqXP.s 			page 4


  47:.\bal.c       **** 
  48:.\bal.c       **** /*****************************************************************/
  49:.\bal.c       **** /* | id0 | id1 | length | *content | 
  50:.\bal.c       ****      0     1     2        3     
  51:.\bal.c       ****      length = sizeof(content)
  52:.\bal.c       **** */
  53:.\bal.c       **** /*
  54:.\bal.c       **** !!!  if compiled, calling BAL_ServoMsg causes call of BAL_SendMsg instead 
  55:.\bal.c       ****        reason not yet found !!!
  56:.\bal.c       **** 
  57:.\bal.c       **** STATUS BAL_SendMsg(BAL_MSG* msg)
  58:.\bal.c       **** {
  59:.\bal.c       ****     STATUS status;
  60:.\bal.c       ****     uint8 buffer[3+msg->length];
  61:.\bal.c       ****     
  62:.\bal.c       ****     buffer[0] = (uint8)(msg->id << 8);
  63:.\bal.c       ****     buffer[1] = (uint8)(msg->id);
  64:.\bal.c       ****     buffer[2] = msg->length;
  65:.\bal.c       ****     memcpy(&buffer[3], msg->content, msg->length);
  66:.\bal.c       ****     
  67:.\bal.c       ****     status = BPL_TransmitMessage(buffer, msg->length + 3);
  68:.\bal.c       ****     
  69:.\bal.c       **** 	return SUCCESS;
  70:.\bal.c       **** }
  71:.\bal.c       **** */
  72:.\bal.c       **** 
  73:.\bal.c       **** 
  74:.\bal.c       **** /*****************************************************************/
  75:.\bal.c       **** /* range of val: BAL_ACK_OK, BAL_ACK_NOK */
  76:.\bal.c       **** STATUS BAL_SendAck(uint8 val)
  77:.\bal.c       **** {
 122              		.loc 1 77 0
 123              		.cfi_startproc
 124              		@ args = 0, pretend = 0, frame = 16
 125              		@ frame_needed = 1, uses_anonymous_args = 0
 126 0000 80B5     		push	{r7, lr}
 127              	.LCFI3:
 128              		.cfi_def_cfa_offset 8
 129 0002 84B0     		sub	sp, sp, #16
 130              	.LCFI4:
 131              		.cfi_def_cfa_offset 24
 132 0004 00AF     		add	r7, sp, #0
 133              		.cfi_offset 14, -4
 134              		.cfi_offset 7, -8
 135              	.LCFI5:
 136              		.cfi_def_cfa_register 7
 137 0006 0346     		mov	r3, r0
 138 0008 FB71     		strb	r3, [r7, #7]
  78:.\bal.c       ****     uint8 buffer[] = {  (uint8)(BAL_MSG_ID_ACK << 8), 
  79:.\bal.c       ****                         (uint8)(BAL_MSG_ID_ACK),
  80:.\bal.c       ****                         BAL_MSG_LENGTH_ACK, 
  81:.\bal.c       ****                         val
  82:.\bal.c       ****                      };
 139              		.loc 1 82 0
 140 000a 4FF00003 		mov	r3, #0
 141 000e 3B73     		strb	r3, [r7, #12]
 142 0010 4FF00103 		mov	r3, #1
ARM GAS  C:\Users\Martin\AppData\Local\Temp\ccIanqXP.s 			page 5


 143 0014 7B73     		strb	r3, [r7, #13]
 144 0016 4FF00103 		mov	r3, #1
 145 001a BB73     		strb	r3, [r7, #14]
 146 001c FB79     		ldrb	r3, [r7, #7]
 147 001e FB73     		strb	r3, [r7, #15]
  83:.\bal.c       ****     
  84:.\bal.c       ****     
  85:.\bal.c       ****     return BPL_TransmitMessage(buffer, 4);
 148              		.loc 1 85 0
 149 0020 07F10C03 		add	r3, r7, #12
 150 0024 1846     		mov	r0, r3
 151 0026 4FF00401 		mov	r1, #4
 152 002a FFF7FEFF 		bl	BPL_TransmitMessage
 153 002e 0346     		mov	r3, r0
  86:.\bal.c       **** }
 154              		.loc 1 86 0
 155 0030 1846     		mov	r0, r3
 156 0032 07F11007 		add	r7, r7, #16
 157 0036 BD46     		mov	sp, r7
 158 0038 80BD     		pop	{r7, pc}
 159              		.cfi_endproc
 160              	.LFE30:
 161              		.size	BAL_SendAck, .-BAL_SendAck
 162 003a 00BF     		.section	.text.BAL_Init,"ax",%progbits
 163              		.align	2
 164              		.global	BAL_Init
 165              		.thumb
 166              		.thumb_func
 167              		.type	BAL_Init, %function
 168              	BAL_Init:
 169              	.LFB31:
  87:.\bal.c       **** 
  88:.\bal.c       **** /*****************************************************************/
  89:.\bal.c       **** STATUS BAL_Init(void)
  90:.\bal.c       **** {   
 170              		.loc 1 90 0
 171              		.cfi_startproc
 172              		@ args = 0, pretend = 0, frame = 0
 173              		@ frame_needed = 1, uses_anonymous_args = 0
 174              		@ link register save eliminated.
 175 0000 80B4     		push	{r7}
 176              	.LCFI6:
 177              		.cfi_def_cfa_offset 4
 178 0002 00AF     		add	r7, sp, #0
 179              		.cfi_offset 7, -4
 180              	.LCFI7:
 181              		.cfi_def_cfa_register 7
  91:.\bal.c       **** 	return SUCCESS;
 182              		.loc 1 91 0
 183 0004 4FF00003 		mov	r3, #0
  92:.\bal.c       **** }
 184              		.loc 1 92 0
 185 0008 1846     		mov	r0, r3
 186 000a BD46     		mov	sp, r7
 187 000c 80BC     		pop	{r7}
 188 000e 7047     		bx	lr
 189              		.cfi_endproc
ARM GAS  C:\Users\Martin\AppData\Local\Temp\ccIanqXP.s 			page 6


 190              	.LFE31:
 191              		.size	BAL_Init, .-BAL_Init
 192              		.section	.text.BAL_HandleTask,"ax",%progbits
 193              		.align	2
 194              		.global	BAL_HandleTask
 195              		.thumb
 196              		.thumb_func
 197              		.type	BAL_HandleTask, %function
 198              	BAL_HandleTask:
 199              	.LFB32:
  93:.\bal.c       **** 
  94:.\bal.c       **** 
  95:.\bal.c       **** /*****************************************************************/
  96:.\bal.c       **** STATUS BAL_HandleTask(void)
  97:.\bal.c       **** {
 200              		.loc 1 97 0
 201              		.cfi_startproc
 202              		@ args = 0, pretend = 0, frame = 16
 203              		@ frame_needed = 1, uses_anonymous_args = 0
 204 0000 80B5     		push	{r7, lr}
 205              	.LCFI8:
 206              		.cfi_def_cfa_offset 8
 207 0002 84B0     		sub	sp, sp, #16
 208              	.LCFI9:
 209              		.cfi_def_cfa_offset 24
 210 0004 00AF     		add	r7, sp, #0
 211              		.cfi_offset 14, -4
 212              		.cfi_offset 7, -8
 213              	.LCFI10:
 214              		.cfi_def_cfa_register 7
  98:.\bal.c       ****     STATUS balStatus, bplStatus;
  99:.\bal.c       ****     CDS5500_MSG servoMsg;
 100:.\bal.c       ****     
 101:.\bal.c       ****     // Check for servo respose (status packet)
 102:.\bal.c       ****     //| 0XFF | 0XFF | ID | Length | Status | Parameter1 ...Parameter N | Check Sum |
 103:.\bal.c       ****     // ---------------------------------------
 104:.\bal.c       ****     if (BPL_CDS5500_ucGetRxMessageCount() > 0)
 215              		.loc 1 104 0
 216 0006 FFF7FEFF 		bl	BPL_CDS5500_ucGetRxMessageCount
 217 000a 0346     		mov	r3, r0
 218 000c 002B     		cmp	r3, #0
 219 000e 0AD0     		beq	.L13
 105:.\bal.c       ****     {
 106:.\bal.c       ****         bplStatus = BPL_CDS5500_GetResponse(&servoMsg); //TODO: check with more than one messages i
 220              		.loc 1 106 0
 221 0010 3B46     		mov	r3, r7
 222 0012 1846     		mov	r0, r3
 223 0014 FFF7FEFF 		bl	BPL_CDS5500_GetResponse
 224 0018 0346     		mov	r3, r0
 225 001a FB73     		strb	r3, [r7, #15]
 107:.\bal.c       ****         
 108:.\bal.c       ****         // Check status
 109:.\bal.c       ****         if ((bplStatus == BPL_SUCCESS) && (servoMsg.instrId != CDS5500_STATUS_OK))
 226              		.loc 1 109 0
 227 001c FB7B     		ldrb	r3, [r7, #15]	@ zero_extendqisi2
 228 001e 002B     		cmp	r3, #0
 229 0020 01D1     		bne	.L13
ARM GAS  C:\Users\Martin\AppData\Local\Temp\ccIanqXP.s 			page 7


 230 0022 3B79     		ldrb	r3, [r7, #4]	@ zero_extendqisi2
 231 0024 002B     		cmp	r3, #0
 232              	.L13:
 110:.\bal.c       ****         {
 111:.\bal.c       ****             if(servoMsg.instrId & CDS5500_ERROR_INSTRUCTION_BIT)
 112:.\bal.c       ****             {
 113:.\bal.c       ****                 // undefined instruction was sent or an action instruction was sent without a Reg_W
 114:.\bal.c       ****                 // action: none
 115:.\bal.c       ****             }
 116:.\bal.c       ****             if(servoMsg.instrId & CDS5500_ERROR_OVERLOAD_BIT)
 117:.\bal.c       ****             {
 118:.\bal.c       ****                 // specified maximum torque can't control the applied load.
 119:.\bal.c       ****                 // action: ?
 120:.\bal.c       ****             }
 121:.\bal.c       ****             if(servoMsg.instrId & CDS5500_ERROR_CHECKSUM_BIT)
 122:.\bal.c       ****             {
 123:.\bal.c       ****                 // checksum of the instruction packet is incorrect.
 124:.\bal.c       ****                 // action: send last message again
 125:.\bal.c       ****             }
 126:.\bal.c       ****             if(servoMsg.instrId & CDS5500_ERROR_RANGE_BIT)
 127:.\bal.c       ****             {
 128:.\bal.c       ****                 // instruction sent is out of the defined range. 
 129:.\bal.c       ****                 // action: ?
 130:.\bal.c       ****             }
 131:.\bal.c       ****             if(servoMsg.instrId & CDS5500_ERROR_OVERHEATING_BIT)
 132:.\bal.c       ****             {
 133:.\bal.c       ****                 // internal temperature of the CDS55xx unit is above the operating temperature rang
 134:.\bal.c       ****                 // action: ?
 135:.\bal.c       ****             }
 136:.\bal.c       ****             if(servoMsg.instrId & CDS5500_ERROR_POSITION_LIMIT_BIT)
 137:.\bal.c       ****             {
 138:.\bal.c       ****                 // target position is set outside of the range between CW Angle Limit and CCW Angle
 139:.\bal.c       ****                 // action: ?
 140:.\bal.c       ****             }
 141:.\bal.c       ****             if(servoMsg.instrId & CDS5500_ERROR_INPUT_VOLTAGE_BIT)
 142:.\bal.c       ****             {
 143:.\bal.c       ****                 // voltage is out of the operating voltage range as defined in the control table. 
 144:.\bal.c       ****                 // action: ?
 145:.\bal.c       ****             }
 146:.\bal.c       ****             
 147:.\bal.c       ****         }
 148:.\bal.c       ****     }
 149:.\bal.c       ****     
 150:.\bal.c       ****     return balStatus;
 233              		.loc 1 150 0
 234 0026 BB7B     		ldrb	r3, [r7, #14]	@ zero_extendqisi2
 151:.\bal.c       **** }
 235              		.loc 1 151 0
 236 0028 1846     		mov	r0, r3
 237 002a 07F11007 		add	r7, r7, #16
 238 002e BD46     		mov	sp, r7
 239 0030 80BD     		pop	{r7, pc}
 240              		.cfi_endproc
 241              	.LFE32:
 242              		.size	BAL_HandleTask, .-BAL_HandleTask
 243 0032 00BF     		.text
 244              	.Letext0:
ARM GAS  C:\Users\Martin\AppData\Local\Temp\ccIanqXP.s 			page 8

