ARM GAS  C:\Users\Martin\AppData\Local\Temp\ccjlQWOY.s 			page 1


   1              		.syntax unified
   2              		.cpu cortex-m3
   3              		.fpu softvfp
   4              		.eabi_attribute 20, 1
   5              		.eabi_attribute 21, 1
   6              		.eabi_attribute 23, 3
   7              		.eabi_attribute 24, 1
   8              		.eabi_attribute 25, 1
   9              		.eabi_attribute 26, 1
  10              		.eabi_attribute 30, 6
  11              		.eabi_attribute 18, 4
  12              		.thumb
  13              		.file	"bpl.c"
  20 0000 E1010000 		.text
  20      02001C01 
  20      00000201 
  20      FB0E0D00 
  20      01010101 
  21              	.Ltext0:
  22              		.cfi_sections	.debug_frame
  23              		.bss
  24              		.align	2
  25              	BPL_aucReceiveBuffer:
  26 0000 00000000 		.space	256
  26      00000000 
  26      00000000 
  26      00000000 
  26      00000000 
  27              		.align	2
  28              	BPL_aucTransmitBuffer:
  29 0100 00000000 		.space	256
  29      00000000 
  29      00000000 
  29      00000000 
  29      00000000 
  30              	BPL_ucReceiveBufferIndex:
  31 0200 00       		.space	1
  32              	BPL_ucTransmitBufferIndex:
  33 0201 00       		.space	1
  34              	BPL_CDS5500_ucRxMessageCount:
  35 0202 00       		.space	1
  36 0203 00       		.section	.text.BPL_Init,"ax",%progbits
  37              		.align	2
  38              		.global	BPL_Init
  39              		.thumb
  40              		.thumb_func
  41              		.type	BPL_Init, %function
  42              	BPL_Init:
  43              	.LFB29:
  44              		.file 1 ".\\bpl.c"
   1:.\bpl.c       **** /* Copyright (C) <2014> <Martin Schalk>
ARM GAS  C:\Users\Martin\AppData\Local\Temp\ccjlQWOY.s 			page 2


   2:.\bpl.c       ****  * All rights reserved.
   3:.\bpl.c       ****  *
   4:.\bpl.c       ****  * This software may be modified and distributed under the terms
   5:.\bpl.c       ****  * of the BSD license.  See the LICENSE file for details.
   6:.\bpl.c       ****  */
   7:.\bpl.c       **** 
   8:.\bpl.c       **** 
   9:.\bpl.c       **** #include <project.h>
  10:.\bpl.c       **** #include "global.h"
  11:.\bpl.c       **** #include <stdio.h>
  12:.\bpl.c       **** 
  13:.\bpl.c       **** #include "hal.h"
  14:.\bpl.c       **** #include "bpl.h"
  15:.\bpl.c       **** #include "error.h"
  16:.\bpl.c       **** #include "ring_buffer.h"
  17:.\bpl.c       **** #include "servo_cds5500.h"
  18:.\bpl.c       **** 
  19:.\bpl.c       **** 
  20:.\bpl.c       **** // buffers
  21:.\bpl.c       **** static uint8_t 	BPL_aucReceiveBuffer[BPL_RX_BUFFER_SIZE];
  22:.\bpl.c       **** static uint8_t 	BPL_aucTransmitBuffer[BPL_TX_BUFFER_SIZE];
  23:.\bpl.c       **** 
  24:.\bpl.c       **** static uint8_t  BPL_ucReceiveBufferIndex;
  25:.\bpl.c       **** static uint8_t  BPL_ucTransmitBufferIndex;
  26:.\bpl.c       **** 
  27:.\bpl.c       **** static uint8_t  BPL_CDS5500_ucRxMessageCount = 0;
  28:.\bpl.c       **** /*
  29:.\bpl.c       **** static STATUS BplStatus = BPL_STATUS_OK;
  30:.\bpl.c       **** */
  31:.\bpl.c       **** 
  32:.\bpl.c       **** /*******************************************************/
  33:.\bpl.c       **** STATUS BPL_Init(void)
  34:.\bpl.c       **** {
  45              		.loc 1 34 0
  46              		.cfi_startproc
  47              		@ args = 0, pretend = 0, frame = 0
  48              		@ frame_needed = 1, uses_anonymous_args = 0
  49 0000 80B5     		push	{r7, lr}
  50              	.LCFI0:
  51              		.cfi_def_cfa_offset 8
  52 0002 00AF     		add	r7, sp, #0
  53              		.cfi_offset 14, -4
  54              		.cfi_offset 7, -8
  55              	.LCFI1:
  56              		.cfi_def_cfa_register 7
  35:.\bpl.c       ****     //register buffers as ring buffers
  36:.\bpl.c       ****     BPL_ucReceiveBufferIndex = RBF_ucRegisterBuffer(BPL_aucReceiveBuffer, BPL_RX_BUFFER_SIZE);
  57              		.loc 1 36 0
  58 0004 40F20000 		movw	r0, #:lower16:BPL_aucReceiveBuffer
  59 0008 C0F20000 		movt	r0, #:upper16:BPL_aucReceiveBuffer
  60 000c 4FF48071 		mov	r1, #256
  61 0010 FFF7FEFF 		bl	RBF_ucRegisterBuffer
  62 0014 0346     		mov	r3, r0
  63 0016 1A46     		mov	r2, r3
  64 0018 40F20003 		movw	r3, #:lower16:BPL_ucReceiveBufferIndex
  65 001c C0F20003 		movt	r3, #:upper16:BPL_ucReceiveBufferIndex
  66 0020 1A70     		strb	r2, [r3, #0]
ARM GAS  C:\Users\Martin\AppData\Local\Temp\ccjlQWOY.s 			page 3


  37:.\bpl.c       ****     BPL_ucTransmitBufferIndex = RBF_ucRegisterBuffer(BPL_aucTransmitBuffer, BPL_TX_BUFFER_SIZE);
  67              		.loc 1 37 0
  68 0022 40F20000 		movw	r0, #:lower16:BPL_aucTransmitBuffer
  69 0026 C0F20000 		movt	r0, #:upper16:BPL_aucTransmitBuffer
  70 002a 4FF48071 		mov	r1, #256
  71 002e FFF7FEFF 		bl	RBF_ucRegisterBuffer
  72 0032 0346     		mov	r3, r0
  73 0034 1A46     		mov	r2, r3
  74 0036 40F20003 		movw	r3, #:lower16:BPL_ucTransmitBufferIndex
  75 003a C0F20003 		movt	r3, #:upper16:BPL_ucTransmitBufferIndex
  76 003e 1A70     		strb	r2, [r3, #0]
  38:.\bpl.c       ****     
  39:.\bpl.c       ****     return SUCCESS;	
  77              		.loc 1 39 0
  78 0040 4FF00003 		mov	r3, #0
  40:.\bpl.c       **** }
  79              		.loc 1 40 0
  80 0044 1846     		mov	r0, r3
  81 0046 80BD     		pop	{r7, pc}
  82              		.cfi_endproc
  83              	.LFE29:
  84              		.size	BPL_Init, .-BPL_Init
  85              		.section	.text.BPL_CDS5500_ucGetRxMessageCount,"ax",%progbits
  86              		.align	2
  87              		.global	BPL_CDS5500_ucGetRxMessageCount
  88              		.thumb
  89              		.thumb_func
  90              		.type	BPL_CDS5500_ucGetRxMessageCount, %function
  91              	BPL_CDS5500_ucGetRxMessageCount:
  92              	.LFB30:
  41:.\bpl.c       **** 
  42:.\bpl.c       **** /*******************************************************/
  43:.\bpl.c       **** uint8_t BPL_CDS5500_ucGetRxMessageCount(void)
  44:.\bpl.c       **** {
  93              		.loc 1 44 0
  94              		.cfi_startproc
  95              		@ args = 0, pretend = 0, frame = 0
  96              		@ frame_needed = 1, uses_anonymous_args = 0
  97              		@ link register save eliminated.
  98 0000 80B4     		push	{r7}
  99              	.LCFI2:
 100              		.cfi_def_cfa_offset 4
 101 0002 00AF     		add	r7, sp, #0
 102              		.cfi_offset 7, -4
 103              	.LCFI3:
 104              		.cfi_def_cfa_register 7
  45:.\bpl.c       ****     return BPL_CDS5500_ucRxMessageCount;
 105              		.loc 1 45 0
 106 0004 40F20003 		movw	r3, #:lower16:BPL_CDS5500_ucRxMessageCount
 107 0008 C0F20003 		movt	r3, #:upper16:BPL_CDS5500_ucRxMessageCount
 108 000c 1B78     		ldrb	r3, [r3, #0]	@ zero_extendqisi2
  46:.\bpl.c       **** }
 109              		.loc 1 46 0
 110 000e 1846     		mov	r0, r3
 111 0010 BD46     		mov	sp, r7
 112 0012 80BC     		pop	{r7}
 113 0014 7047     		bx	lr
ARM GAS  C:\Users\Martin\AppData\Local\Temp\ccjlQWOY.s 			page 4


 114              		.cfi_endproc
 115              	.LFE30:
 116              		.size	BPL_CDS5500_ucGetRxMessageCount, .-BPL_CDS5500_ucGetRxMessageCount
 117 0016 00BF     		.section	.text.BPL_CDS5500_ucSetRxMessageCount,"ax",%progbits
 118              		.align	2
 119              		.global	BPL_CDS5500_ucSetRxMessageCount
 120              		.thumb
 121              		.thumb_func
 122              		.type	BPL_CDS5500_ucSetRxMessageCount, %function
 123              	BPL_CDS5500_ucSetRxMessageCount:
 124              	.LFB31:
  47:.\bpl.c       **** 
  48:.\bpl.c       **** /*******************************************************/
  49:.\bpl.c       **** void BPL_CDS5500_ucSetRxMessageCount(uint8_t ucVal)
  50:.\bpl.c       **** {
 125              		.loc 1 50 0
 126              		.cfi_startproc
 127              		@ args = 0, pretend = 0, frame = 8
 128              		@ frame_needed = 1, uses_anonymous_args = 0
 129              		@ link register save eliminated.
 130 0000 80B4     		push	{r7}
 131              	.LCFI4:
 132              		.cfi_def_cfa_offset 4
 133 0002 83B0     		sub	sp, sp, #12
 134              	.LCFI5:
 135              		.cfi_def_cfa_offset 16
 136 0004 00AF     		add	r7, sp, #0
 137              		.cfi_offset 7, -4
 138              	.LCFI6:
 139              		.cfi_def_cfa_register 7
 140 0006 0346     		mov	r3, r0
 141 0008 FB71     		strb	r3, [r7, #7]
  51:.\bpl.c       ****     BPL_CDS5500_ucRxMessageCount = ucVal;
 142              		.loc 1 51 0
 143 000a 40F20003 		movw	r3, #:lower16:BPL_CDS5500_ucRxMessageCount
 144 000e C0F20003 		movt	r3, #:upper16:BPL_CDS5500_ucRxMessageCount
 145 0012 FA79     		ldrb	r2, [r7, #7]
 146 0014 1A70     		strb	r2, [r3, #0]
  52:.\bpl.c       **** }
 147              		.loc 1 52 0
 148 0016 07F10C07 		add	r7, r7, #12
 149 001a BD46     		mov	sp, r7
 150 001c 80BC     		pop	{r7}
 151 001e 7047     		bx	lr
 152              		.cfi_endproc
 153              	.LFE31:
 154              		.size	BPL_CDS5500_ucSetRxMessageCount, .-BPL_CDS5500_ucSetRxMessageCount
 155              		.section	.text.BPL_GetReceiveMsgCount,"ax",%progbits
 156              		.align	2
 157              		.global	BPL_GetReceiveMsgCount
 158              		.thumb
 159              		.thumb_func
 160              		.type	BPL_GetReceiveMsgCount, %function
 161              	BPL_GetReceiveMsgCount:
 162              	.LFB32:
  53:.\bpl.c       **** 
  54:.\bpl.c       **** /*******************************************************/
ARM GAS  C:\Users\Martin\AppData\Local\Temp\ccjlQWOY.s 			page 5


  55:.\bpl.c       **** uint8 BPL_GetReceiveMsgCount(void)
  56:.\bpl.c       **** {
 163              		.loc 1 56 0
 164              		.cfi_startproc
 165              		@ args = 0, pretend = 0, frame = 0
 166              		@ frame_needed = 1, uses_anonymous_args = 0
 167 0000 80B5     		push	{r7, lr}
 168              	.LCFI7:
 169              		.cfi_def_cfa_offset 8
 170 0002 00AF     		add	r7, sp, #0
 171              		.cfi_offset 14, -4
 172              		.cfi_offset 7, -8
 173              	.LCFI8:
 174              		.cfi_def_cfa_register 7
  57:.\bpl.c       ****     return RBF_ucGetByteCount(BPL_ucReceiveBufferIndex);
 175              		.loc 1 57 0
 176 0004 40F20003 		movw	r3, #:lower16:BPL_ucReceiveBufferIndex
 177 0008 C0F20003 		movt	r3, #:upper16:BPL_ucReceiveBufferIndex
 178 000c 1B78     		ldrb	r3, [r3, #0]	@ zero_extendqisi2
 179 000e 1846     		mov	r0, r3
 180 0010 FFF7FEFF 		bl	RBF_ucGetByteCount
 181 0014 0346     		mov	r3, r0
  58:.\bpl.c       **** }
 182              		.loc 1 58 0
 183 0016 1846     		mov	r0, r3
 184 0018 80BD     		pop	{r7, pc}
 185              		.cfi_endproc
 186              	.LFE32:
 187              		.size	BPL_GetReceiveMsgCount, .-BPL_GetReceiveMsgCount
 188 001a 00BF     		.section	.text.BPL_GetMessage,"ax",%progbits
 189              		.align	2
 190              		.global	BPL_GetMessage
 191              		.thumb
 192              		.thumb_func
 193              		.type	BPL_GetMessage, %function
 194              	BPL_GetMessage:
 195              	.LFB33:
  59:.\bpl.c       **** 
  60:.\bpl.c       **** /*******************************************************/
  61:.\bpl.c       **** uint8 BPL_GetMessage(uint8* target)
  62:.\bpl.c       **** {
 196              		.loc 1 62 0
 197              		.cfi_startproc
 198              		@ args = 0, pretend = 0, frame = 16
 199              		@ frame_needed = 1, uses_anonymous_args = 0
 200 0000 80B5     		push	{r7, lr}
 201              	.LCFI9:
 202              		.cfi_def_cfa_offset 8
 203 0002 84B0     		sub	sp, sp, #16
 204              	.LCFI10:
 205              		.cfi_def_cfa_offset 24
 206 0004 00AF     		add	r7, sp, #0
 207              		.cfi_offset 14, -4
 208              		.cfi_offset 7, -8
 209              	.LCFI11:
 210              		.cfi_def_cfa_register 7
 211 0006 7860     		str	r0, [r7, #4]
ARM GAS  C:\Users\Martin\AppData\Local\Temp\ccjlQWOY.s 			page 6


  63:.\bpl.c       ****     STATUS rbfStatus;
  64:.\bpl.c       ****     uint8_t ucNumBytes;
  65:.\bpl.c       ****     
  66:.\bpl.c       ****     if (RBF_ucGetMsgCount(BPL_ucReceiveBufferIndex) == 0)
 212              		.loc 1 66 0
 213 0008 40F20003 		movw	r3, #:lower16:BPL_ucReceiveBufferIndex
 214 000c C0F20003 		movt	r3, #:upper16:BPL_ucReceiveBufferIndex
 215 0010 1B78     		ldrb	r3, [r3, #0]	@ zero_extendqisi2
 216 0012 1846     		mov	r0, r3
 217 0014 FFF7FEFF 		bl	RBF_ucGetMsgCount
 218 0018 0346     		mov	r3, r0
 219 001a 002B     		cmp	r3, #0
 220 001c 02D1     		bne	.L10
  67:.\bpl.c       ****         return 0;
 221              		.loc 1 67 0
 222 001e 4FF00003 		mov	r3, #0
 223 0022 0EE0     		b	.L11
 224              	.L10:
  68:.\bpl.c       ****     
  69:.\bpl.c       ****     rbfStatus = RBF_ucTailMsgOut(BPL_ucReceiveBufferIndex, target, &ucNumBytes);
 225              		.loc 1 69 0
 226 0024 40F20003 		movw	r3, #:lower16:BPL_ucReceiveBufferIndex
 227 0028 C0F20003 		movt	r3, #:upper16:BPL_ucReceiveBufferIndex
 228 002c 1A78     		ldrb	r2, [r3, #0]	@ zero_extendqisi2
 229 002e 07F10E03 		add	r3, r7, #14
 230 0032 1046     		mov	r0, r2
 231 0034 7968     		ldr	r1, [r7, #4]
 232 0036 1A46     		mov	r2, r3
 233 0038 FFF7FEFF 		bl	RBF_ucTailMsgOut
 234 003c 0346     		mov	r3, r0
 235 003e FB73     		strb	r3, [r7, #15]
  70:.\bpl.c       ****     
  71:.\bpl.c       ****     return ucNumBytes;
 236              		.loc 1 71 0
 237 0040 BB7B     		ldrb	r3, [r7, #14]	@ zero_extendqisi2
 238              	.L11:
  72:.\bpl.c       **** }
 239              		.loc 1 72 0
 240 0042 1846     		mov	r0, r3
 241 0044 07F11007 		add	r7, r7, #16
 242 0048 BD46     		mov	sp, r7
 243 004a 80BD     		pop	{r7, pc}
 244              		.cfi_endproc
 245              	.LFE33:
 246              		.size	BPL_GetMessage, .-BPL_GetMessage
 247              		.section	.text.BPL_CDS5500_GetResponse,"ax",%progbits
 248              		.align	2
 249              		.global	BPL_CDS5500_GetResponse
 250              		.thumb
 251              		.thumb_func
 252              		.type	BPL_CDS5500_GetResponse, %function
 253              	BPL_CDS5500_GetResponse:
 254              	.LFB34:
  73:.\bpl.c       **** 
  74:.\bpl.c       **** /*******************************************************/
  75:.\bpl.c       **** /**
  76:.\bpl.c       **** Status packet:
ARM GAS  C:\Users\Martin\AppData\Local\Temp\ccjlQWOY.s 			page 7


  77:.\bpl.c       **** | 0XFF | 0XFF | ID | Length | Status | Parameter1 ...Parameter N | Check Sum | 
  78:.\bpl.c       **** */
  79:.\bpl.c       **** STATUS BPL_CDS5500_GetResponse(CDS5500_MSG* targetAddr)
  80:.\bpl.c       **** {
 255              		.loc 1 80 0
 256              		.cfi_startproc
 257              		@ args = 0, pretend = 0, frame = 32
 258              		@ frame_needed = 1, uses_anonymous_args = 0
 259 0000 80B5     		push	{r7, lr}
 260              	.LCFI12:
 261              		.cfi_def_cfa_offset 8
 262 0002 88B0     		sub	sp, sp, #32
 263              	.LCFI13:
 264              		.cfi_def_cfa_offset 40
 265 0004 00AF     		add	r7, sp, #0
 266              		.cfi_offset 14, -4
 267              		.cfi_offset 7, -8
 268              	.LCFI14:
 269              		.cfi_def_cfa_register 7
 270 0006 7860     		str	r0, [r7, #4]
  81:.\bpl.c       ****     STATUS rbfStatus, bplStatus;
  82:.\bpl.c       ****     CDS5500_MSG msg;
  83:.\bpl.c       ****     uint8_t ucTempChecksum;
  84:.\bpl.c       ****     uint8_t ucNumBytes = RBF_ucGetByteCount(BPL_ucReceiveBufferIndex);
 271              		.loc 1 84 0
 272 0008 40F20003 		movw	r3, #:lower16:BPL_ucReceiveBufferIndex
 273 000c C0F20003 		movt	r3, #:upper16:BPL_ucReceiveBufferIndex
 274 0010 1B78     		ldrb	r3, [r3, #0]	@ zero_extendqisi2
 275 0012 1846     		mov	r0, r3
 276 0014 FFF7FEFF 		bl	RBF_ucGetByteCount
 277 0018 0346     		mov	r3, r0
 278 001a FB76     		strb	r3, [r7, #27]
  85:.\bpl.c       ****     int i;
  86:.\bpl.c       ****     
  87:.\bpl.c       ****     // First check if any bytes received
  88:.\bpl.c       ****     if ((ucNumBytes == 0) || (ucNumBytes < CDS5500_STATUS_PACKET_MIN_LENGTH))
 279              		.loc 1 88 0
 280 001c FB7E     		ldrb	r3, [r7, #27]	@ zero_extendqisi2
 281 001e 002B     		cmp	r3, #0
 282 0020 02D0     		beq	.L14
 283 0022 FB7E     		ldrb	r3, [r7, #27]	@ zero_extendqisi2
 284 0024 052B     		cmp	r3, #5
 285 0026 02D8     		bhi	.L15
 286              	.L14:
  89:.\bpl.c       ****         return BPL_STATUS_RX_ERROR;
 287              		.loc 1 89 0
 288 0028 4FF0FC03 		mov	r3, #252
 289 002c C3E0     		b	.L16
 290              	.L15:
  90:.\bpl.c       ****     
  91:.\bpl.c       ****     rbfStatus = RBF_ucTailByteOut(BPL_ucReceiveBufferIndex, &(msg.startbyte0)); //FF
 291              		.loc 1 91 0
 292 002e 40F20003 		movw	r3, #:lower16:BPL_ucReceiveBufferIndex
 293 0032 C0F20003 		movt	r3, #:upper16:BPL_ucReceiveBufferIndex
 294 0036 1A78     		ldrb	r2, [r3, #0]	@ zero_extendqisi2
 295 0038 07F10803 		add	r3, r7, #8
 296 003c 1046     		mov	r0, r2
ARM GAS  C:\Users\Martin\AppData\Local\Temp\ccjlQWOY.s 			page 8


 297 003e 1946     		mov	r1, r3
 298 0040 FFF7FEFF 		bl	RBF_ucTailByteOut
 299 0044 0346     		mov	r3, r0
 300 0046 3B76     		strb	r3, [r7, #24]
  92:.\bpl.c       ****     rbfStatus = RBF_ucTailByteOut(BPL_ucReceiveBufferIndex, &(msg.startbyte1)); //FF
 301              		.loc 1 92 0
 302 0048 40F20003 		movw	r3, #:lower16:BPL_ucReceiveBufferIndex
 303 004c C0F20003 		movt	r3, #:upper16:BPL_ucReceiveBufferIndex
 304 0050 1A78     		ldrb	r2, [r3, #0]	@ zero_extendqisi2
 305 0052 07F10803 		add	r3, r7, #8
 306 0056 03F10103 		add	r3, r3, #1
 307 005a 1046     		mov	r0, r2
 308 005c 1946     		mov	r1, r3
 309 005e FFF7FEFF 		bl	RBF_ucTailByteOut
 310 0062 0346     		mov	r3, r0
 311 0064 3B76     		strb	r3, [r7, #24]
  93:.\bpl.c       ****     rbfStatus = RBF_ucTailByteOut(BPL_ucReceiveBufferIndex, &(msg.motorId));    //ID
 312              		.loc 1 93 0
 313 0066 40F20003 		movw	r3, #:lower16:BPL_ucReceiveBufferIndex
 314 006a C0F20003 		movt	r3, #:upper16:BPL_ucReceiveBufferIndex
 315 006e 1A78     		ldrb	r2, [r3, #0]	@ zero_extendqisi2
 316 0070 07F10803 		add	r3, r7, #8
 317 0074 03F10203 		add	r3, r3, #2
 318 0078 1046     		mov	r0, r2
 319 007a 1946     		mov	r1, r3
 320 007c FFF7FEFF 		bl	RBF_ucTailByteOut
 321 0080 0346     		mov	r3, r0
 322 0082 3B76     		strb	r3, [r7, #24]
  94:.\bpl.c       ****     rbfStatus = RBF_ucTailByteOut(BPL_ucReceiveBufferIndex, &(msg.length));     //Length
 323              		.loc 1 94 0
 324 0084 40F20003 		movw	r3, #:lower16:BPL_ucReceiveBufferIndex
 325 0088 C0F20003 		movt	r3, #:upper16:BPL_ucReceiveBufferIndex
 326 008c 1A78     		ldrb	r2, [r3, #0]	@ zero_extendqisi2
 327 008e 07F10803 		add	r3, r7, #8
 328 0092 03F10303 		add	r3, r3, #3
 329 0096 1046     		mov	r0, r2
 330 0098 1946     		mov	r1, r3
 331 009a FFF7FEFF 		bl	RBF_ucTailByteOut
 332 009e 0346     		mov	r3, r0
 333 00a0 3B76     		strb	r3, [r7, #24]
  95:.\bpl.c       ****     rbfStatus = RBF_ucTailByteOut(BPL_ucReceiveBufferIndex, &(msg.instrId));    //Status
 334              		.loc 1 95 0
 335 00a2 40F20003 		movw	r3, #:lower16:BPL_ucReceiveBufferIndex
 336 00a6 C0F20003 		movt	r3, #:upper16:BPL_ucReceiveBufferIndex
 337 00aa 1A78     		ldrb	r2, [r3, #0]	@ zero_extendqisi2
 338 00ac 07F10803 		add	r3, r7, #8
 339 00b0 03F10403 		add	r3, r3, #4
 340 00b4 1046     		mov	r0, r2
 341 00b6 1946     		mov	r1, r3
 342 00b8 FFF7FEFF 		bl	RBF_ucTailByteOut
 343 00bc 0346     		mov	r3, r0
 344 00be 3B76     		strb	r3, [r7, #24]
  96:.\bpl.c       ****     
  97:.\bpl.c       ****     for (i=0; i<msg.length-CDS5500_COMPLEMENTARY_BYTES; i++)
 345              		.loc 1 97 0
 346 00c0 4FF00003 		mov	r3, #0
 347 00c4 FB61     		str	r3, [r7, #28]
ARM GAS  C:\Users\Martin\AppData\Local\Temp\ccjlQWOY.s 			page 9


 348 00c6 14E0     		b	.L17
 349              	.L18:
  98:.\bpl.c       ****     {
  99:.\bpl.c       ****         rbfStatus = RBF_ucTailByteOut(BPL_ucReceiveBufferIndex, &(msg.instrParams[i]));    //Parame
 350              		.loc 1 99 0
 351 00c8 40F20003 		movw	r3, #:lower16:BPL_ucReceiveBufferIndex
 352 00cc C0F20003 		movt	r3, #:upper16:BPL_ucReceiveBufferIndex
 353 00d0 1A78     		ldrb	r2, [r3, #0]	@ zero_extendqisi2
 354 00d2 F969     		ldr	r1, [r7, #28]
 355 00d4 07F10803 		add	r3, r7, #8
 356 00d8 03F10503 		add	r3, r3, #5
 357 00dc 0B44     		add	r3, r3, r1
 358 00de 1046     		mov	r0, r2
 359 00e0 1946     		mov	r1, r3
 360 00e2 FFF7FEFF 		bl	RBF_ucTailByteOut
 361 00e6 0346     		mov	r3, r0
 362 00e8 3B76     		strb	r3, [r7, #24]
 363              		.loc 1 97 0
 364 00ea FB69     		ldr	r3, [r7, #28]
 365 00ec 03F10103 		add	r3, r3, #1
 366 00f0 FB61     		str	r3, [r7, #28]
 367              	.L17:
 368 00f2 FB7A     		ldrb	r3, [r7, #11]	@ zero_extendqisi2
 369 00f4 A3F10202 		sub	r2, r3, #2
 370 00f8 FB69     		ldr	r3, [r7, #28]
 371 00fa 9A42     		cmp	r2, r3
 372 00fc E4DC     		bgt	.L18
 100:.\bpl.c       ****     }
 101:.\bpl.c       ****     
 102:.\bpl.c       ****     rbfStatus = RBF_ucTailByteOut(BPL_ucReceiveBufferIndex, &(msg.checksum));    //checksum
 373              		.loc 1 102 0
 374 00fe 40F20003 		movw	r3, #:lower16:BPL_ucReceiveBufferIndex
 375 0102 C0F20003 		movt	r3, #:upper16:BPL_ucReceiveBufferIndex
 376 0106 1A78     		ldrb	r2, [r3, #0]	@ zero_extendqisi2
 377 0108 07F10803 		add	r3, r7, #8
 378 010c 03F10D03 		add	r3, r3, #13
 379 0110 1046     		mov	r0, r2
 380 0112 1946     		mov	r1, r3
 381 0114 FFF7FEFF 		bl	RBF_ucTailByteOut
 382 0118 0346     		mov	r3, r0
 383 011a 3B76     		strb	r3, [r7, #24]
 103:.\bpl.c       ****     
 104:.\bpl.c       ****     ucTempChecksum = CDS5500_GetChecksum(&msg);
 384              		.loc 1 104 0
 385 011c 07F10803 		add	r3, r7, #8
 386 0120 1846     		mov	r0, r3
 387 0122 FFF7FEFF 		bl	CDS5500_GetChecksum
 388 0126 0346     		mov	r3, r0
 389 0128 BB76     		strb	r3, [r7, #26]
 105:.\bpl.c       ****         
 106:.\bpl.c       ****     if (rbfStatus != RBF_SUCCESS)
 390              		.loc 1 106 0
 391 012a 3B7E     		ldrb	r3, [r7, #24]	@ zero_extendqisi2
 392 012c 002B     		cmp	r3, #0
 393 012e 1ED0     		beq	.L19
 107:.\bpl.c       ****     {
 108:.\bpl.c       ****         //better clear whole buffer now, something went wrong ...
ARM GAS  C:\Users\Martin\AppData\Local\Temp\ccjlQWOY.s 			page 10


 109:.\bpl.c       ****         rbfStatus = RBF_ucClearBuffer(BPL_ucReceiveBufferIndex);
 394              		.loc 1 109 0
 395 0130 40F20003 		movw	r3, #:lower16:BPL_ucReceiveBufferIndex
 396 0134 C0F20003 		movt	r3, #:upper16:BPL_ucReceiveBufferIndex
 397 0138 1B78     		ldrb	r3, [r3, #0]	@ zero_extendqisi2
 398 013a 1846     		mov	r0, r3
 399 013c FFF7FEFF 		bl	RBF_ucClearBuffer
 400 0140 0346     		mov	r3, r0
 401 0142 3B76     		strb	r3, [r7, #24]
 110:.\bpl.c       ****         BPL_CDS5500_ucRxMessageCount--;
 402              		.loc 1 110 0
 403 0144 40F20003 		movw	r3, #:lower16:BPL_CDS5500_ucRxMessageCount
 404 0148 C0F20003 		movt	r3, #:upper16:BPL_CDS5500_ucRxMessageCount
 405 014c 1B78     		ldrb	r3, [r3, #0]	@ zero_extendqisi2
 406 014e 03F1FF33 		add	r3, r3, #-1
 407 0152 DAB2     		uxtb	r2, r3
 408 0154 40F20003 		movw	r3, #:lower16:BPL_CDS5500_ucRxMessageCount
 409 0158 C0F20003 		movt	r3, #:upper16:BPL_CDS5500_ucRxMessageCount
 410 015c 1A70     		strb	r2, [r3, #0]
 111:.\bpl.c       ****         ERR_Error(ERROR_WARNING);
 411              		.loc 1 111 0
 412 015e 4FF0FD00 		mov	r0, #253
 413 0162 FFF7FEFF 		bl	ERR_Error
 112:.\bpl.c       ****         bplStatus = !SUCCESS;
 414              		.loc 1 112 0
 415 0166 4FF00103 		mov	r3, #1
 416 016a 7B76     		strb	r3, [r7, #25]
 417 016c 22E0     		b	.L20
 418              	.L19:
 113:.\bpl.c       ****     }
 114:.\bpl.c       ****     else 
 115:.\bpl.c       ****     {
 116:.\bpl.c       ****         // decrease message count
 117:.\bpl.c       ****         BPL_CDS5500_ucRxMessageCount--;
 419              		.loc 1 117 0
 420 016e 40F20003 		movw	r3, #:lower16:BPL_CDS5500_ucRxMessageCount
 421 0172 C0F20003 		movt	r3, #:upper16:BPL_CDS5500_ucRxMessageCount
 422 0176 1B78     		ldrb	r3, [r3, #0]	@ zero_extendqisi2
 423 0178 03F1FF33 		add	r3, r3, #-1
 424 017c DAB2     		uxtb	r2, r3
 425 017e 40F20003 		movw	r3, #:lower16:BPL_CDS5500_ucRxMessageCount
 426 0182 C0F20003 		movt	r3, #:upper16:BPL_CDS5500_ucRxMessageCount
 427 0186 1A70     		strb	r2, [r3, #0]
 118:.\bpl.c       ****         
 119:.\bpl.c       ****         *targetAddr = msg;
 428              		.loc 1 119 0
 429 0188 7B68     		ldr	r3, [r7, #4]
 430 018a 1946     		mov	r1, r3
 431 018c 07F10802 		add	r2, r7, #8
 432 0190 4FF00E03 		mov	r3, #14
 433 0194 0846     		mov	r0, r1
 434 0196 1146     		mov	r1, r2
 435 0198 1A46     		mov	r2, r3
 436 019a FFF7FEFF 		bl	memcpy
 120:.\bpl.c       ****         
 121:.\bpl.c       ****         if (ucTempChecksum == msg.checksum)
 437              		.loc 1 121 0
ARM GAS  C:\Users\Martin\AppData\Local\Temp\ccjlQWOY.s 			page 11


 438 019e 7B7D     		ldrb	r3, [r7, #21]	@ zero_extendqisi2
 439 01a0 BA7E     		ldrb	r2, [r7, #26]	@ zero_extendqisi2
 440 01a2 9A42     		cmp	r2, r3
 441 01a4 03D1     		bne	.L21
 122:.\bpl.c       ****         {
 123:.\bpl.c       ****             bplStatus = BPL_SUCCESS;
 442              		.loc 1 123 0
 443 01a6 4FF00003 		mov	r3, #0
 444 01aa 7B76     		strb	r3, [r7, #25]
 445 01ac 02E0     		b	.L20
 446              	.L21:
 124:.\bpl.c       ****         }
 125:.\bpl.c       ****         else
 126:.\bpl.c       ****         {
 127:.\bpl.c       ****             bplStatus = BPL_STATUS_RX_ERROR; // wrong checksum
 447              		.loc 1 127 0
 448 01ae 6FF00303 		mvn	r3, #3
 449 01b2 7B76     		strb	r3, [r7, #25]
 450              	.L20:
 128:.\bpl.c       ****         }
 129:.\bpl.c       ****     }
 130:.\bpl.c       ****    
 131:.\bpl.c       ****     
 132:.\bpl.c       ****     return bplStatus;
 451              		.loc 1 132 0
 452 01b4 7B7E     		ldrb	r3, [r7, #25]	@ zero_extendqisi2
 453              	.L16:
 133:.\bpl.c       **** }
 454              		.loc 1 133 0
 455 01b6 1846     		mov	r0, r3
 456 01b8 07F12007 		add	r7, r7, #32
 457 01bc BD46     		mov	sp, r7
 458 01be 80BD     		pop	{r7, pc}
 459              		.cfi_endproc
 460              	.LFE34:
 461              		.size	BPL_CDS5500_GetResponse, .-BPL_CDS5500_GetResponse
 462              		.section	.text.BPL_TransmitMessage,"ax",%progbits
 463              		.align	2
 464              		.global	BPL_TransmitMessage
 465              		.thumb
 466              		.thumb_func
 467              		.type	BPL_TransmitMessage, %function
 468              	BPL_TransmitMessage:
 469              	.LFB35:
 134:.\bpl.c       **** 
 135:.\bpl.c       **** /*******************************************************/
 136:.\bpl.c       **** /**
 137:.\bpl.c       ****     Example:    Transmit servo message "CDS5500_INST_PING"
 138:.\bpl.c       ****     
 139:.\bpl.c       ****         BAL message                              BPL message:
 140:.\bpl.c       ****         
 141:.\bpl.c       ****         SB0  SB1  MID  LEN  INID PAR CHKS        LEN  SRC                           LEN
 142:.\bpl.c       ****         ---------------------------------   ==>  ---------------------------------------
 143:.\bpl.c       ****         0xFF 0xFF 0x01 0x02 0x01 -   0xFB        0x06 0xFF 0xFF 0x01 0x02 0x01 0xFB 0x06
 144:.\bpl.c       ****     
 145:.\bpl.c       ****         -> msgLength = 6
 146:.\bpl.c       **** */
ARM GAS  C:\Users\Martin\AppData\Local\Temp\ccjlQWOY.s 			page 12


 147:.\bpl.c       **** STATUS BPL_TransmitMessage(uint8* source, uint8 msgLength)
 148:.\bpl.c       **** {
 470              		.loc 1 148 0
 471              		.cfi_startproc
 472              		@ args = 0, pretend = 0, frame = 16
 473              		@ frame_needed = 1, uses_anonymous_args = 0
 474 0000 80B5     		push	{r7, lr}
 475              	.LCFI15:
 476              		.cfi_def_cfa_offset 8
 477 0002 84B0     		sub	sp, sp, #16
 478              	.LCFI16:
 479              		.cfi_def_cfa_offset 24
 480 0004 00AF     		add	r7, sp, #0
 481              		.cfi_offset 14, -4
 482              		.cfi_offset 7, -8
 483              	.LCFI17:
 484              		.cfi_def_cfa_register 7
 485 0006 7860     		str	r0, [r7, #4]
 486 0008 0B46     		mov	r3, r1
 487 000a FB70     		strb	r3, [r7, #3]
 149:.\bpl.c       ****     STATUS rbfStatus;
 150:.\bpl.c       ****     
 151:.\bpl.c       ****     // read message into ring buffer
 152:.\bpl.c       ****     rbfStatus = RBF_ucMsgIn(BPL_ucTransmitBufferIndex, source, msgLength);
 488              		.loc 1 152 0
 489 000c 40F20003 		movw	r3, #:lower16:BPL_ucTransmitBufferIndex
 490 0010 C0F20003 		movt	r3, #:upper16:BPL_ucTransmitBufferIndex
 491 0014 1A78     		ldrb	r2, [r3, #0]	@ zero_extendqisi2
 492 0016 FB78     		ldrb	r3, [r7, #3]	@ zero_extendqisi2
 493 0018 1046     		mov	r0, r2
 494 001a 7968     		ldr	r1, [r7, #4]
 495 001c 1A46     		mov	r2, r3
 496 001e FFF7FEFF 		bl	RBF_ucMsgIn
 497 0022 0346     		mov	r3, r0
 498 0024 FB73     		strb	r3, [r7, #15]
 153:.\bpl.c       **** 
 154:.\bpl.c       ****     return rbfStatus;	
 499              		.loc 1 154 0
 500 0026 FB7B     		ldrb	r3, [r7, #15]	@ zero_extendqisi2
 155:.\bpl.c       **** }
 501              		.loc 1 155 0
 502 0028 1846     		mov	r0, r3
 503 002a 07F11007 		add	r7, r7, #16
 504 002e BD46     		mov	sp, r7
 505 0030 80BD     		pop	{r7, pc}
 506              		.cfi_endproc
 507              	.LFE35:
 508              		.size	BPL_TransmitMessage, .-BPL_TransmitMessage
 509 0032 00BF     		.section	.text.BPL_HandleTask,"ax",%progbits
 510              		.align	2
 511              		.global	BPL_HandleTask
 512              		.thumb
 513              		.thumb_func
 514              		.type	BPL_HandleTask, %function
 515              	BPL_HandleTask:
 516              	.LFB36:
 156:.\bpl.c       **** 
ARM GAS  C:\Users\Martin\AppData\Local\Temp\ccjlQWOY.s 			page 13


 157:.\bpl.c       **** /*******************************************************/
 158:.\bpl.c       **** STATUS BPL_HandleTask(void)
 159:.\bpl.c       **** {
 517              		.loc 1 159 0
 518              		.cfi_startproc
 519              		@ args = 0, pretend = 0, frame = 40
 520              		@ frame_needed = 1, uses_anonymous_args = 0
 521 0000 80B5     		push	{r7, lr}
 522              	.LCFI18:
 523              		.cfi_def_cfa_offset 8
 524 0002 8AB0     		sub	sp, sp, #40
 525              	.LCFI19:
 526              		.cfi_def_cfa_offset 48
 527 0004 00AF     		add	r7, sp, #0
 528              		.cfi_offset 14, -4
 529              		.cfi_offset 7, -8
 530              	.LCFI20:
 531              		.cfi_def_cfa_register 7
 160:.\bpl.c       ****     STATUS rbfStatus, BplStatus;
 161:.\bpl.c       **** 	uint8_t ucNumBytes;
 162:.\bpl.c       ****     uint8_t ucByte;
 163:.\bpl.c       ****     uint8_t ucStartByte1, ucStartByte2;
 164:.\bpl.c       **** 	uint8_t ucMessageBuffer[BPL_MAX_MESSAGE_LENGTH];
 165:.\bpl.c       ****     
 166:.\bpl.c       **** 	/* Handle received bytes */
 167:.\bpl.c       **** 	/* --------------------- */
 168:.\bpl.c       **** 	while (HAL_GetRxIsrCount() > 0)
 532              		.loc 1 168 0
 533 0006 12E0     		b	.L26
 534              	.L27:
 169:.\bpl.c       **** 	{
 170:.\bpl.c       ****         ucByte = HAL_GetByte();
 535              		.loc 1 170 0
 536 0008 FFF7FEFF 		bl	HAL_GetByte
 537 000c 0346     		mov	r3, r0
 538 000e 87F82530 		strb	r3, [r7, #37]
 171:.\bpl.c       ****         rbfStatus = RBF_ucByteIn(BPL_ucReceiveBufferIndex, ucByte);
 539              		.loc 1 171 0
 540 0012 40F20003 		movw	r3, #:lower16:BPL_ucReceiveBufferIndex
 541 0016 C0F20003 		movt	r3, #:upper16:BPL_ucReceiveBufferIndex
 542 001a 1A78     		ldrb	r2, [r3, #0]	@ zero_extendqisi2
 543 001c 97F82530 		ldrb	r3, [r7, #37]	@ zero_extendqisi2
 544 0020 1046     		mov	r0, r2
 545 0022 1946     		mov	r1, r3
 546 0024 FFF7FEFF 		bl	RBF_ucByteIn
 547 0028 0346     		mov	r3, r0
 548 002a 87F82330 		strb	r3, [r7, #35]
 549              	.L26:
 550              		.loc 1 168 0
 551 002e FFF7FEFF 		bl	HAL_GetRxIsrCount
 552 0032 0346     		mov	r3, r0
 553 0034 002B     		cmp	r3, #0
 554 0036 E7D1     		bne	.L27
 172:.\bpl.c       ****         
 173:.\bpl.c       **** 		if (rbfStatus != RBF_SUCCESS)
 174:.\bpl.c       **** 		{
 175:.\bpl.c       **** 			//error handling
ARM GAS  C:\Users\Martin\AppData\Local\Temp\ccjlQWOY.s 			page 14


 176:.\bpl.c       **** 		}
 177:.\bpl.c       **** 	}
 178:.\bpl.c       **** 
 179:.\bpl.c       ****     // Check if (complete) CDS5500 message received
 180:.\bpl.c       ****     // --------------------------------------------
 181:.\bpl.c       ****     if (RBF_ucGetByteCount(BPL_ucReceiveBufferIndex) >= CDS5500_STATUS_PACKET_MIN_LENGTH)
 555              		.loc 1 181 0
 556 0038 40F20003 		movw	r3, #:lower16:BPL_ucReceiveBufferIndex
 557 003c C0F20003 		movt	r3, #:upper16:BPL_ucReceiveBufferIndex
 558 0040 1B78     		ldrb	r3, [r3, #0]	@ zero_extendqisi2
 559 0042 1846     		mov	r0, r3
 560 0044 FFF7FEFF 		bl	RBF_ucGetByteCount
 561 0048 0346     		mov	r3, r0
 562 004a 052B     		cmp	r3, #5
 563 004c 4BD9     		bls	.L28
 182:.\bpl.c       ****     {
 183:.\bpl.c       ****         ucStartByte1 = RBF_ucReadOnlyFromTail(BPL_ucReceiveBufferIndex, 0);
 564              		.loc 1 183 0
 565 004e 40F20003 		movw	r3, #:lower16:BPL_ucReceiveBufferIndex
 566 0052 C0F20003 		movt	r3, #:upper16:BPL_ucReceiveBufferIndex
 567 0056 1B78     		ldrb	r3, [r3, #0]	@ zero_extendqisi2
 568 0058 1846     		mov	r0, r3
 569 005a 4FF00001 		mov	r1, #0
 570 005e FFF7FEFF 		bl	RBF_ucReadOnlyFromTail
 571 0062 0346     		mov	r3, r0
 572 0064 87F82630 		strb	r3, [r7, #38]
 184:.\bpl.c       ****         ucStartByte2 = RBF_ucReadOnlyFromTail(BPL_ucReceiveBufferIndex, 1);
 573              		.loc 1 184 0
 574 0068 40F20003 		movw	r3, #:lower16:BPL_ucReceiveBufferIndex
 575 006c C0F20003 		movt	r3, #:upper16:BPL_ucReceiveBufferIndex
 576 0070 1B78     		ldrb	r3, [r3, #0]	@ zero_extendqisi2
 577 0072 1846     		mov	r0, r3
 578 0074 4FF00101 		mov	r1, #1
 579 0078 FFF7FEFF 		bl	RBF_ucReadOnlyFromTail
 580 007c 0346     		mov	r3, r0
 581 007e 87F82730 		strb	r3, [r7, #39]
 185:.\bpl.c       ****         ucNumBytes = RBF_ucReadOnlyFromTail(BPL_ucReceiveBufferIndex, 3);
 582              		.loc 1 185 0
 583 0082 40F20003 		movw	r3, #:lower16:BPL_ucReceiveBufferIndex
 584 0086 C0F20003 		movt	r3, #:upper16:BPL_ucReceiveBufferIndex
 585 008a 1B78     		ldrb	r3, [r3, #0]	@ zero_extendqisi2
 586 008c 1846     		mov	r0, r3
 587 008e 4FF00301 		mov	r1, #3
 588 0092 FFF7FEFF 		bl	RBF_ucReadOnlyFromTail
 589 0096 0346     		mov	r3, r0
 590 0098 87F82230 		strb	r3, [r7, #34]
 186:.\bpl.c       ****         
 187:.\bpl.c       ****         if (        (ucStartByte1 == 0xFF) && (ucStartByte2 == 0xFF) 
 591              		.loc 1 187 0
 592 009c 97F82630 		ldrb	r3, [r7, #38]	@ zero_extendqisi2
 593 00a0 FF2B     		cmp	r3, #255
 594 00a2 20D1     		bne	.L28
 595 00a4 97F82730 		ldrb	r3, [r7, #39]	@ zero_extendqisi2
 596 00a8 FF2B     		cmp	r3, #255
 597 00aa 1CD1     		bne	.L28
 188:.\bpl.c       ****                 &&  (RBF_ucGetByteCount(BPL_ucReceiveBufferIndex) >= (ucNumBytes + 4)) //(0XFF 0XFF
 598              		.loc 1 188 0
ARM GAS  C:\Users\Martin\AppData\Local\Temp\ccjlQWOY.s 			page 15


 599 00ac 40F20003 		movw	r3, #:lower16:BPL_ucReceiveBufferIndex
 600 00b0 C0F20003 		movt	r3, #:upper16:BPL_ucReceiveBufferIndex
 601 00b4 1B78     		ldrb	r3, [r3, #0]	@ zero_extendqisi2
 602 00b6 1846     		mov	r0, r3
 603 00b8 FFF7FEFF 		bl	RBF_ucGetByteCount
 604 00bc 0346     		mov	r3, r0
 605 00be 1A46     		mov	r2, r3
 606 00c0 97F82230 		ldrb	r3, [r7, #34]	@ zero_extendqisi2
 607 00c4 03F10403 		add	r3, r3, #4
 608              		.loc 1 187 0
 609 00c8 9A42     		cmp	r2, r3
 610 00ca 0CDB     		blt	.L28
 189:.\bpl.c       ****            )
 190:.\bpl.c       ****         {
 191:.\bpl.c       ****             BPL_CDS5500_ucRxMessageCount++; //Message can now be picked up using BPL_CDS5500_GetRes
 611              		.loc 1 191 0
 612 00cc 40F20003 		movw	r3, #:lower16:BPL_CDS5500_ucRxMessageCount
 613 00d0 C0F20003 		movt	r3, #:upper16:BPL_CDS5500_ucRxMessageCount
 614 00d4 1B78     		ldrb	r3, [r3, #0]	@ zero_extendqisi2
 615 00d6 03F10103 		add	r3, r3, #1
 616 00da DAB2     		uxtb	r2, r3
 617 00dc 40F20003 		movw	r3, #:lower16:BPL_CDS5500_ucRxMessageCount
 618 00e0 C0F20003 		movt	r3, #:upper16:BPL_CDS5500_ucRxMessageCount
 619 00e4 1A70     		strb	r2, [r3, #0]
 620              	.L28:
 192:.\bpl.c       ****         }
 193:.\bpl.c       ****         else
 194:.\bpl.c       ****         {
 195:.\bpl.c       ****             //something went wrong, better clear buffer
 196:.\bpl.c       ****         }
 197:.\bpl.c       ****     }    
 198:.\bpl.c       ****     
 199:.\bpl.c       **** 	
 200:.\bpl.c       **** 	/* Handle transmission of bytes */
 201:.\bpl.c       **** 	/* ---------------------------- */
 202:.\bpl.c       ****     if (RBF_ucGetMsgCount(BPL_ucTransmitBufferIndex) > 0)
 621              		.loc 1 202 0
 622 00e6 40F20003 		movw	r3, #:lower16:BPL_ucTransmitBufferIndex
 623 00ea C0F20003 		movt	r3, #:upper16:BPL_ucTransmitBufferIndex
 624 00ee 1B78     		ldrb	r3, [r3, #0]	@ zero_extendqisi2
 625 00f0 1846     		mov	r0, r3
 626 00f2 FFF7FEFF 		bl	RBF_ucGetMsgCount
 627 00f6 0346     		mov	r3, r0
 628 00f8 002B     		cmp	r3, #0
 629 00fa 19D0     		beq	.L29
 203:.\bpl.c       ****     {
 204:.\bpl.c       ****         rbfStatus = RBF_ucTailMsgOut(BPL_ucTransmitBufferIndex, ucMessageBuffer, &ucNumBytes);
 630              		.loc 1 204 0
 631 00fc 40F20003 		movw	r3, #:lower16:BPL_ucTransmitBufferIndex
 632 0100 C0F20003 		movt	r3, #:upper16:BPL_ucTransmitBufferIndex
 633 0104 1978     		ldrb	r1, [r3, #0]	@ zero_extendqisi2
 634 0106 3A46     		mov	r2, r7
 635 0108 07F12203 		add	r3, r7, #34
 636 010c 0846     		mov	r0, r1
 637 010e 1146     		mov	r1, r2
 638 0110 1A46     		mov	r2, r3
 639 0112 FFF7FEFF 		bl	RBF_ucTailMsgOut
ARM GAS  C:\Users\Martin\AppData\Local\Temp\ccjlQWOY.s 			page 16


 640 0116 0346     		mov	r3, r0
 641 0118 87F82330 		strb	r3, [r7, #35]
 205:.\bpl.c       ****         
 206:.\bpl.c       ****         // LENGTH | CONTENT | LENGTH
 207:.\bpl.c       **** 		BplStatus = HAL_TransmitArray(&ucMessageBuffer[0], ucNumBytes);
 642              		.loc 1 207 0
 643 011c 97F82230 		ldrb	r3, [r7, #34]	@ zero_extendqisi2
 644 0120 3A46     		mov	r2, r7
 645 0122 1046     		mov	r0, r2
 646 0124 1946     		mov	r1, r3
 647 0126 FFF7FEFF 		bl	HAL_TransmitArray
 648 012a 0346     		mov	r3, r0
 649 012c 87F82430 		strb	r3, [r7, #36]
 650              	.L29:
 208:.\bpl.c       ****             
 209:.\bpl.c       ****         if (rbfStatus != RBF_SUCCESS)
 210:.\bpl.c       **** 		{
 211:.\bpl.c       **** 			//error handling
 212:.\bpl.c       **** 		}
 213:.\bpl.c       **** 	}
 214:.\bpl.c       **** 	
 215:.\bpl.c       ****     
 216:.\bpl.c       ****     return BplStatus;
 651              		.loc 1 216 0
 652 0130 97F82430 		ldrb	r3, [r7, #36]	@ zero_extendqisi2
 217:.\bpl.c       **** }
 653              		.loc 1 217 0
 654 0134 1846     		mov	r0, r3
 655 0136 07F12807 		add	r7, r7, #40
 656 013a BD46     		mov	sp, r7
 657 013c 80BD     		pop	{r7, pc}
 658              		.cfi_endproc
 659              	.LFE36:
 660              		.size	BPL_HandleTask, .-BPL_HandleTask
 661 013e 00BF     		.text
 662              	.Letext0: