ARM GAS  C:\Users\Martin\AppData\Local\Temp\ccutgkFX.s 			page 1


   1              		.syntax unified
   2              		.cpu cortex-m3
   3              		.fpu softvfp
   4              		.eabi_attribute 20, 1
   5              		.eabi_attribute 21, 1
   6              		.eabi_attribute 23, 3
   7              		.eabi_attribute 24, 1
   8              		.eabi_attribute 25, 1
   9              		.eabi_attribute 26, 1
  10              		.eabi_attribute 30, 6
  11              		.eabi_attribute 18, 4
  12              		.thumb
  13              		.file	"bpl.c"
  14              		.section	.debug_abbrev,"",%progbits
  15              	.Ldebug_abbrev0:
  16              		.section	.debug_info,"",%progbits
  17              	.Ldebug_info0:
  18              		.section	.debug_line,"",%progbits
  19              	.Ldebug_line0:
  20 0000 E1010000 		.text
  20      02001C01 
  20      00000201 
  20      FB0E0D00 
  20      01010101 
  21              	.Ltext0:
  22              		.cfi_sections	.debug_frame
  23              		.bss
  24              		.align	2
  25              	BPL_aucReceiveBuffer:
  26 0000 00000000 		.space	256
  26      00000000 
  26      00000000 
  26      00000000 
  26      00000000 
  27              		.align	2
  28              	BPL_aucTransmitBuffer:
  29 0100 00000000 		.space	256
  29      00000000 
  29      00000000 
  29      00000000 
  29      00000000 
  30              	BPL_ucReceiveBufferIndex:
  31 0200 00       		.space	1
  32              	BPL_ucTransmitBufferIndex:
  33 0201 00       		.space	1
  34              	BPL_CDS5500_ucRxMessageCount:
  35 0202 00       		.space	1
  36 0203 00       		.section	.text.BPL_Init,"ax",%progbits
  37              		.align	2
  38              		.global	BPL_Init
  39              		.thumb
  40              		.thumb_func
  41              		.type	BPL_Init, %function
  42              	BPL_Init:
  43              	.LFB29:
  44              		.file 1 ".\\bpl.c"
   1:.\bpl.c       **** /* Copyright (C) <2014> <Martin Schalk>
ARM GAS  C:\Users\Martin\AppData\Local\Temp\ccutgkFX.s 			page 2


   2:.\bpl.c       ****  * All rights reserved.
   3:.\bpl.c       ****  *
   4:.\bpl.c       ****  * This software may be modified and distributed under the terms
   5:.\bpl.c       ****  * of the BSD license.  See the LICENSE file for details.
   6:.\bpl.c       ****  */
   7:.\bpl.c       **** 
   8:.\bpl.c       **** 
   9:.\bpl.c       **** #include <project.h>
  10:.\bpl.c       **** #include "global.h"
  11:.\bpl.c       **** #include <stdio.h>
  12:.\bpl.c       **** 
  13:.\bpl.c       **** #include "hal.h"
  14:.\bpl.c       **** #include "bpl.h"
  15:.\bpl.c       **** #include "error.h"
  16:.\bpl.c       **** #include "ring_buffer.h"
  17:.\bpl.c       **** #include "servo_cds5500.h"
  18:.\bpl.c       **** 
  19:.\bpl.c       **** 
  20:.\bpl.c       **** // buffers
  21:.\bpl.c       **** static uint8_t 	BPL_aucReceiveBuffer[BPL_RX_BUFFER_SIZE];
  22:.\bpl.c       **** static uint8_t 	BPL_aucTransmitBuffer[BPL_TX_BUFFER_SIZE];
  23:.\bpl.c       **** 
  24:.\bpl.c       **** static uint8_t  BPL_ucReceiveBufferIndex;
  25:.\bpl.c       **** static uint8_t  BPL_ucTransmitBufferIndex;
  26:.\bpl.c       **** 
  27:.\bpl.c       **** static uint8_t  BPL_CDS5500_ucRxMessageCount = 0;
  28:.\bpl.c       **** /*
  29:.\bpl.c       **** static STATUS BplStatus = BPL_STATUS_OK;
  30:.\bpl.c       **** */
  31:.\bpl.c       **** 
  32:.\bpl.c       **** /*******************************************************/
  33:.\bpl.c       **** STATUS BPL_Init(void)
  34:.\bpl.c       **** {
  45              		.loc 1 34 0
  46              		.cfi_startproc
  47              		@ args = 0, pretend = 0, frame = 0
  48              		@ frame_needed = 1, uses_anonymous_args = 0
  49 0000 80B5     		push	{r7, lr}
  50              	.LCFI0:
  51              		.cfi_def_cfa_offset 8
  52 0002 00AF     		add	r7, sp, #0
  53              		.cfi_offset 14, -4
  54              		.cfi_offset 7, -8
  55              	.LCFI1:
  56              		.cfi_def_cfa_register 7
  35:.\bpl.c       ****     //register buffers as ring buffers
  36:.\bpl.c       ****     BPL_ucReceiveBufferIndex = RBF_ucRegisterBuffer(BPL_aucReceiveBuffer, BPL_RX_BUFFER_SIZE);
  57              		.loc 1 36 0
  58 0004 40F20000 		movw	r0, #:lower16:BPL_aucReceiveBuffer
  59 0008 C0F20000 		movt	r0, #:upper16:BPL_aucReceiveBuffer
  60 000c 4FF48071 		mov	r1, #256
  61 0010 FFF7FEFF 		bl	RBF_ucRegisterBuffer
  62 0014 0346     		mov	r3, r0
  63 0016 1A46     		mov	r2, r3
  64 0018 40F20003 		movw	r3, #:lower16:BPL_ucReceiveBufferIndex
  65 001c C0F20003 		movt	r3, #:upper16:BPL_ucReceiveBufferIndex
  66 0020 1A70     		strb	r2, [r3, #0]
ARM GAS  C:\Users\Martin\AppData\Local\Temp\ccutgkFX.s 			page 3


  37:.\bpl.c       ****     BPL_ucTransmitBufferIndex = RBF_ucRegisterBuffer(BPL_aucTransmitBuffer, BPL_TX_BUFFER_SIZE);
  67              		.loc 1 37 0
  68 0022 40F20000 		movw	r0, #:lower16:BPL_aucTransmitBuffer
  69 0026 C0F20000 		movt	r0, #:upper16:BPL_aucTransmitBuffer
  70 002a 4FF48071 		mov	r1, #256
  71 002e FFF7FEFF 		bl	RBF_ucRegisterBuffer
  72 0032 0346     		mov	r3, r0
  73 0034 1A46     		mov	r2, r3
  74 0036 40F20003 		movw	r3, #:lower16:BPL_ucTransmitBufferIndex
  75 003a C0F20003 		movt	r3, #:upper16:BPL_ucTransmitBufferIndex
  76 003e 1A70     		strb	r2, [r3, #0]
  38:.\bpl.c       ****     
  39:.\bpl.c       ****     return SUCCESS;	
  77              		.loc 1 39 0
  78 0040 4FF00003 		mov	r3, #0
  40:.\bpl.c       **** }
  79              		.loc 1 40 0
  80 0044 1846     		mov	r0, r3
  81 0046 80BD     		pop	{r7, pc}
  82              		.cfi_endproc
  83              	.LFE29:
  84              		.size	BPL_Init, .-BPL_Init
  85              		.section	.text.BPL_CDS5500_ucGetRxMessageCount,"ax",%progbits
  86              		.align	2
  87              		.global	BPL_CDS5500_ucGetRxMessageCount
  88              		.thumb
  89              		.thumb_func
  90              		.type	BPL_CDS5500_ucGetRxMessageCount, %function
  91              	BPL_CDS5500_ucGetRxMessageCount:
  92              	.LFB30:
  41:.\bpl.c       **** 
  42:.\bpl.c       **** /*******************************************************/
  43:.\bpl.c       **** uint8_t BPL_CDS5500_ucGetRxMessageCount(void)
  44:.\bpl.c       **** {
  93              		.loc 1 44 0
  94              		.cfi_startproc
  95              		@ args = 0, pretend = 0, frame = 0
  96              		@ frame_needed = 1, uses_anonymous_args = 0
  97              		@ link register save eliminated.
  98 0000 80B4     		push	{r7}
  99              	.LCFI2:
 100              		.cfi_def_cfa_offset 4
 101 0002 00AF     		add	r7, sp, #0
 102              		.cfi_offset 7, -4
 103              	.LCFI3:
 104              		.cfi_def_cfa_register 7
  45:.\bpl.c       ****     return BPL_CDS5500_ucRxMessageCount;
 105              		.loc 1 45 0
 106 0004 40F20003 		movw	r3, #:lower16:BPL_CDS5500_ucRxMessageCount
 107 0008 C0F20003 		movt	r3, #:upper16:BPL_CDS5500_ucRxMessageCount
 108 000c 1B78     		ldrb	r3, [r3, #0]	@ zero_extendqisi2
  46:.\bpl.c       **** }
 109              		.loc 1 46 0
 110 000e 1846     		mov	r0, r3
 111 0010 BD46     		mov	sp, r7
 112 0012 80BC     		pop	{r7}
 113 0014 7047     		bx	lr
ARM GAS  C:\Users\Martin\AppData\Local\Temp\ccutgkFX.s 			page 4


 114              		.cfi_endproc
 115              	.LFE30:
 116              		.size	BPL_CDS5500_ucGetRxMessageCount, .-BPL_CDS5500_ucGetRxMessageCount
 117 0016 00BF     		.section	.text.BPL_CDS5500_ucSetRxMessageCount,"ax",%progbits
 118              		.align	2
 119              		.global	BPL_CDS5500_ucSetRxMessageCount
 120              		.thumb
 121              		.thumb_func
 122              		.type	BPL_CDS5500_ucSetRxMessageCount, %function
 123              	BPL_CDS5500_ucSetRxMessageCount:
 124              	.LFB31:
  47:.\bpl.c       **** 
  48:.\bpl.c       **** /*******************************************************/
  49:.\bpl.c       **** void BPL_CDS5500_ucSetRxMessageCount(uint8_t ucVal)
  50:.\bpl.c       **** {
 125              		.loc 1 50 0
 126              		.cfi_startproc
 127              		@ args = 0, pretend = 0, frame = 8
 128              		@ frame_needed = 1, uses_anonymous_args = 0
 129              		@ link register save eliminated.
 130 0000 80B4     		push	{r7}
 131              	.LCFI4:
 132              		.cfi_def_cfa_offset 4
 133 0002 83B0     		sub	sp, sp, #12
 134              	.LCFI5:
 135              		.cfi_def_cfa_offset 16
 136 0004 00AF     		add	r7, sp, #0
 137              		.cfi_offset 7, -4
 138              	.LCFI6:
 139              		.cfi_def_cfa_register 7
 140 0006 0346     		mov	r3, r0
 141 0008 FB71     		strb	r3, [r7, #7]
  51:.\bpl.c       ****     BPL_CDS5500_ucRxMessageCount = ucVal;
 142              		.loc 1 51 0
 143 000a 40F20003 		movw	r3, #:lower16:BPL_CDS5500_ucRxMessageCount
 144 000e C0F20003 		movt	r3, #:upper16:BPL_CDS5500_ucRxMessageCount
 145 0012 FA79     		ldrb	r2, [r7, #7]
 146 0014 1A70     		strb	r2, [r3, #0]
  52:.\bpl.c       **** }
 147              		.loc 1 52 0
 148 0016 07F10C07 		add	r7, r7, #12
 149 001a BD46     		mov	sp, r7
 150 001c 80BC     		pop	{r7}
 151 001e 7047     		bx	lr
 152              		.cfi_endproc
 153              	.LFE31:
 154              		.size	BPL_CDS5500_ucSetRxMessageCount, .-BPL_CDS5500_ucSetRxMessageCount
 155              		.section	.text.BPL_GetReceiveMsgCount,"ax",%progbits
 156              		.align	2
 157              		.global	BPL_GetReceiveMsgCount
 158              		.thumb
 159              		.thumb_func
 160              		.type	BPL_GetReceiveMsgCount, %function
 161              	BPL_GetReceiveMsgCount:
 162              	.LFB32:
  53:.\bpl.c       **** 
  54:.\bpl.c       **** /*******************************************************/
ARM GAS  C:\Users\Martin\AppData\Local\Temp\ccutgkFX.s 			page 5


  55:.\bpl.c       **** uint8 BPL_GetReceiveMsgCount(void)
  56:.\bpl.c       **** {
 163              		.loc 1 56 0
 164              		.cfi_startproc
 165              		@ args = 0, pretend = 0, frame = 0
 166              		@ frame_needed = 1, uses_anonymous_args = 0
 167 0000 80B5     		push	{r7, lr}
 168              	.LCFI7:
 169              		.cfi_def_cfa_offset 8
 170 0002 00AF     		add	r7, sp, #0
 171              		.cfi_offset 14, -4
 172              		.cfi_offset 7, -8
 173              	.LCFI8:
 174              		.cfi_def_cfa_register 7
  57:.\bpl.c       ****     return RBF_ucGetByteCount(BPL_ucReceiveBufferIndex);
 175              		.loc 1 57 0
 176 0004 40F20003 		movw	r3, #:lower16:BPL_ucReceiveBufferIndex
 177 0008 C0F20003 		movt	r3, #:upper16:BPL_ucReceiveBufferIndex
 178 000c 1B78     		ldrb	r3, [r3, #0]	@ zero_extendqisi2
 179 000e 1846     		mov	r0, r3
 180 0010 FFF7FEFF 		bl	RBF_ucGetByteCount
 181 0014 0346     		mov	r3, r0
  58:.\bpl.c       **** }
 182              		.loc 1 58 0
 183 0016 1846     		mov	r0, r3
 184 0018 80BD     		pop	{r7, pc}
 185              		.cfi_endproc
 186              	.LFE32:
 187              		.size	BPL_GetReceiveMsgCount, .-BPL_GetReceiveMsgCount
 188 001a 00BF     		.section	.text.BPL_GetMessage,"ax",%progbits
 189              		.align	2
 190              		.global	BPL_GetMessage
 191              		.thumb
 192              		.thumb_func
 193              		.type	BPL_GetMessage, %function
 194              	BPL_GetMessage:
 195              	.LFB33:
  59:.\bpl.c       **** 
  60:.\bpl.c       **** /*******************************************************/
  61:.\bpl.c       **** uint8 BPL_GetMessage(uint8* target)
  62:.\bpl.c       **** {
 196              		.loc 1 62 0
 197              		.cfi_startproc
 198              		@ args = 0, pretend = 0, frame = 16
 199              		@ frame_needed = 1, uses_anonymous_args = 0
 200 0000 80B5     		push	{r7, lr}
 201              	.LCFI9:
 202              		.cfi_def_cfa_offset 8
 203 0002 84B0     		sub	sp, sp, #16
 204              	.LCFI10:
 205              		.cfi_def_cfa_offset 24
 206 0004 00AF     		add	r7, sp, #0
 207              		.cfi_offset 14, -4
 208              		.cfi_offset 7, -8
 209              	.LCFI11:
 210              		.cfi_def_cfa_register 7
 211 0006 7860     		str	r0, [r7, #4]
ARM GAS  C:\Users\Martin\AppData\Local\Temp\ccutgkFX.s 			page 6


  63:.\bpl.c       ****     STATUS rbfStatus;
  64:.\bpl.c       ****     uint8_t ucNumBytes;
  65:.\bpl.c       ****     
  66:.\bpl.c       ****     if (RBF_ucGetMsgCount(BPL_ucReceiveBufferIndex) == 0)
 212              		.loc 1 66 0
 213 0008 40F20003 		movw	r3, #:lower16:BPL_ucReceiveBufferIndex
 214 000c C0F20003 		movt	r3, #:upper16:BPL_ucReceiveBufferIndex
 215 0010 1B78     		ldrb	r3, [r3, #0]	@ zero_extendqisi2
 216 0012 1846     		mov	r0, r3
 217 0014 FFF7FEFF 		bl	RBF_ucGetMsgCount
 218 0018 0346     		mov	r3, r0
 219 001a 002B     		cmp	r3, #0
 220 001c 02D1     		bne	.L10
  67:.\bpl.c       ****         return 0;
 221              		.loc 1 67 0
 222 001e 4FF00003 		mov	r3, #0
 223 0022 0EE0     		b	.L11
 224              	.L10:
  68:.\bpl.c       ****     
  69:.\bpl.c       ****     rbfStatus = RBF_ucTailMsgOut(BPL_ucReceiveBufferIndex, target, &ucNumBytes);
 225              		.loc 1 69 0
 226 0024 40F20003 		movw	r3, #:lower16:BPL_ucReceiveBufferIndex
 227 0028 C0F20003 		movt	r3, #:upper16:BPL_ucReceiveBufferIndex
 228 002c 1A78     		ldrb	r2, [r3, #0]	@ zero_extendqisi2
 229 002e 07F10E03 		add	r3, r7, #14
 230 0032 1046     		mov	r0, r2
 231 0034 7968     		ldr	r1, [r7, #4]
 232 0036 1A46     		mov	r2, r3
 233 0038 FFF7FEFF 		bl	RBF_ucTailMsgOut
 234 003c 0346     		mov	r3, r0
 235 003e FB73     		strb	r3, [r7, #15]
  70:.\bpl.c       ****     
  71:.\bpl.c       ****     return ucNumBytes;
 236              		.loc 1 71 0
 237 0040 BB7B     		ldrb	r3, [r7, #14]	@ zero_extendqisi2
 238              	.L11:
  72:.\bpl.c       **** }
 239              		.loc 1 72 0
 240 0042 1846     		mov	r0, r3
 241 0044 07F11007 		add	r7, r7, #16
 242 0048 BD46     		mov	sp, r7
 243 004a 80BD     		pop	{r7, pc}
 244              		.cfi_endproc
 245              	.LFE33:
 246              		.size	BPL_GetMessage, .-BPL_GetMessage
 247              		.section	.text.BPL_CDS5500_GetResponse,"ax",%progbits
 248              		.align	2
 249              		.global	BPL_CDS5500_GetResponse
 250              		.thumb
 251              		.thumb_func
 252              		.type	BPL_CDS5500_GetResponse, %function
 253              	BPL_CDS5500_GetResponse:
 254              	.LFB34:
  73:.\bpl.c       **** 
  74:.\bpl.c       **** /*******************************************************/
  75:.\bpl.c       **** /**
  76:.\bpl.c       **** Status packet:
ARM GAS  C:\Users\Martin\AppData\Local\Temp\ccutgkFX.s 			page 7


  77:.\bpl.c       **** | 0XFF | 0XFF | ID | Length | Status | Parameter1 ...Parameter N | Check Sum | 
  78:.\bpl.c       **** */
  79:.\bpl.c       **** STATUS BPL_CDS5500_GetResponse(CDS5500_MSG* targetAddr)
  80:.\bpl.c       **** {
 255              		.loc 1 80 0
 256              		.cfi_startproc
 257              		@ args = 0, pretend = 0, frame = 32
 258              		@ frame_needed = 1, uses_anonymous_args = 0
 259 0000 80B5     		push	{r7, lr}
 260              	.LCFI12:
 261              		.cfi_def_cfa_offset 8
 262 0002 88B0     		sub	sp, sp, #32
 263              	.LCFI13:
 264              		.cfi_def_cfa_offset 40
 265 0004 00AF     		add	r7, sp, #0
 266              		.cfi_offset 14, -4
 267              		.cfi_offset 7, -8
 268              	.LCFI14:
 269              		.cfi_def_cfa_register 7
 270 0006 7860     		str	r0, [r7, #4]
  81:.\bpl.c       ****     STATUS rbfStatus, bplStatus;
  82:.\bpl.c       ****     CDS5500_MSG msg;
  83:.\bpl.c       ****     uint8_t ucTempChecksum;
  84:.\bpl.c       ****     uint8_t ucNumBytes = RBF_ucGetByteCount(BPL_ucReceiveBufferIndex);
 271              		.loc 1 84 0
 272 0008 40F20003 		movw	r3, #:lower16:BPL_ucReceiveBufferIndex
 273 000c C0F20003 		movt	r3, #:upper16:BPL_ucReceiveBufferIndex
 274 0010 1B78     		ldrb	r3, [r3, #0]	@ zero_extendqisi2
 275 0012 1846     		mov	r0, r3
 276 0014 FFF7FEFF 		bl	RBF_ucGetByteCount
 277 0018 0346     		mov	r3, r0
 278 001a FB76     		strb	r3, [r7, #27]
  85:.\bpl.c       ****     int i;
  86:.\bpl.c       ****     
  87:.\bpl.c       ****     // First check if any bytes received
  88:.\bpl.c       ****     if ((ucNumBytes == 0) || (ucNumBytes < CDS5500_STATUS_PACKET_MIN_LENGTH))
 279              		.loc 1 88 0
 280 001c FB7E     		ldrb	r3, [r7, #27]	@ zero_extendqisi2
 281 001e 002B     		cmp	r3, #0
 282 0020 02D0     		beq	.L14
 283 0022 FB7E     		ldrb	r3, [r7, #27]	@ zero_extendqisi2
 284 0024 052B     		cmp	r3, #5
 285 0026 02D8     		bhi	.L15
 286              	.L14:
  89:.\bpl.c       ****         return BPL_STATUS_RX_ERROR;
 287              		.loc 1 89 0
 288 0028 4FF0FC03 		mov	r3, #252
 289 002c C3E0     		b	.L16
 290              	.L15:
  90:.\bpl.c       ****     
  91:.\bpl.c       ****     rbfStatus = RBF_ucTailByteOut(BPL_ucReceiveBufferIndex, &(msg.startbyte0)); //FF
 291              		.loc 1 91 0
 292 002e 40F20003 		movw	r3, #:lower16:BPL_ucReceiveBufferIndex
 293 0032 C0F20003 		movt	r3, #:upper16:BPL_ucReceiveBufferIndex
 294 0036 1A78     		ldrb	r2, [r3, #0]	@ zero_extendqisi2
 295 0038 07F10803 		add	r3, r7, #8
 296 003c 1046     		mov	r0, r2
ARM GAS  C:\Users\Martin\AppData\Local\Temp\ccutgkFX.s 			page 8


 297 003e 1946     		mov	r1, r3
 298 0040 FFF7FEFF 		bl	RBF_ucTailByteOut
 299 0044 0346     		mov	r3, r0
 300 0046 3B76     		strb	r3, [r7, #24]
  92:.\bpl.c       ****     rbfStatus = RBF_ucTailByteOut(BPL_ucReceiveBufferIndex, &(msg.startbyte1)); //FF
 301              		.loc 1 92 0
 302 0048 40F20003 		movw	r3, #:lower16:BPL_ucReceiveBufferIndex
 303 004c C0F20003 		movt	r3, #:upper16:BPL_ucReceiveBufferIndex
 304 0050 1A78     		ldrb	r2, [r3, #0]	@ zero_extendqisi2
 305 0052 07F10803 		add	r3, r7, #8
 306 0056 03F10103 		add	r3, r3, #1
 307 005a 1046     		mov	r0, r2
 308 005c 1946     		mov	r1, r3
 309 005e FFF7FEFF 		bl	RBF_ucTailByteOut
 310 0062 0346     		mov	r3, r0
 311 0064 3B76     		strb	r3, [r7, #24]
  93:.\bpl.c       ****     rbfStatus = RBF_ucTailByteOut(BPL_ucReceiveBufferIndex, &(msg.motorId));    //ID
 312              		.loc 1 93 0
 313 0066 40F20003 		movw	r3, #:lower16:BPL_ucReceiveBufferIndex
 314 006a C0F20003 		movt	r3, #:upper16:BPL_ucReceiveBufferIndex
 315 006e 1A78     		ldrb	r2, [r3, #0]	@ zero_extendqisi2
 316 0070 07F10803 		add	r3, r7, #8
 317 0074 03F10203 		add	r3, r3, #2
 318 0078 1046     		mov	r0, r2
 319 007a 1946     		mov	r1, r3
 320 007c FFF7FEFF 		bl	RBF_ucTailByteOut
 321 0080 0346     		mov	r3, r0
 322 0082 3B76     		strb	r3, [r7, #24]
  94:.\bpl.c       ****     rbfStatus = RBF_ucTailByteOut(BPL_ucReceiveBufferIndex, &(msg.length));     //Length
 323              		.loc 1 94 0
 324 0084 40F20003 		movw	r3, #:lower16:BPL_ucReceiveBufferIndex
 325 0088 C0F20003 		movt	r3, #:upper16:BPL_ucReceiveBufferIndex
 326 008c 1A78     		ldrb	r2, [r3, #0]	@ zero_extendqisi2
 327 008e 07F10803 		add	r3, r7, #8
 328 0092 03F10303 		add	r3, r3, #3
 329 0096 1046     		mov	r0, r2
 330 0098 1946     		mov	r1, r3
 331 009a FFF7FEFF 		bl	RBF_ucTailByteOut
 332 009e 0346     		mov	r3, r0
 333 00a0 3B76     		strb	r3, [r7, #24]
  95:.\bpl.c       ****     rbfStatus = RBF_ucTailByteOut(BPL_ucReceiveBufferIndex, &(msg.instrId));    //Status
 334              		.loc 1 95 0
 335 00a2 40F20003 		movw	r3, #:lower16:BPL_ucReceiveBufferIndex
 336 00a6 C0F20003 		movt	r3, #:upper16:BPL_ucReceiveBufferIndex
 337 00aa 1A78     		ldrb	r2, [r3, #0]	@ zero_extendqisi2
 338 00ac 07F10803 		add	r3, r7, #8
 339 00b0 03F10403 		add	r3, r3, #4
 340 00b4 1046     		mov	r0, r2
 341 00b6 1946     		mov	r1, r3
 342 00b8 FFF7FEFF 		bl	RBF_ucTailByteOut
 343 00bc 0346     		mov	r3, r0
 344 00be 3B76     		strb	r3, [r7, #24]
  96:.\bpl.c       ****     
  97:.\bpl.c       ****     for (i=0; i<msg.length-CDS5500_COMPLEMENTARY_BYTES; i++)
 345              		.loc 1 97 0
 346 00c0 4FF00003 		mov	r3, #0
 347 00c4 FB61     		str	r3, [r7, #28]
ARM GAS  C:\Users\Martin\AppData\Local\Temp\ccutgkFX.s 			page 9


 348 00c6 14E0     		b	.L17
 349              	.L18:
  98:.\bpl.c       ****     {
  99:.\bpl.c       ****         rbfStatus = RBF_ucTailByteOut(BPL_ucReceiveBufferIndex, &(msg.instrParams[i]));    //Parame
 350              		.loc 1 99 0
 351 00c8 40F20003 		movw	r3, #:lower16:BPL_ucReceiveBufferIndex
 352 00cc C0F20003 		movt	r3, #:upper16:BPL_ucReceiveBufferIndex
 353 00d0 1A78     		ldrb	r2, [r3, #0]	@ zero_extendqisi2
 354 00d2 F969     		ldr	r1, [r7, #28]
 355 00d4 07F10803 		add	r3, r7, #8
 356 00d8 03F10503 		add	r3, r3, #5
 357 00dc 0B44     		add	r3, r3, r1
 358 00de 1046     		mov	r0, r2
 359 00e0 1946     		mov	r1, r3
 360 00e2 FFF7FEFF 		bl	RBF_ucTailByteOut
 361 00e6 0346     		mov	r3, r0
 362 00e8 3B76     		strb	r3, [r7, #24]
 363              		.loc 1 97 0
 364 00ea FB69     		ldr	r3, [r7, #28]
 365 00ec 03F10103 		add	r3, r3, #1
 366 00f0 FB61     		str	r3, [r7, #28]
 367              	.L17:
 368 00f2 FB7A     		ldrb	r3, [r7, #11]	@ zero_extendqisi2
 369 00f4 A3F10202 		sub	r2, r3, #2
 370 00f8 FB69     		ldr	r3, [r7, #28]
 371 00fa 9A42     		cmp	r2, r3
 372 00fc E4DC     		bgt	.L18
 100:.\bpl.c       ****     }
 101:.\bpl.c       ****     
 102:.\bpl.c       ****     rbfStatus = RBF_ucTailByteOut(BPL_ucReceiveBufferIndex, &(msg.checksum));    //checksum
 373              		.loc 1 102 0
 374 00fe 40F20003 		movw	r3, #:lower16:BPL_ucReceiveBufferIndex
 375 0102 C0F20003 		movt	r3, #:upper16:BPL_ucReceiveBufferIndex
 376 0106 1A78     		ldrb	r2, [r3, #0]	@ zero_extendqisi2
 377 0108 07F10803 		add	r3, r7, #8
 378 010c 03F10D03 		add	r3, r3, #13
 379 0110 1046     		mov	r0, r2
 380 0112 1946     		mov	r1, r3
 381 0114 FFF7FEFF 		bl	RBF_ucTailByteOut
 382 0118 0346     		mov	r3, r0
 383 011a 3B76     		strb	r3, [r7, #24]
 103:.\bpl.c       ****     
 104:.\bpl.c       ****     ucTempChecksum = CDS5500_GetChecksum(&msg);
 384              		.loc 1 104 0
 385 011c 07F10803 		add	r3, r7, #8
 386 0120 1846     		mov	r0, r3
 387 0122 FFF7FEFF 		bl	CDS5500_GetChecksum
 388 0126 0346     		mov	r3, r0
 389 0128 BB76     		strb	r3, [r7, #26]
 105:.\bpl.c       ****         
 106:.\bpl.c       ****     if (rbfStatus != RBF_SUCCESS)
 390              		.loc 1 106 0
 391 012a 3B7E     		ldrb	r3, [r7, #24]	@ zero_extendqisi2
 392 012c 002B     		cmp	r3, #0
 393 012e 1ED0     		beq	.L19
 107:.\bpl.c       ****     {
 108:.\bpl.c       ****         //better clear whole buffer now, something went wrong ...
ARM GAS  C:\Users\Martin\AppData\Local\Temp\ccutgkFX.s 			page 10


 109:.\bpl.c       ****         rbfStatus = RBF_ucClearBuffer(BPL_ucReceiveBufferIndex);
 394              		.loc 1 109 0
 395 0130 40F20003 		movw	r3, #:lower16:BPL_ucReceiveBufferIndex
 396 0134 C0F20003 		movt	r3, #:upper16:BPL_ucReceiveBufferIndex
 397 0138 1B78     		ldrb	r3, [r3, #0]	@ zero_extendqisi2
 398 013a 1846     		mov	r0, r3
 399 013c FFF7FEFF 		bl	RBF_ucClearBuffer
 400 0140 0346     		mov	r3, r0
 401 0142 3B76     		strb	r3, [r7, #24]
 110:.\bpl.c       ****         BPL_CDS5500_ucRxMessageCount--;
 402              		.loc 1 110 0
 403 0144 40F20003 		movw	r3, #:lower16:BPL_CDS5500_ucRxMessageCount
 404 0148 C0F20003 		movt	r3, #:upper16:BPL_CDS5500_ucRxMessageCount
 405 014c 1B78     		ldrb	r3, [r3, #0]	@ zero_extendqisi2
 406 014e 03F1FF33 		add	r3, r3, #-1
 407 0152 DAB2     		uxtb	r2, r3
 408 0154 40F20003 		movw	r3, #:lower16:BPL_CDS5500_ucRxMessageCount
 409 0158 C0F20003 		movt	r3, #:upper16:BPL_CDS5500_ucRxMessageCount
 410 015c 1A70     		strb	r2, [r3, #0]
 111:.\bpl.c       ****         ERR_Error(ERROR_WARNING);
 411              		.loc 1 111 0
 412 015e 4FF0FD00 		mov	r0, #253
 413 0162 FFF7FEFF 		bl	ERR_Error
 112:.\bpl.c       ****         bplStatus = !SUCCESS;
 414              		.loc 1 112 0
 415 0166 4FF00103 		mov	r3, #1
 416 016a 7B76     		strb	r3, [r7, #25]
 417 016c 22E0     		b	.L20
 418              	.L19:
 113:.\bpl.c       ****     }
 114:.\bpl.c       ****     else 
 115:.\bpl.c       ****     {
 116:.\bpl.c       ****         // decrease message count
 117:.\bpl.c       ****         BPL_CDS5500_ucRxMessageCount--;
 419              		.loc 1 117 0
 420 016e 40F20003 		movw	r3, #:lower16:BPL_CDS5500_ucRxMessageCount
 421 0172 C0F20003 		movt	r3, #:upper16:BPL_CDS5500_ucRxMessageCount
 422 0176 1B78     		ldrb	r3, [r3, #0]	@ zero_extendqisi2
 423 0178 03F1FF33 		add	r3, r3, #-1
 424 017c DAB2     		uxtb	r2, r3
 425 017e 40F20003 		movw	r3, #:lower16:BPL_CDS5500_ucRxMessageCount
 426 0182 C0F20003 		movt	r3, #:upper16:BPL_CDS5500_ucRxMessageCount
 427 0186 1A70     		strb	r2, [r3, #0]
 118:.\bpl.c       ****         
 119:.\bpl.c       ****         *targetAddr = msg;
 428              		.loc 1 119 0
 429 0188 7B68     		ldr	r3, [r7, #4]
 430 018a 1946     		mov	r1, r3
 431 018c 07F10802 		add	r2, r7, #8
 432 0190 4FF00E03 		mov	r3, #14
 433 0194 0846     		mov	r0, r1
 434 0196 1146     		mov	r1, r2
 435 0198 1A46     		mov	r2, r3
 436 019a FFF7FEFF 		bl	memcpy
 120:.\bpl.c       ****         
 121:.\bpl.c       ****         if (ucTempChecksum == msg.checksum)
 437              		.loc 1 121 0
ARM GAS  C:\Users\Martin\AppData\Local\Temp\ccutgkFX.s 			page 11


 438 019e 7B7D     		ldrb	r3, [r7, #21]	@ zero_extendqisi2
 439 01a0 BA7E     		ldrb	r2, [r7, #26]	@ zero_extendqisi2
 440 01a2 9A42     		cmp	r2, r3
 441 01a4 03D1     		bne	.L21
 122:.\bpl.c       ****         {
 123:.\bpl.c       ****             bplStatus = BPL_SUCCESS;
 442              		.loc 1 123 0
 443 01a6 4FF00003 		mov	r3, #0
 444 01aa 7B76     		strb	r3, [r7, #25]
 445 01ac 02E0     		b	.L20
 446              	.L21:
 124:.\bpl.c       ****         }
 125:.\bpl.c       ****         else
 126:.\bpl.c       ****         {
 127:.\bpl.c       ****             bplStatus = BPL_STATUS_RX_ERROR; // wrong checksum
 447              		.loc 1 127 0
 448 01ae 6FF00303 		mvn	r3, #3
 449 01b2 7B76     		strb	r3, [r7, #25]
 450              	.L20:
 128:.\bpl.c       ****         }
 129:.\bpl.c       ****     }
 130:.\bpl.c       ****    
 131:.\bpl.c       ****     
 132:.\bpl.c       ****     return bplStatus;
 451              		.loc 1 132 0
 452 01b4 7B7E     		ldrb	r3, [r7, #25]	@ zero_extendqisi2
 453              	.L16:
 133:.\bpl.c       **** }
 454              		.loc 1 133 0
 455 01b6 1846     		mov	r0, r3
 456 01b8 07F12007 		add	r7, r7, #32
 457 01bc BD46     		mov	sp, r7
 458 01be 80BD     		pop	{r7, pc}
 459              		.cfi_endproc
 460              	.LFE34:
 461              		.size	BPL_CDS5500_GetResponse, .-BPL_CDS5500_GetResponse
 462              		.section	.text.BPL_TransmitMessage,"ax",%progbits
 463              		.align	2
 464              		.global	BPL_TransmitMessage
 465              		.thumb
 466              		.thumb_func
 467              		.type	BPL_TransmitMessage, %function
 468              	BPL_TransmitMessage:
 469              	.LFB35:
 134:.\bpl.c       **** 
 135:.\bpl.c       **** /*******************************************************/
 136:.\bpl.c       **** /**
 137:.\bpl.c       ****     Example:    Transmit servo message "CDS5500_INST_PING"
 138:.\bpl.c       ****     
 139:.\bpl.c       ****         BAL message                              BPL message:
 140:.\bpl.c       ****         
 141:.\bpl.c       ****         SB0  SB1  MID  LEN  INID PAR CHKS        LEN  SRC                           LEN
 142:.\bpl.c       ****         ---------------------------------   ==>  ---------------------------------------
 143:.\bpl.c       ****         0xFF 0xFF 0x01 0x02 0x01 -   0xFB        0x06 0xFF 0xFF 0x01 0x02 0x01 0xFB 0x06
 144:.\bpl.c       ****     
 145:.\bpl.c       ****         -> msgLength = 6
 146:.\bpl.c       **** */
ARM GAS  C:\Users\Martin\AppData\Local\Temp\ccutgkFX.s 			page 12


 147:.\bpl.c       **** STATUS BPL_TransmitMessage(uint8* source, uint8 msgLength)
 148:.\bpl.c       **** {
 470              		.loc 1 148 0
 471              		.cfi_startproc
 472              		@ args = 0, pretend = 0, frame = 16
 473              		@ frame_needed = 1, uses_anonymous_args = 0
 474 0000 80B5     		push	{r7, lr}
 475              	.LCFI15:
 476              		.cfi_def_cfa_offset 8
 477 0002 84B0     		sub	sp, sp, #16
 478              	.LCFI16:
 479              		.cfi_def_cfa_offset 24
 480 0004 00AF     		add	r7, sp, #0
 481              		.cfi_offset 14, -4
 482              		.cfi_offset 7, -8
 483              	.LCFI17:
 484              		.cfi_def_cfa_register 7
 485 0006 7860     		str	r0, [r7, #4]
 486 0008 0B46     		mov	r3, r1
 487 000a FB70     		strb	r3, [r7, #3]
 149:.\bpl.c       ****     STATUS rbfStatus;
 150:.\bpl.c       ****     
 151:.\bpl.c       ****     // read message into ring buffer
 152:.\bpl.c       ****     rbfStatus = RBF_ucMsgIn(BPL_ucTransmitBufferIndex, source, msgLength);
 488              		.loc 1 152 0
 489 000c 40F20003 		movw	r3, #:lower16:BPL_ucTransmitBufferIndex
 490 0010 C0F20003 		movt	r3, #:upper16:BPL_ucTransmitBufferIndex
 491 0014 1A78     		ldrb	r2, [r3, #0]	@ zero_extendqisi2
 492 0016 FB78     		ldrb	r3, [r7, #3]	@ zero_extendqisi2
 493 0018 1046     		mov	r0, r2
 494 001a 7968     		ldr	r1, [r7, #4]
 495 001c 1A46     		mov	r2, r3
 496 001e FFF7FEFF 		bl	RBF_ucMsgIn
 497 0022 0346     		mov	r3, r0
 498 0024 FB73     		strb	r3, [r7, #15]
 153:.\bpl.c       **** 
 154:.\bpl.c       ****     return rbfStatus;	
 499              		.loc 1 154 0
 500 0026 FB7B     		ldrb	r3, [r7, #15]	@ zero_extendqisi2
 155:.\bpl.c       **** }
 501              		.loc 1 155 0
 502 0028 1846     		mov	r0, r3
 503 002a 07F11007 		add	r7, r7, #16
 504 002e BD46     		mov	sp, r7
 505 0030 80BD     		pop	{r7, pc}
 506              		.cfi_endproc
 507              	.LFE35:
 508              		.size	BPL_TransmitMessage, .-BPL_TransmitMessage
 509 0032 00BF     		.section	.text.BPL_HandleTask,"ax",%progbits
 510              		.align	2
 511              		.global	BPL_HandleTask
 512              		.thumb
 513              		.thumb_func
 514              		.type	BPL_HandleTask, %function
 515              	BPL_HandleTask:
 516              	.LFB36:
 156:.\bpl.c       **** 
ARM GAS  C:\Users\Martin\AppData\Local\Temp\ccutgkFX.s 			page 13


 157:.\bpl.c       **** /*******************************************************/
 158:.\bpl.c       **** STATUS BPL_HandleTask(void)
 159:.\bpl.c       **** {
 517              		.loc 1 159 0
 518              		.cfi_startproc
 519              		@ args = 0, pretend = 0, frame = 40
 520              		@ frame_needed = 1, uses_anonymous_args = 0
 521 0000 80B5     		push	{r7, lr}
 522              	.LCFI18:
 523              		.cfi_def_cfa_offset 8
 524 0002 8AB0     		sub	sp, sp, #40
 525              	.LCFI19:
 526              		.cfi_def_cfa_offset 48
 527 0004 00AF     		add	r7, sp, #0
 528              		.cfi_offset 14, -4
 529              		.cfi_offset 7, -8
 530              	.LCFI20:
 531              		.cfi_def_cfa_register 7
 160:.\bpl.c       ****     STATUS rbfStatus, BplStatus;
 161:.\bpl.c       **** 	uint8_t ucNumBytes;
 162:.\bpl.c       ****     uint8_t ucByte;
 163:.\bpl.c       ****     uint8_t ucStartByte1, ucStartByte2;
 164:.\bpl.c       **** 	uint8_t ucMessageBuffer[BPL_MAX_MESSAGE_LENGTH];
 165:.\bpl.c       ****     
 166:.\bpl.c       **** 	/* Handle received bytes */
 167:.\bpl.c       **** 	/* --------------------- */
 168:.\bpl.c       **** 	while (HAL_GetRxIsrCount() > 0)
 532              		.loc 1 168 0
 533 0006 12E0     		b	.L26
 534              	.L27:
 169:.\bpl.c       **** 	{
 170:.\bpl.c       ****         ucByte = HAL_GetByte();
 535              		.loc 1 170 0
 536 0008 FFF7FEFF 		bl	HAL_GetByte
 537 000c 0346     		mov	r3, r0
 538 000e 87F82730 		strb	r3, [r7, #39]
 171:.\bpl.c       ****         rbfStatus = RBF_ucByteIn(BPL_ucReceiveBufferIndex, ucByte);
 539              		.loc 1 171 0
 540 0012 40F20003 		movw	r3, #:lower16:BPL_ucReceiveBufferIndex
 541 0016 C0F20003 		movt	r3, #:upper16:BPL_ucReceiveBufferIndex
 542 001a 1A78     		ldrb	r2, [r3, #0]	@ zero_extendqisi2
 543 001c 97F82730 		ldrb	r3, [r7, #39]	@ zero_extendqisi2
 544 0020 1046     		mov	r0, r2
 545 0022 1946     		mov	r1, r3
 546 0024 FFF7FEFF 		bl	RBF_ucByteIn
 547 0028 0346     		mov	r3, r0
 548 002a 87F82530 		strb	r3, [r7, #37]
 549              	.L26:
 550              		.loc 1 168 0
 551 002e FFF7FEFF 		bl	HAL_GetRxIsrCount
 552 0032 0346     		mov	r3, r0
 553 0034 002B     		cmp	r3, #0
 554 0036 E7D1     		bne	.L27
 172:.\bpl.c       ****         
 173:.\bpl.c       **** 		if (rbfStatus != RBF_SUCCESS)
 174:.\bpl.c       **** 		{
 175:.\bpl.c       **** 			//error handling
ARM GAS  C:\Users\Martin\AppData\Local\Temp\ccutgkFX.s 			page 14


 176:.\bpl.c       **** 		}
 177:.\bpl.c       **** 	}
 178:.\bpl.c       **** 
 179:.\bpl.c       ****     // Check if (complete) CDS5500 message received
 180:.\bpl.c       ****     // --------------------------------------------
 181:.\bpl.c       ****     if (RBF_ucGetByteCount(BPL_ucReceiveBufferIndex) >= CDS5500_STATUS_PACKET_MIN_LENGTH)
 555              		.loc 1 181 0
 556 0038 40F20003 		movw	r3, #:lower16:BPL_ucReceiveBufferIndex
 557 003c C0F20003 		movt	r3, #:upper16:BPL_ucReceiveBufferIndex
 558 0040 1B78     		ldrb	r3, [r3, #0]	@ zero_extendqisi2
 559 0042 1846     		mov	r0, r3
 560 0044 FFF7FEFF 		bl	RBF_ucGetByteCount
 561 0048 0346     		mov	r3, r0
 562 004a 052B     		cmp	r3, #5
 563 004c 5ED9     		bls	.L28
 182:.\bpl.c       ****     {
 183:.\bpl.c       ****         rbfStatus = RBF_ucReadOnlyFromTail(BPL_ucReceiveBufferIndex, &ucStartByte1, 0);
 564              		.loc 1 183 0
 565 004e 40F20003 		movw	r3, #:lower16:BPL_ucReceiveBufferIndex
 566 0052 C0F20003 		movt	r3, #:upper16:BPL_ucReceiveBufferIndex
 567 0056 1A78     		ldrb	r2, [r3, #0]	@ zero_extendqisi2
 568 0058 07F12303 		add	r3, r7, #35
 569 005c 1046     		mov	r0, r2
 570 005e 1946     		mov	r1, r3
 571 0060 4FF00002 		mov	r2, #0
 572 0064 FFF7FEFF 		bl	RBF_ucReadOnlyFromTail
 573 0068 0346     		mov	r3, r0
 574 006a 87F82530 		strb	r3, [r7, #37]
 184:.\bpl.c       ****         rbfStatus |= RBF_ucReadOnlyFromTail(BPL_ucReceiveBufferIndex, &ucStartByte2, 1);
 575              		.loc 1 184 0
 576 006e 40F20003 		movw	r3, #:lower16:BPL_ucReceiveBufferIndex
 577 0072 C0F20003 		movt	r3, #:upper16:BPL_ucReceiveBufferIndex
 578 0076 1A78     		ldrb	r2, [r3, #0]	@ zero_extendqisi2
 579 0078 07F12203 		add	r3, r7, #34
 580 007c 1046     		mov	r0, r2
 581 007e 1946     		mov	r1, r3
 582 0080 4FF00102 		mov	r2, #1
 583 0084 FFF7FEFF 		bl	RBF_ucReadOnlyFromTail
 584 0088 0346     		mov	r3, r0
 585 008a 1A46     		mov	r2, r3
 586 008c 97F82530 		ldrb	r3, [r7, #37]
 587 0090 42EA0303 		orr	r3, r2, r3
 588 0094 87F82530 		strb	r3, [r7, #37]
 185:.\bpl.c       ****         rbfStatus |= RBF_ucReadOnlyFromTail(BPL_ucReceiveBufferIndex, &ucNumBytes, 3);
 589              		.loc 1 185 0
 590 0098 40F20003 		movw	r3, #:lower16:BPL_ucReceiveBufferIndex
 591 009c C0F20003 		movt	r3, #:upper16:BPL_ucReceiveBufferIndex
 592 00a0 1A78     		ldrb	r2, [r3, #0]	@ zero_extendqisi2
 593 00a2 07F12403 		add	r3, r7, #36
 594 00a6 1046     		mov	r0, r2
 595 00a8 1946     		mov	r1, r3
 596 00aa 4FF00302 		mov	r2, #3
 597 00ae FFF7FEFF 		bl	RBF_ucReadOnlyFromTail
 598 00b2 0346     		mov	r3, r0
 599 00b4 1A46     		mov	r2, r3
 600 00b6 97F82530 		ldrb	r3, [r7, #37]
 601 00ba 42EA0303 		orr	r3, r2, r3
ARM GAS  C:\Users\Martin\AppData\Local\Temp\ccutgkFX.s 			page 15


 602 00be 87F82530 		strb	r3, [r7, #37]
 186:.\bpl.c       ****         
 187:.\bpl.c       ****         if (        (ucStartByte1 == 0xFF) && (ucStartByte2 == 0xFF) 
 603              		.loc 1 187 0
 604 00c2 97F82330 		ldrb	r3, [r7, #35]	@ zero_extendqisi2
 605 00c6 FF2B     		cmp	r3, #255
 606 00c8 20D1     		bne	.L28
 607 00ca 97F82230 		ldrb	r3, [r7, #34]	@ zero_extendqisi2
 608 00ce FF2B     		cmp	r3, #255
 609 00d0 1CD1     		bne	.L28
 188:.\bpl.c       ****                 &&  (RBF_ucGetByteCount(BPL_ucReceiveBufferIndex) >= (ucNumBytes + 4)) //(0XFF 0XFF
 610              		.loc 1 188 0
 611 00d2 40F20003 		movw	r3, #:lower16:BPL_ucReceiveBufferIndex
 612 00d6 C0F20003 		movt	r3, #:upper16:BPL_ucReceiveBufferIndex
 613 00da 1B78     		ldrb	r3, [r3, #0]	@ zero_extendqisi2
 614 00dc 1846     		mov	r0, r3
 615 00de FFF7FEFF 		bl	RBF_ucGetByteCount
 616 00e2 0346     		mov	r3, r0
 617 00e4 1A46     		mov	r2, r3
 618 00e6 97F82430 		ldrb	r3, [r7, #36]	@ zero_extendqisi2
 619 00ea 03F10403 		add	r3, r3, #4
 620              		.loc 1 187 0
 621 00ee 9A42     		cmp	r2, r3
 622 00f0 0CDB     		blt	.L28
 189:.\bpl.c       ****            )
 190:.\bpl.c       ****         {
 191:.\bpl.c       ****             BPL_CDS5500_ucRxMessageCount++; //Message can now be picked up using BPL_CDS5500_GetRes
 623              		.loc 1 191 0
 624 00f2 40F20003 		movw	r3, #:lower16:BPL_CDS5500_ucRxMessageCount
 625 00f6 C0F20003 		movt	r3, #:upper16:BPL_CDS5500_ucRxMessageCount
 626 00fa 1B78     		ldrb	r3, [r3, #0]	@ zero_extendqisi2
 627 00fc 03F10103 		add	r3, r3, #1
 628 0100 DAB2     		uxtb	r2, r3
 629 0102 40F20003 		movw	r3, #:lower16:BPL_CDS5500_ucRxMessageCount
 630 0106 C0F20003 		movt	r3, #:upper16:BPL_CDS5500_ucRxMessageCount
 631 010a 1A70     		strb	r2, [r3, #0]
 632              	.L28:
 192:.\bpl.c       ****         }
 193:.\bpl.c       ****     }    
 194:.\bpl.c       ****     
 195:.\bpl.c       **** 	
 196:.\bpl.c       **** 	/* Handle transmission of bytes */
 197:.\bpl.c       **** 	/* ---------------------------- */
 198:.\bpl.c       ****     if (RBF_ucGetMsgCount(BPL_ucTransmitBufferIndex) > 0)
 633              		.loc 1 198 0
 634 010c 40F20003 		movw	r3, #:lower16:BPL_ucTransmitBufferIndex
 635 0110 C0F20003 		movt	r3, #:upper16:BPL_ucTransmitBufferIndex
 636 0114 1B78     		ldrb	r3, [r3, #0]	@ zero_extendqisi2
 637 0116 1846     		mov	r0, r3
 638 0118 FFF7FEFF 		bl	RBF_ucGetMsgCount
 639 011c 0346     		mov	r3, r0
 640 011e 002B     		cmp	r3, #0
 641 0120 19D0     		beq	.L29
 199:.\bpl.c       ****     {
 200:.\bpl.c       ****         rbfStatus = RBF_ucTailMsgOut(BPL_ucTransmitBufferIndex, ucMessageBuffer, &ucNumBytes);
 642              		.loc 1 200 0
 643 0122 40F20003 		movw	r3, #:lower16:BPL_ucTransmitBufferIndex
ARM GAS  C:\Users\Martin\AppData\Local\Temp\ccutgkFX.s 			page 16


 644 0126 C0F20003 		movt	r3, #:upper16:BPL_ucTransmitBufferIndex
 645 012a 1978     		ldrb	r1, [r3, #0]	@ zero_extendqisi2
 646 012c 3A46     		mov	r2, r7
 647 012e 07F12403 		add	r3, r7, #36
 648 0132 0846     		mov	r0, r1
 649 0134 1146     		mov	r1, r2
 650 0136 1A46     		mov	r2, r3
 651 0138 FFF7FEFF 		bl	RBF_ucTailMsgOut
 652 013c 0346     		mov	r3, r0
 653 013e 87F82530 		strb	r3, [r7, #37]
 201:.\bpl.c       ****         
 202:.\bpl.c       ****         // LENGTH | CONTENT | LENGTH
 203:.\bpl.c       **** 		BplStatus = HAL_TransmitArray(&ucMessageBuffer[0], ucNumBytes);
 654              		.loc 1 203 0
 655 0142 97F82430 		ldrb	r3, [r7, #36]	@ zero_extendqisi2
 656 0146 3A46     		mov	r2, r7
 657 0148 1046     		mov	r0, r2
 658 014a 1946     		mov	r1, r3
 659 014c FFF7FEFF 		bl	HAL_TransmitArray
 660 0150 0346     		mov	r3, r0
 661 0152 87F82630 		strb	r3, [r7, #38]
 662              	.L29:
 204:.\bpl.c       ****             
 205:.\bpl.c       ****         if (rbfStatus != RBF_SUCCESS)
 206:.\bpl.c       **** 		{
 207:.\bpl.c       **** 			//error handling
 208:.\bpl.c       **** 		}
 209:.\bpl.c       **** 	}
 210:.\bpl.c       **** 	
 211:.\bpl.c       ****     
 212:.\bpl.c       ****     return BplStatus;
 663              		.loc 1 212 0
 664 0156 97F82630 		ldrb	r3, [r7, #38]	@ zero_extendqisi2
 213:.\bpl.c       **** }
 665              		.loc 1 213 0
 666 015a 1846     		mov	r0, r3
 667 015c 07F12807 		add	r7, r7, #40
 668 0160 BD46     		mov	sp, r7
 669 0162 80BD     		pop	{r7, pc}
 670              		.cfi_endproc
 671              	.LFE36:
 672              		.size	BPL_HandleTask, .-BPL_HandleTask
 673              		.text
 674              	.Letext0:
 675              		.section	.debug_loc,"",%progbits
 676              	.Ldebug_loc0:
 677              	.LLST0:
 678 0000 00000000 		.4byte	.LFB29
 679 0004 02000000 		.4byte	.LCFI0
 680 0008 0100     		.2byte	0x1
 681 000a 5D       		.byte	0x5d
 682 000b 02000000 		.4byte	.LCFI0
 683 000f 04000000 		.4byte	.LCFI1
 684 0013 0200     		.2byte	0x2
 685 0015 7D       		.byte	0x7d
 686 0016 08       		.sleb128 8
 687 0017 04000000 		.4byte	.LCFI1
ARM GAS  C:\Users\Martin\AppData\Local\Temp\ccutgkFX.s 			page 17


 688 001b 48000000 		.4byte	.LFE29
 689 001f 0200     		.2byte	0x2
 690 0021 77       		.byte	0x77
 691 0022 08       		.sleb128 8
 692 0023 00000000 		.4byte	0x0
 693 0027 00000000 		.4byte	0x0
 694              	.LLST1:
 695 002b 00000000 		.4byte	.LFB30
 696 002f 02000000 		.4byte	.LCFI2
 697 0033 0100     		.2byte	0x1
 698 0035 5D       		.byte	0x5d
 699 0036 02000000 		.4byte	.LCFI2
 700 003a 04000000 		.4byte	.LCFI3
 701 003e 0200     		.2byte	0x2
 702 0040 7D       		.byte	0x7d
 703 0041 04       		.sleb128 4
 704 0042 04000000 		.4byte	.LCFI3
 705 0046 16000000 		.4byte	.LFE30
 706 004a 0200     		.2byte	0x2
 707 004c 77       		.byte	0x77
 708 004d 04       		.sleb128 4
 709 004e 00000000 		.4byte	0x0
 710 0052 00000000 		.4byte	0x0
 711              	.LLST2:
 712 0056 00000000 		.4byte	.LFB31
 713 005a 02000000 		.4byte	.LCFI4
 714 005e 0100     		.2byte	0x1
 715 0060 5D       		.byte	0x5d
 716 0061 02000000 		.4byte	.LCFI4
 717 0065 04000000 		.4byte	.LCFI5
 718 0069 0200     		.2byte	0x2
 719 006b 7D       		.byte	0x7d
 720 006c 04       		.sleb128 4
 721 006d 04000000 		.4byte	.LCFI5
 722 0071 06000000 		.4byte	.LCFI6
 723 0075 0200     		.2byte	0x2
 724 0077 7D       		.byte	0x7d
 725 0078 10       		.sleb128 16
 726 0079 06000000 		.4byte	.LCFI6
 727 007d 20000000 		.4byte	.LFE31
 728 0081 0200     		.2byte	0x2
 729 0083 77       		.byte	0x77
 730 0084 10       		.sleb128 16
 731 0085 00000000 		.4byte	0x0
 732 0089 00000000 		.4byte	0x0
 733              	.LLST3:
 734 008d 00000000 		.4byte	.LFB32
 735 0091 02000000 		.4byte	.LCFI7
 736 0095 0100     		.2byte	0x1
 737 0097 5D       		.byte	0x5d
 738 0098 02000000 		.4byte	.LCFI7
 739 009c 04000000 		.4byte	.LCFI8
 740 00a0 0200     		.2byte	0x2
 741 00a2 7D       		.byte	0x7d
 742 00a3 08       		.sleb128 8
 743 00a4 04000000 		.4byte	.LCFI8
 744 00a8 1A000000 		.4byte	.LFE32
ARM GAS  C:\Users\Martin\AppData\Local\Temp\ccutgkFX.s 			page 18


 745 00ac 0200     		.2byte	0x2
 746 00ae 77       		.byte	0x77
 747 00af 08       		.sleb128 8
 748 00b0 00000000 		.4byte	0x0
 749 00b4 00000000 		.4byte	0x0
 750              	.LLST4:
 751 00b8 00000000 		.4byte	.LFB33
 752 00bc 02000000 		.4byte	.LCFI9
 753 00c0 0100     		.2byte	0x1
 754 00c2 5D       		.byte	0x5d
 755 00c3 02000000 		.4byte	.LCFI9
 756 00c7 04000000 		.4byte	.LCFI10
 757 00cb 0200     		.2byte	0x2
 758 00cd 7D       		.byte	0x7d
 759 00ce 08       		.sleb128 8
 760 00cf 04000000 		.4byte	.LCFI10
 761 00d3 06000000 		.4byte	.LCFI11
 762 00d7 0200     		.2byte	0x2
 763 00d9 7D       		.byte	0x7d
 764 00da 18       		.sleb128 24
 765 00db 06000000 		.4byte	.LCFI11
 766 00df 4C000000 		.4byte	.LFE33
 767 00e3 0200     		.2byte	0x2
 768 00e5 77       		.byte	0x77
 769 00e6 18       		.sleb128 24
 770 00e7 00000000 		.4byte	0x0
 771 00eb 00000000 		.4byte	0x0
 772              	.LLST5:
 773 00ef 00000000 		.4byte	.LFB34
 774 00f3 02000000 		.4byte	.LCFI12
 775 00f7 0100     		.2byte	0x1
 776 00f9 5D       		.byte	0x5d
 777 00fa 02000000 		.4byte	.LCFI12
 778 00fe 04000000 		.4byte	.LCFI13
 779 0102 0200     		.2byte	0x2
 780 0104 7D       		.byte	0x7d
 781 0105 08       		.sleb128 8
 782 0106 04000000 		.4byte	.LCFI13
 783 010a 06000000 		.4byte	.LCFI14
 784 010e 0200     		.2byte	0x2
 785 0110 7D       		.byte	0x7d
 786 0111 28       		.sleb128 40
 787 0112 06000000 		.4byte	.LCFI14
 788 0116 C0010000 		.4byte	.LFE34
 789 011a 0200     		.2byte	0x2
 790 011c 77       		.byte	0x77
 791 011d 28       		.sleb128 40
 792 011e 00000000 		.4byte	0x0
 793 0122 00000000 		.4byte	0x0
 794              	.LLST6:
 795 0126 00000000 		.4byte	.LFB35
 796 012a 02000000 		.4byte	.LCFI15
 797 012e 0100     		.2byte	0x1
 798 0130 5D       		.byte	0x5d
 799 0131 02000000 		.4byte	.LCFI15
 800 0135 04000000 		.4byte	.LCFI16
 801 0139 0200     		.2byte	0x2
ARM GAS  C:\Users\Martin\AppData\Local\Temp\ccutgkFX.s 			page 19


 802 013b 7D       		.byte	0x7d
 803 013c 08       		.sleb128 8
 804 013d 04000000 		.4byte	.LCFI16
 805 0141 06000000 		.4byte	.LCFI17
 806 0145 0200     		.2byte	0x2
 807 0147 7D       		.byte	0x7d
 808 0148 18       		.sleb128 24
 809 0149 06000000 		.4byte	.LCFI17
 810 014d 32000000 		.4byte	.LFE35
 811 0151 0200     		.2byte	0x2
 812 0153 77       		.byte	0x77
 813 0154 18       		.sleb128 24
 814 0155 00000000 		.4byte	0x0
 815 0159 00000000 		.4byte	0x0
 816              	.LLST7:
 817 015d 00000000 		.4byte	.LFB36
 818 0161 02000000 		.4byte	.LCFI18
 819 0165 0100     		.2byte	0x1
 820 0167 5D       		.byte	0x5d
 821 0168 02000000 		.4byte	.LCFI18
 822 016c 04000000 		.4byte	.LCFI19
 823 0170 0200     		.2byte	0x2
 824 0172 7D       		.byte	0x7d
 825 0173 08       		.sleb128 8
 826 0174 04000000 		.4byte	.LCFI19
 827 0178 06000000 		.4byte	.LCFI20
 828 017c 0200     		.2byte	0x2
 829 017e 7D       		.byte	0x7d
 830 017f 30       		.sleb128 48
 831 0180 06000000 		.4byte	.LCFI20
 832 0184 64010000 		.4byte	.LFE36
 833 0188 0200     		.2byte	0x2
 834 018a 77       		.byte	0x77
 835 018b 30       		.sleb128 48
 836 018c 00000000 		.4byte	0x0
 837 0190 00000000 		.4byte	0x0
 838              		.file 2 "c:\\program files (x86)\\cypress\\psoc creator\\2.2\\psoc creator\\import\\gnu_cs\\arm\\4
 839              		.file 3 "./Generated_Source/PSoC5/cytypes.h"
 840              		.file 4 ".\\/types.h"
 841              		.file 5 ".\\/servo_cds5500.h"
 842              		.file 6 "./Generated_Source/PSoC5/core_cm3.h"
 843              		.section	.debug_info
 844 0000 C4030000 		.4byte	0x3c4
 845 0004 0200     		.2byte	0x2
 846 0006 00000000 		.4byte	.Ldebug_abbrev0
 847 000a 04       		.byte	0x4
 848 000b 01       		.uleb128 0x1
 849 000c CD010000 		.4byte	.LASF49
 850 0010 01       		.byte	0x1
 851 0011 31010000 		.4byte	.LASF50
 852 0015 B9020000 		.4byte	.LASF51
 853 0019 00000000 		.4byte	0x0
 854 001d 00000000 		.4byte	0x0
 855 0021 00000000 		.4byte	.Ldebug_ranges0+0x0
 856 0025 00000000 		.4byte	.Ldebug_line0
 857 0029 02       		.uleb128 0x2
 858 002a 01       		.byte	0x1
ARM GAS  C:\Users\Martin\AppData\Local\Temp\ccutgkFX.s 			page 20


 859 002b 06       		.byte	0x6
 860 002c A0010000 		.4byte	.LASF0
 861 0030 03       		.uleb128 0x3
 862 0031 98010000 		.4byte	.LASF9
 863 0035 02       		.byte	0x2
 864 0036 2A       		.byte	0x2a
 865 0037 3B000000 		.4byte	0x3b
 866 003b 02       		.uleb128 0x2
 867 003c 01       		.byte	0x1
 868 003d 08       		.byte	0x8
 869 003e ED000000 		.4byte	.LASF1
 870 0042 02       		.uleb128 0x2
 871 0043 02       		.byte	0x2
 872 0044 05       		.byte	0x5
 873 0045 FB010000 		.4byte	.LASF2
 874 0049 02       		.uleb128 0x2
 875 004a 02       		.byte	0x2
 876 004b 07       		.byte	0x7
 877 004c B0000000 		.4byte	.LASF3
 878 0050 02       		.uleb128 0x2
 879 0051 04       		.byte	0x4
 880 0052 05       		.byte	0x5
 881 0053 36020000 		.4byte	.LASF4
 882 0057 02       		.uleb128 0x2
 883 0058 04       		.byte	0x4
 884 0059 07       		.byte	0x7
 885 005a 9E000000 		.4byte	.LASF5
 886 005e 02       		.uleb128 0x2
 887 005f 08       		.byte	0x8
 888 0060 05       		.byte	0x5
 889 0061 00000000 		.4byte	.LASF6
 890 0065 02       		.uleb128 0x2
 891 0066 08       		.byte	0x8
 892 0067 07       		.byte	0x7
 893 0068 81010000 		.4byte	.LASF7
 894 006c 04       		.uleb128 0x4
 895 006d 04       		.byte	0x4
 896 006e 05       		.byte	0x5
 897 006f 696E7400 		.ascii	"int\000"
 898 0073 02       		.uleb128 0x2
 899 0074 04       		.byte	0x4
 900 0075 07       		.byte	0x7
 901 0076 39010000 		.4byte	.LASF8
 902 007a 03       		.uleb128 0x3
 903 007b 10020000 		.4byte	.LASF10
 904 007f 03       		.byte	0x3
 905 0080 4C       		.byte	0x4c
 906 0081 3B000000 		.4byte	0x3b
 907 0085 02       		.uleb128 0x2
 908 0086 04       		.byte	0x4
 909 0087 04       		.byte	0x4
 910 0088 4B000000 		.4byte	.LASF11
 911 008c 02       		.uleb128 0x2
 912 008d 08       		.byte	0x8
 913 008e 04       		.byte	0x4
 914 008f 02010000 		.4byte	.LASF12
 915 0093 02       		.uleb128 0x2
ARM GAS  C:\Users\Martin\AppData\Local\Temp\ccutgkFX.s 			page 21


 916 0094 01       		.byte	0x1
 917 0095 08       		.byte	0x8
 918 0096 3F020000 		.4byte	.LASF13
 919 009a 05       		.uleb128 0x5
 920 009b 04       		.byte	0x4
 921 009c 07       		.byte	0x7
 922 009d 03       		.uleb128 0x3
 923 009e 67000000 		.4byte	.LASF14
 924 00a2 04       		.byte	0x4
 925 00a3 0F       		.byte	0xf
 926 00a4 7A000000 		.4byte	0x7a
 927 00a8 06       		.uleb128 0x6
 928 00a9 46010000 		.4byte	.LASF52
 929 00ad 0E       		.byte	0xe
 930 00ae 05       		.byte	0x5
 931 00af 52       		.byte	0x52
 932 00b0 17010000 		.4byte	0x117
 933 00b4 07       		.uleb128 0x7
 934 00b5 51000000 		.4byte	.LASF15
 935 00b9 05       		.byte	0x5
 936 00ba 53       		.byte	0x53
 937 00bb 7A000000 		.4byte	0x7a
 938 00bf 02       		.byte	0x2
 939 00c0 23       		.byte	0x23
 940 00c1 00       		.uleb128 0x0
 941 00c2 07       		.uleb128 0x7
 942 00c3 5C000000 		.4byte	.LASF16
 943 00c7 05       		.byte	0x5
 944 00c8 54       		.byte	0x54
 945 00c9 7A000000 		.4byte	0x7a
 946 00cd 02       		.byte	0x2
 947 00ce 23       		.byte	0x23
 948 00cf 01       		.uleb128 0x1
 949 00d0 07       		.uleb128 0x7
 950 00d1 29010000 		.4byte	.LASF17
 951 00d5 05       		.byte	0x5
 952 00d6 55       		.byte	0x55
 953 00d7 7A000000 		.4byte	0x7a
 954 00db 02       		.byte	0x2
 955 00dc 23       		.byte	0x23
 956 00dd 02       		.uleb128 0x2
 957 00de 07       		.uleb128 0x7
 958 00df B2020000 		.4byte	.LASF18
 959 00e3 05       		.byte	0x5
 960 00e4 56       		.byte	0x56
 961 00e5 7A000000 		.4byte	0x7a
 962 00e9 02       		.byte	0x2
 963 00ea 23       		.byte	0x23
 964 00eb 03       		.uleb128 0x3
 965 00ec 07       		.uleb128 0x7
 966 00ed C5010000 		.4byte	.LASF19
 967 00f1 05       		.byte	0x5
 968 00f2 57       		.byte	0x57
 969 00f3 7A000000 		.4byte	0x7a
 970 00f7 02       		.byte	0x2
 971 00f8 23       		.byte	0x23
 972 00f9 04       		.uleb128 0x4
ARM GAS  C:\Users\Martin\AppData\Local\Temp\ccutgkFX.s 			page 22


 973 00fa 07       		.uleb128 0x7
 974 00fb 5C020000 		.4byte	.LASF20
 975 00ff 05       		.byte	0x5
 976 0100 58       		.byte	0x58
 977 0101 17010000 		.4byte	0x117
 978 0105 02       		.byte	0x2
 979 0106 23       		.byte	0x23
 980 0107 05       		.uleb128 0x5
 981 0108 07       		.uleb128 0x7
 982 0109 0E000000 		.4byte	.LASF21
 983 010d 05       		.byte	0x5
 984 010e 59       		.byte	0x59
 985 010f 7A000000 		.4byte	0x7a
 986 0113 02       		.byte	0x2
 987 0114 23       		.byte	0x23
 988 0115 0D       		.uleb128 0xd
 989 0116 00       		.byte	0x0
 990 0117 08       		.uleb128 0x8
 991 0118 7A000000 		.4byte	0x7a
 992 011c 27010000 		.4byte	0x127
 993 0120 09       		.uleb128 0x9
 994 0121 9A000000 		.4byte	0x9a
 995 0125 07       		.byte	0x7
 996 0126 00       		.byte	0x0
 997 0127 03       		.uleb128 0x3
 998 0128 3F000000 		.4byte	.LASF22
 999 012c 05       		.byte	0x5
 1000 012d 5A       		.byte	0x5a
 1001 012e A8000000 		.4byte	0xa8
 1002 0132 0A       		.uleb128 0xa
 1003 0133 04       		.byte	0x4
 1004 0134 7A000000 		.4byte	0x7a
 1005 0138 0B       		.uleb128 0xb
 1006 0139 01       		.byte	0x1
 1007 013a 6E000000 		.4byte	.LASF23
 1008 013e 01       		.byte	0x1
 1009 013f 21       		.byte	0x21
 1010 0140 01       		.byte	0x1
 1011 0141 9D000000 		.4byte	0x9d
 1012 0145 00000000 		.4byte	.LFB29
 1013 0149 48000000 		.4byte	.LFE29
 1014 014d 00000000 		.4byte	.LLST0
 1015 0151 0B       		.uleb128 0xb
 1016 0152 01       		.byte	0x1
 1017 0153 09010000 		.4byte	.LASF24
 1018 0157 01       		.byte	0x1
 1019 0158 2B       		.byte	0x2b
 1020 0159 01       		.byte	0x1
 1021 015a 30000000 		.4byte	0x30
 1022 015e 00000000 		.4byte	.LFB30
 1023 0162 16000000 		.4byte	.LFE30
 1024 0166 2B000000 		.4byte	.LLST1
 1025 016a 0C       		.uleb128 0xc
 1026 016b 01       		.byte	0x1
 1027 016c 16020000 		.4byte	.LASF53
 1028 0170 01       		.byte	0x1
 1029 0171 31       		.byte	0x31
ARM GAS  C:\Users\Martin\AppData\Local\Temp\ccutgkFX.s 			page 23


 1030 0172 01       		.byte	0x1
 1031 0173 00000000 		.4byte	.LFB31
 1032 0177 20000000 		.4byte	.LFE31
 1033 017b 56000000 		.4byte	.LLST2
 1034 017f 92010000 		.4byte	0x192
 1035 0183 0D       		.uleb128 0xd
 1036 0184 28000000 		.4byte	.LASF26
 1037 0188 01       		.byte	0x1
 1038 0189 31       		.byte	0x31
 1039 018a 30000000 		.4byte	0x30
 1040 018e 02       		.byte	0x2
 1041 018f 91       		.byte	0x91
 1042 0190 77       		.sleb128 -9
 1043 0191 00       		.byte	0x0
 1044 0192 0B       		.uleb128 0xb
 1045 0193 01       		.byte	0x1
 1046 0194 E4010000 		.4byte	.LASF25
 1047 0198 01       		.byte	0x1
 1048 0199 37       		.byte	0x37
 1049 019a 01       		.byte	0x1
 1050 019b 7A000000 		.4byte	0x7a
 1051 019f 00000000 		.4byte	.LFB32
 1052 01a3 1A000000 		.4byte	.LFE32
 1053 01a7 8D000000 		.4byte	.LLST3
 1054 01ab 0E       		.uleb128 0xe
 1055 01ac 01       		.byte	0x1
 1056 01ad 26030000 		.4byte	.LASF30
 1057 01b1 01       		.byte	0x1
 1058 01b2 3D       		.byte	0x3d
 1059 01b3 01       		.byte	0x1
 1060 01b4 7A000000 		.4byte	0x7a
 1061 01b8 00000000 		.4byte	.LFB33
 1062 01bc 4C000000 		.4byte	.LFE33
 1063 01c0 B8000000 		.4byte	.LLST4
 1064 01c4 F3010000 		.4byte	0x1f3
 1065 01c8 0D       		.uleb128 0xd
 1066 01c9 38000000 		.4byte	.LASF27
 1067 01cd 01       		.byte	0x1
 1068 01ce 3D       		.byte	0x3d
 1069 01cf 32010000 		.4byte	0x132
 1070 01d3 02       		.byte	0x2
 1071 01d4 91       		.byte	0x91
 1072 01d5 6C       		.sleb128 -20
 1073 01d6 0F       		.uleb128 0xf
 1074 01d7 94000000 		.4byte	.LASF28
 1075 01db 01       		.byte	0x1
 1076 01dc 3F       		.byte	0x3f
 1077 01dd 9D000000 		.4byte	0x9d
 1078 01e1 02       		.byte	0x2
 1079 01e2 91       		.byte	0x91
 1080 01e3 77       		.sleb128 -9
 1081 01e4 0F       		.uleb128 0xf
 1082 01e5 D9010000 		.4byte	.LASF29
 1083 01e9 01       		.byte	0x1
 1084 01ea 40       		.byte	0x40
 1085 01eb 30000000 		.4byte	0x30
 1086 01ef 02       		.byte	0x2
ARM GAS  C:\Users\Martin\AppData\Local\Temp\ccutgkFX.s 			page 24


 1087 01f0 91       		.byte	0x91
 1088 01f1 76       		.sleb128 -10
 1089 01f2 00       		.byte	0x0
 1090 01f3 0E       		.uleb128 0xe
 1091 01f4 01       		.byte	0x1
 1092 01f5 44020000 		.4byte	.LASF31
 1093 01f9 01       		.byte	0x1
 1094 01fa 4F       		.byte	0x4f
 1095 01fb 01       		.byte	0x1
 1096 01fc 9D000000 		.4byte	0x9d
 1097 0200 00000000 		.4byte	.LFB34
 1098 0204 C0010000 		.4byte	.LFE34
 1099 0208 EF000000 		.4byte	.LLST5
 1100 020c 71020000 		.4byte	0x271
 1101 0210 0D       		.uleb128 0xd
 1102 0211 05020000 		.4byte	.LASF32
 1103 0215 01       		.byte	0x1
 1104 0216 4F       		.byte	0x4f
 1105 0217 71020000 		.4byte	0x271
 1106 021b 02       		.byte	0x2
 1107 021c 91       		.byte	0x91
 1108 021d 5C       		.sleb128 -36
 1109 021e 0F       		.uleb128 0xf
 1110 021f 94000000 		.4byte	.LASF28
 1111 0223 01       		.byte	0x1
 1112 0224 51       		.byte	0x51
 1113 0225 9D000000 		.4byte	0x9d
 1114 0229 02       		.byte	0x2
 1115 022a 91       		.byte	0x91
 1116 022b 70       		.sleb128 -16
 1117 022c 0F       		.uleb128 0xf
 1118 022d 17000000 		.4byte	.LASF33
 1119 0231 01       		.byte	0x1
 1120 0232 51       		.byte	0x51
 1121 0233 9D000000 		.4byte	0x9d
 1122 0237 02       		.byte	0x2
 1123 0238 91       		.byte	0x91
 1124 0239 71       		.sleb128 -15
 1125 023a 10       		.uleb128 0x10
 1126 023b 6D736700 		.ascii	"msg\000"
 1127 023f 01       		.byte	0x1
 1128 0240 52       		.byte	0x52
 1129 0241 27010000 		.4byte	0x127
 1130 0245 02       		.byte	0x2
 1131 0246 91       		.byte	0x91
 1132 0247 60       		.sleb128 -32
 1133 0248 0F       		.uleb128 0xf
 1134 0249 8F020000 		.4byte	.LASF34
 1135 024d 01       		.byte	0x1
 1136 024e 53       		.byte	0x53
 1137 024f 30000000 		.4byte	0x30
 1138 0253 02       		.byte	0x2
 1139 0254 91       		.byte	0x91
 1140 0255 72       		.sleb128 -14
 1141 0256 0F       		.uleb128 0xf
 1142 0257 D9010000 		.4byte	.LASF29
 1143 025b 01       		.byte	0x1
ARM GAS  C:\Users\Martin\AppData\Local\Temp\ccutgkFX.s 			page 25


 1144 025c 54       		.byte	0x54
 1145 025d 30000000 		.4byte	0x30
 1146 0261 02       		.byte	0x2
 1147 0262 91       		.byte	0x91
 1148 0263 73       		.sleb128 -13
 1149 0264 10       		.uleb128 0x10
 1150 0265 6900     		.ascii	"i\000"
 1151 0267 01       		.byte	0x1
 1152 0268 55       		.byte	0x55
 1153 0269 6C000000 		.4byte	0x6c
 1154 026d 02       		.byte	0x2
 1155 026e 91       		.byte	0x91
 1156 026f 74       		.sleb128 -12
 1157 0270 00       		.byte	0x0
 1158 0271 0A       		.uleb128 0xa
 1159 0272 04       		.byte	0x4
 1160 0273 27010000 		.4byte	0x127
 1161 0277 0E       		.uleb128 0xe
 1162 0278 01       		.byte	0x1
 1163 0279 9E020000 		.4byte	.LASF35
 1164 027d 01       		.byte	0x1
 1165 027e 93       		.byte	0x93
 1166 027f 01       		.byte	0x1
 1167 0280 9D000000 		.4byte	0x9d
 1168 0284 00000000 		.4byte	.LFB35
 1169 0288 32000000 		.4byte	.LFE35
 1170 028c 26010000 		.4byte	.LLST6
 1171 0290 BF020000 		.4byte	0x2bf
 1172 0294 0D       		.uleb128 0xd
 1173 0295 FB000000 		.4byte	.LASF36
 1174 0299 01       		.byte	0x1
 1175 029a 93       		.byte	0x93
 1176 029b 32010000 		.4byte	0x132
 1177 029f 02       		.byte	0x2
 1178 02a0 91       		.byte	0x91
 1179 02a1 6C       		.sleb128 -20
 1180 02a2 0D       		.uleb128 0xd
 1181 02a3 2E000000 		.4byte	.LASF37
 1182 02a7 01       		.byte	0x1
 1183 02a8 93       		.byte	0x93
 1184 02a9 7A000000 		.4byte	0x7a
 1185 02ad 02       		.byte	0x2
 1186 02ae 91       		.byte	0x91
 1187 02af 6B       		.sleb128 -21
 1188 02b0 0F       		.uleb128 0xf
 1189 02b1 94000000 		.4byte	.LASF28
 1190 02b5 01       		.byte	0x1
 1191 02b6 95       		.byte	0x95
 1192 02b7 9D000000 		.4byte	0x9d
 1193 02bb 02       		.byte	0x2
 1194 02bc 91       		.byte	0x91
 1195 02bd 77       		.sleb128 -9
 1196 02be 00       		.byte	0x0
 1197 02bf 0E       		.uleb128 0xe
 1198 02c0 01       		.byte	0x1
 1199 02c1 B6010000 		.4byte	.LASF38
 1200 02c5 01       		.byte	0x1
ARM GAS  C:\Users\Martin\AppData\Local\Temp\ccutgkFX.s 			page 26


 1201 02c6 9E       		.byte	0x9e
 1202 02c7 01       		.byte	0x1
 1203 02c8 9D000000 		.4byte	0x9d
 1204 02cc 00000000 		.4byte	.LFB36
 1205 02d0 64010000 		.4byte	.LFE36
 1206 02d4 5D010000 		.4byte	.LLST7
 1207 02d8 3F030000 		.4byte	0x33f
 1208 02dc 0F       		.uleb128 0xf
 1209 02dd 94000000 		.4byte	.LASF28
 1210 02e1 01       		.byte	0x1
 1211 02e2 A0       		.byte	0xa0
 1212 02e3 9D000000 		.4byte	0x9d
 1213 02e7 02       		.byte	0x2
 1214 02e8 91       		.byte	0x91
 1215 02e9 75       		.sleb128 -11
 1216 02ea 0F       		.uleb128 0xf
 1217 02eb AC010000 		.4byte	.LASF39
 1218 02ef 01       		.byte	0x1
 1219 02f0 A0       		.byte	0xa0
 1220 02f1 9D000000 		.4byte	0x9d
 1221 02f5 02       		.byte	0x2
 1222 02f6 91       		.byte	0x91
 1223 02f7 76       		.sleb128 -10
 1224 02f8 0F       		.uleb128 0xf
 1225 02f9 D9010000 		.4byte	.LASF29
 1226 02fd 01       		.byte	0x1
 1227 02fe A1       		.byte	0xa1
 1228 02ff 30000000 		.4byte	0x30
 1229 0303 02       		.byte	0x2
 1230 0304 91       		.byte	0x91
 1231 0305 74       		.sleb128 -12
 1232 0306 0F       		.uleb128 0xf
 1233 0307 21000000 		.4byte	.LASF40
 1234 030b 01       		.byte	0x1
 1235 030c A2       		.byte	0xa2
 1236 030d 30000000 		.4byte	0x30
 1237 0311 02       		.byte	0x2
 1238 0312 91       		.byte	0x91
 1239 0313 77       		.sleb128 -9
 1240 0314 0F       		.uleb128 0xf
 1241 0315 82020000 		.4byte	.LASF41
 1242 0319 01       		.byte	0x1
 1243 031a A3       		.byte	0xa3
 1244 031b 30000000 		.4byte	0x30
 1245 031f 02       		.byte	0x2
 1246 0320 91       		.byte	0x91
 1247 0321 73       		.sleb128 -13
 1248 0322 0F       		.uleb128 0xf
 1249 0323 87000000 		.4byte	.LASF42
 1250 0327 01       		.byte	0x1
 1251 0328 A3       		.byte	0xa3
 1252 0329 30000000 		.4byte	0x30
 1253 032d 02       		.byte	0x2
 1254 032e 91       		.byte	0x91
 1255 032f 72       		.sleb128 -14
 1256 0330 0F       		.uleb128 0xf
 1257 0331 77000000 		.4byte	.LASF43
ARM GAS  C:\Users\Martin\AppData\Local\Temp\ccutgkFX.s 			page 27


 1258 0335 01       		.byte	0x1
 1259 0336 A4       		.byte	0xa4
 1260 0337 3F030000 		.4byte	0x33f
 1261 033b 02       		.byte	0x2
 1262 033c 91       		.byte	0x91
 1263 033d 50       		.sleb128 -48
 1264 033e 00       		.byte	0x0
 1265 033f 08       		.uleb128 0x8
 1266 0340 30000000 		.4byte	0x30
 1267 0344 4F030000 		.4byte	0x34f
 1268 0348 09       		.uleb128 0x9
 1269 0349 9A000000 		.4byte	0x9a
 1270 034d 1F       		.byte	0x1f
 1271 034e 00       		.byte	0x0
 1272 034f 08       		.uleb128 0x8
 1273 0350 30000000 		.4byte	0x30
 1274 0354 5F030000 		.4byte	0x35f
 1275 0358 09       		.uleb128 0x9
 1276 0359 9A000000 		.4byte	0x9a
 1277 035d FF       		.byte	0xff
 1278 035e 00       		.byte	0x0
 1279 035f 0F       		.uleb128 0xf
 1280 0360 53010000 		.4byte	.LASF44
 1281 0364 01       		.byte	0x1
 1282 0365 15       		.byte	0x15
 1283 0366 4F030000 		.4byte	0x34f
 1284 036a 05       		.byte	0x5
 1285 036b 03       		.byte	0x3
 1286 036c 00000000 		.4byte	BPL_aucReceiveBuffer
 1287 0370 0F       		.uleb128 0xf
 1288 0371 35030000 		.4byte	.LASF45
 1289 0375 01       		.byte	0x1
 1290 0376 16       		.byte	0x16
 1291 0377 4F030000 		.4byte	0x34f
 1292 037b 05       		.byte	0x5
 1293 037c 03       		.byte	0x3
 1294 037d 00010000 		.4byte	BPL_aucTransmitBuffer
 1295 0381 0F       		.uleb128 0xf
 1296 0382 68010000 		.4byte	.LASF46
 1297 0386 01       		.byte	0x1
 1298 0387 18       		.byte	0x18
 1299 0388 30000000 		.4byte	0x30
 1300 038c 05       		.byte	0x5
 1301 038d 03       		.byte	0x3
 1302 038e 00020000 		.4byte	BPL_ucReceiveBufferIndex
 1303 0392 0F       		.uleb128 0xf
 1304 0393 68020000 		.4byte	.LASF47
 1305 0397 01       		.byte	0x1
 1306 0398 19       		.byte	0x19
 1307 0399 30000000 		.4byte	0x30
 1308 039d 05       		.byte	0x5
 1309 039e 03       		.byte	0x3
 1310 039f 01020000 		.4byte	BPL_ucTransmitBufferIndex
 1311 03a3 0F       		.uleb128 0xf
 1312 03a4 C3000000 		.4byte	.LASF48
 1313 03a8 01       		.byte	0x1
 1314 03a9 1B       		.byte	0x1b
ARM GAS  C:\Users\Martin\AppData\Local\Temp\ccutgkFX.s 			page 28


 1315 03aa 30000000 		.4byte	0x30
 1316 03ae 05       		.byte	0x5
 1317 03af 03       		.byte	0x3
 1318 03b0 02020000 		.4byte	BPL_CDS5500_ucRxMessageCount
 1319 03b4 11       		.uleb128 0x11
 1320 03b5 E0000000 		.4byte	.LASF54
 1321 03b9 06       		.byte	0x6
 1322 03ba CE06     		.2byte	0x6ce
 1323 03bc C2030000 		.4byte	0x3c2
 1324 03c0 01       		.byte	0x1
 1325 03c1 01       		.byte	0x1
 1326 03c2 12       		.uleb128 0x12
 1327 03c3 6C000000 		.4byte	0x6c
 1328 03c7 00       		.byte	0x0
 1329              		.section	.debug_abbrev
 1330 0000 01       		.uleb128 0x1
 1331 0001 11       		.uleb128 0x11
 1332 0002 01       		.byte	0x1
 1333 0003 25       		.uleb128 0x25
 1334 0004 0E       		.uleb128 0xe
 1335 0005 13       		.uleb128 0x13
 1336 0006 0B       		.uleb128 0xb
 1337 0007 03       		.uleb128 0x3
 1338 0008 0E       		.uleb128 0xe
 1339 0009 1B       		.uleb128 0x1b
 1340 000a 0E       		.uleb128 0xe
 1341 000b 11       		.uleb128 0x11
 1342 000c 01       		.uleb128 0x1
 1343 000d 52       		.uleb128 0x52
 1344 000e 01       		.uleb128 0x1
 1345 000f 55       		.uleb128 0x55
 1346 0010 06       		.uleb128 0x6
 1347 0011 10       		.uleb128 0x10
 1348 0012 06       		.uleb128 0x6
 1349 0013 00       		.byte	0x0
 1350 0014 00       		.byte	0x0
 1351 0015 02       		.uleb128 0x2
 1352 0016 24       		.uleb128 0x24
 1353 0017 00       		.byte	0x0
 1354 0018 0B       		.uleb128 0xb
 1355 0019 0B       		.uleb128 0xb
 1356 001a 3E       		.uleb128 0x3e
 1357 001b 0B       		.uleb128 0xb
 1358 001c 03       		.uleb128 0x3
 1359 001d 0E       		.uleb128 0xe
 1360 001e 00       		.byte	0x0
 1361 001f 00       		.byte	0x0
 1362 0020 03       		.uleb128 0x3
 1363 0021 16       		.uleb128 0x16
 1364 0022 00       		.byte	0x0
 1365 0023 03       		.uleb128 0x3
 1366 0024 0E       		.uleb128 0xe
 1367 0025 3A       		.uleb128 0x3a
 1368 0026 0B       		.uleb128 0xb
 1369 0027 3B       		.uleb128 0x3b
 1370 0028 0B       		.uleb128 0xb
 1371 0029 49       		.uleb128 0x49
ARM GAS  C:\Users\Martin\AppData\Local\Temp\ccutgkFX.s 			page 29


 1372 002a 13       		.uleb128 0x13
 1373 002b 00       		.byte	0x0
 1374 002c 00       		.byte	0x0
 1375 002d 04       		.uleb128 0x4
 1376 002e 24       		.uleb128 0x24
 1377 002f 00       		.byte	0x0
 1378 0030 0B       		.uleb128 0xb
 1379 0031 0B       		.uleb128 0xb
 1380 0032 3E       		.uleb128 0x3e
 1381 0033 0B       		.uleb128 0xb
 1382 0034 03       		.uleb128 0x3
 1383 0035 08       		.uleb128 0x8
 1384 0036 00       		.byte	0x0
 1385 0037 00       		.byte	0x0
 1386 0038 05       		.uleb128 0x5
 1387 0039 24       		.uleb128 0x24
 1388 003a 00       		.byte	0x0
 1389 003b 0B       		.uleb128 0xb
 1390 003c 0B       		.uleb128 0xb
 1391 003d 3E       		.uleb128 0x3e
 1392 003e 0B       		.uleb128 0xb
 1393 003f 00       		.byte	0x0
 1394 0040 00       		.byte	0x0
 1395 0041 06       		.uleb128 0x6
 1396 0042 13       		.uleb128 0x13
 1397 0043 01       		.byte	0x1
 1398 0044 03       		.uleb128 0x3
 1399 0045 0E       		.uleb128 0xe
 1400 0046 0B       		.uleb128 0xb
 1401 0047 0B       		.uleb128 0xb
 1402 0048 3A       		.uleb128 0x3a
 1403 0049 0B       		.uleb128 0xb
 1404 004a 3B       		.uleb128 0x3b
 1405 004b 0B       		.uleb128 0xb
 1406 004c 01       		.uleb128 0x1
 1407 004d 13       		.uleb128 0x13
 1408 004e 00       		.byte	0x0
 1409 004f 00       		.byte	0x0
 1410 0050 07       		.uleb128 0x7
 1411 0051 0D       		.uleb128 0xd
 1412 0052 00       		.byte	0x0
 1413 0053 03       		.uleb128 0x3
 1414 0054 0E       		.uleb128 0xe
 1415 0055 3A       		.uleb128 0x3a
 1416 0056 0B       		.uleb128 0xb
 1417 0057 3B       		.uleb128 0x3b
 1418 0058 0B       		.uleb128 0xb
 1419 0059 49       		.uleb128 0x49
 1420 005a 13       		.uleb128 0x13
 1421 005b 38       		.uleb128 0x38
 1422 005c 0A       		.uleb128 0xa
 1423 005d 00       		.byte	0x0
 1424 005e 00       		.byte	0x0
 1425 005f 08       		.uleb128 0x8
 1426 0060 01       		.uleb128 0x1
 1427 0061 01       		.byte	0x1
 1428 0062 49       		.uleb128 0x49
ARM GAS  C:\Users\Martin\AppData\Local\Temp\ccutgkFX.s 			page 30


 1429 0063 13       		.uleb128 0x13
 1430 0064 01       		.uleb128 0x1
 1431 0065 13       		.uleb128 0x13
 1432 0066 00       		.byte	0x0
 1433 0067 00       		.byte	0x0
 1434 0068 09       		.uleb128 0x9
 1435 0069 21       		.uleb128 0x21
 1436 006a 00       		.byte	0x0
 1437 006b 49       		.uleb128 0x49
 1438 006c 13       		.uleb128 0x13
 1439 006d 2F       		.uleb128 0x2f
 1440 006e 0B       		.uleb128 0xb
 1441 006f 00       		.byte	0x0
 1442 0070 00       		.byte	0x0
 1443 0071 0A       		.uleb128 0xa
 1444 0072 0F       		.uleb128 0xf
 1445 0073 00       		.byte	0x0
 1446 0074 0B       		.uleb128 0xb
 1447 0075 0B       		.uleb128 0xb
 1448 0076 49       		.uleb128 0x49
 1449 0077 13       		.uleb128 0x13
 1450 0078 00       		.byte	0x0
 1451 0079 00       		.byte	0x0
 1452 007a 0B       		.uleb128 0xb
 1453 007b 2E       		.uleb128 0x2e
 1454 007c 00       		.byte	0x0
 1455 007d 3F       		.uleb128 0x3f
 1456 007e 0C       		.uleb128 0xc
 1457 007f 03       		.uleb128 0x3
 1458 0080 0E       		.uleb128 0xe
 1459 0081 3A       		.uleb128 0x3a
 1460 0082 0B       		.uleb128 0xb
 1461 0083 3B       		.uleb128 0x3b
 1462 0084 0B       		.uleb128 0xb
 1463 0085 27       		.uleb128 0x27
 1464 0086 0C       		.uleb128 0xc
 1465 0087 49       		.uleb128 0x49
 1466 0088 13       		.uleb128 0x13
 1467 0089 11       		.uleb128 0x11
 1468 008a 01       		.uleb128 0x1
 1469 008b 12       		.uleb128 0x12
 1470 008c 01       		.uleb128 0x1
 1471 008d 40       		.uleb128 0x40
 1472 008e 06       		.uleb128 0x6
 1473 008f 00       		.byte	0x0
 1474 0090 00       		.byte	0x0
 1475 0091 0C       		.uleb128 0xc
 1476 0092 2E       		.uleb128 0x2e
 1477 0093 01       		.byte	0x1
 1478 0094 3F       		.uleb128 0x3f
 1479 0095 0C       		.uleb128 0xc
 1480 0096 03       		.uleb128 0x3
 1481 0097 0E       		.uleb128 0xe
 1482 0098 3A       		.uleb128 0x3a
 1483 0099 0B       		.uleb128 0xb
 1484 009a 3B       		.uleb128 0x3b
 1485 009b 0B       		.uleb128 0xb
ARM GAS  C:\Users\Martin\AppData\Local\Temp\ccutgkFX.s 			page 31


 1486 009c 27       		.uleb128 0x27
 1487 009d 0C       		.uleb128 0xc
 1488 009e 11       		.uleb128 0x11
 1489 009f 01       		.uleb128 0x1
 1490 00a0 12       		.uleb128 0x12
 1491 00a1 01       		.uleb128 0x1
 1492 00a2 40       		.uleb128 0x40
 1493 00a3 06       		.uleb128 0x6
 1494 00a4 01       		.uleb128 0x1
 1495 00a5 13       		.uleb128 0x13
 1496 00a6 00       		.byte	0x0
 1497 00a7 00       		.byte	0x0
 1498 00a8 0D       		.uleb128 0xd
 1499 00a9 05       		.uleb128 0x5
 1500 00aa 00       		.byte	0x0
 1501 00ab 03       		.uleb128 0x3
 1502 00ac 0E       		.uleb128 0xe
 1503 00ad 3A       		.uleb128 0x3a
 1504 00ae 0B       		.uleb128 0xb
 1505 00af 3B       		.uleb128 0x3b
 1506 00b0 0B       		.uleb128 0xb
 1507 00b1 49       		.uleb128 0x49
 1508 00b2 13       		.uleb128 0x13
 1509 00b3 02       		.uleb128 0x2
 1510 00b4 0A       		.uleb128 0xa
 1511 00b5 00       		.byte	0x0
 1512 00b6 00       		.byte	0x0
 1513 00b7 0E       		.uleb128 0xe
 1514 00b8 2E       		.uleb128 0x2e
 1515 00b9 01       		.byte	0x1
 1516 00ba 3F       		.uleb128 0x3f
 1517 00bb 0C       		.uleb128 0xc
 1518 00bc 03       		.uleb128 0x3
 1519 00bd 0E       		.uleb128 0xe
 1520 00be 3A       		.uleb128 0x3a
 1521 00bf 0B       		.uleb128 0xb
 1522 00c0 3B       		.uleb128 0x3b
 1523 00c1 0B       		.uleb128 0xb
 1524 00c2 27       		.uleb128 0x27
 1525 00c3 0C       		.uleb128 0xc
 1526 00c4 49       		.uleb128 0x49
 1527 00c5 13       		.uleb128 0x13
 1528 00c6 11       		.uleb128 0x11
 1529 00c7 01       		.uleb128 0x1
 1530 00c8 12       		.uleb128 0x12
 1531 00c9 01       		.uleb128 0x1
 1532 00ca 40       		.uleb128 0x40
 1533 00cb 06       		.uleb128 0x6
 1534 00cc 01       		.uleb128 0x1
 1535 00cd 13       		.uleb128 0x13
 1536 00ce 00       		.byte	0x0
 1537 00cf 00       		.byte	0x0
 1538 00d0 0F       		.uleb128 0xf
 1539 00d1 34       		.uleb128 0x34
 1540 00d2 00       		.byte	0x0
 1541 00d3 03       		.uleb128 0x3
 1542 00d4 0E       		.uleb128 0xe
ARM GAS  C:\Users\Martin\AppData\Local\Temp\ccutgkFX.s 			page 32


 1543 00d5 3A       		.uleb128 0x3a
 1544 00d6 0B       		.uleb128 0xb
 1545 00d7 3B       		.uleb128 0x3b
 1546 00d8 0B       		.uleb128 0xb
 1547 00d9 49       		.uleb128 0x49
 1548 00da 13       		.uleb128 0x13
 1549 00db 02       		.uleb128 0x2
 1550 00dc 0A       		.uleb128 0xa
 1551 00dd 00       		.byte	0x0
 1552 00de 00       		.byte	0x0
 1553 00df 10       		.uleb128 0x10
 1554 00e0 34       		.uleb128 0x34
 1555 00e1 00       		.byte	0x0
 1556 00e2 03       		.uleb128 0x3
 1557 00e3 08       		.uleb128 0x8
 1558 00e4 3A       		.uleb128 0x3a
 1559 00e5 0B       		.uleb128 0xb
 1560 00e6 3B       		.uleb128 0x3b
 1561 00e7 0B       		.uleb128 0xb
 1562 00e8 49       		.uleb128 0x49
 1563 00e9 13       		.uleb128 0x13
 1564 00ea 02       		.uleb128 0x2
 1565 00eb 0A       		.uleb128 0xa
 1566 00ec 00       		.byte	0x0
 1567 00ed 00       		.byte	0x0
 1568 00ee 11       		.uleb128 0x11
 1569 00ef 34       		.uleb128 0x34
 1570 00f0 00       		.byte	0x0
 1571 00f1 03       		.uleb128 0x3
 1572 00f2 0E       		.uleb128 0xe
 1573 00f3 3A       		.uleb128 0x3a
 1574 00f4 0B       		.uleb128 0xb
 1575 00f5 3B       		.uleb128 0x3b
 1576 00f6 05       		.uleb128 0x5
 1577 00f7 49       		.uleb128 0x49
 1578 00f8 13       		.uleb128 0x13
 1579 00f9 3F       		.uleb128 0x3f
 1580 00fa 0C       		.uleb128 0xc
 1581 00fb 3C       		.uleb128 0x3c
 1582 00fc 0C       		.uleb128 0xc
 1583 00fd 00       		.byte	0x0
 1584 00fe 00       		.byte	0x0
 1585 00ff 12       		.uleb128 0x12
 1586 0100 35       		.uleb128 0x35
 1587 0101 00       		.byte	0x0
 1588 0102 49       		.uleb128 0x49
 1589 0103 13       		.uleb128 0x13
 1590 0104 00       		.byte	0x0
 1591 0105 00       		.byte	0x0
 1592 0106 00       		.byte	0x0
 1593              		.section	.debug_pubnames,"",%progbits
 1594 0000 D8000000 		.4byte	0xd8
 1595 0004 0200     		.2byte	0x2
 1596 0006 00000000 		.4byte	.Ldebug_info0
 1597 000a C8030000 		.4byte	0x3c8
 1598 000e 38010000 		.4byte	0x138
 1599 0012 42504C5F 		.ascii	"BPL_Init\000"
ARM GAS  C:\Users\Martin\AppData\Local\Temp\ccutgkFX.s 			page 33


 1599      496E6974 
 1599      00
 1600 001b 51010000 		.4byte	0x151
 1601 001f 42504C5F 		.ascii	"BPL_CDS5500_ucGetRxMessageCount\000"
 1601      43445335 
 1601      3530305F 
 1601      75634765 
 1601      7452784D 
 1602 003f 6A010000 		.4byte	0x16a
 1603 0043 42504C5F 		.ascii	"BPL_CDS5500_ucSetRxMessageCount\000"
 1603      43445335 
 1603      3530305F 
 1603      75635365 
 1603      7452784D 
 1604 0063 92010000 		.4byte	0x192
 1605 0067 42504C5F 		.ascii	"BPL_GetReceiveMsgCount\000"
 1605      47657452 
 1605      65636569 
 1605      76654D73 
 1605      67436F75 
 1606 007e AB010000 		.4byte	0x1ab
 1607 0082 42504C5F 		.ascii	"BPL_GetMessage\000"
 1607      4765744D 
 1607      65737361 
 1607      676500
 1608 0091 F3010000 		.4byte	0x1f3
 1609 0095 42504C5F 		.ascii	"BPL_CDS5500_GetResponse\000"
 1609      43445335 
 1609      3530305F 
 1609      47657452 
 1609      6573706F 
 1610 00ad 77020000 		.4byte	0x277
 1611 00b1 42504C5F 		.ascii	"BPL_TransmitMessage\000"
 1611      5472616E 
 1611      736D6974 
 1611      4D657373 
 1611      61676500 
 1612 00c5 BF020000 		.4byte	0x2bf
 1613 00c9 42504C5F 		.ascii	"BPL_HandleTask\000"
 1613      48616E64 
 1613      6C655461 
 1613      736B00
 1614 00d8 00000000 		.4byte	0x0
 1615              		.section	.debug_aranges,"",%progbits
 1616 0000 54000000 		.4byte	0x54
 1617 0004 0200     		.2byte	0x2
 1618 0006 00000000 		.4byte	.Ldebug_info0
 1619 000a 04       		.byte	0x4
 1620 000b 00       		.byte	0x0
 1621 000c 0000     		.2byte	0x0
 1622 000e 0000     		.2byte	0x0
 1623 0010 00000000 		.4byte	.LFB29
 1624 0014 48000000 		.4byte	.LFE29-.LFB29
 1625 0018 00000000 		.4byte	.LFB30
 1626 001c 16000000 		.4byte	.LFE30-.LFB30
 1627 0020 00000000 		.4byte	.LFB31
 1628 0024 20000000 		.4byte	.LFE31-.LFB31
ARM GAS  C:\Users\Martin\AppData\Local\Temp\ccutgkFX.s 			page 34


 1629 0028 00000000 		.4byte	.LFB32
 1630 002c 1A000000 		.4byte	.LFE32-.LFB32
 1631 0030 00000000 		.4byte	.LFB33
 1632 0034 4C000000 		.4byte	.LFE33-.LFB33
 1633 0038 00000000 		.4byte	.LFB34
 1634 003c C0010000 		.4byte	.LFE34-.LFB34
 1635 0040 00000000 		.4byte	.LFB35
 1636 0044 32000000 		.4byte	.LFE35-.LFB35
 1637 0048 00000000 		.4byte	.LFB36
 1638 004c 64010000 		.4byte	.LFE36-.LFB36
 1639 0050 00000000 		.4byte	0x0
 1640 0054 00000000 		.4byte	0x0
 1641              		.section	.debug_ranges,"",%progbits
 1642              	.Ldebug_ranges0:
 1643 0000 00000000 		.4byte	.Ltext0
 1644 0004 00000000 		.4byte	.Letext0
 1645 0008 00000000 		.4byte	.LFB29
 1646 000c 48000000 		.4byte	.LFE29
 1647 0010 00000000 		.4byte	.LFB30
 1648 0014 16000000 		.4byte	.LFE30
 1649 0018 00000000 		.4byte	.LFB31
 1650 001c 20000000 		.4byte	.LFE31
 1651 0020 00000000 		.4byte	.LFB32
 1652 0024 1A000000 		.4byte	.LFE32
 1653 0028 00000000 		.4byte	.LFB33
 1654 002c 4C000000 		.4byte	.LFE33
 1655 0030 00000000 		.4byte	.LFB34
 1656 0034 C0010000 		.4byte	.LFE34
 1657 0038 00000000 		.4byte	.LFB35
 1658 003c 32000000 		.4byte	.LFE35
 1659 0040 00000000 		.4byte	.LFB36
 1660 0044 64010000 		.4byte	.LFE36
 1661 0048 00000000 		.4byte	0x0
 1662 004c 00000000 		.4byte	0x0
 1663              		.section	.debug_str,"MS",%progbits,1
 1664              	.LASF6:
 1665 0000 6C6F6E67 		.ascii	"long long int\000"
 1665      206C6F6E 
 1665      6720696E 
 1665      7400
 1666              	.LASF21:
 1667 000e 63686563 		.ascii	"checksum\000"
 1667      6B73756D 
 1667      00
 1668              	.LASF33:
 1669 0017 62706C53 		.ascii	"bplStatus\000"
 1669      74617475 
 1669      7300
 1670              	.LASF40:
 1671 0021 75634279 		.ascii	"ucByte\000"
 1671      746500
 1672              	.LASF26:
 1673 0028 75635661 		.ascii	"ucVal\000"
 1673      6C00
 1674              	.LASF37:
 1675 002e 6D73674C 		.ascii	"msgLength\000"
 1675      656E6774 
ARM GAS  C:\Users\Martin\AppData\Local\Temp\ccutgkFX.s 			page 35


 1675      6800
 1676              	.LASF27:
 1677 0038 74617267 		.ascii	"target\000"
 1677      657400
 1678              	.LASF22:
 1679 003f 43445335 		.ascii	"CDS5500_MSG\000"
 1679      3530305F 
 1679      4D534700 
 1680              	.LASF11:
 1681 004b 666C6F61 		.ascii	"float\000"
 1681      7400
 1682              	.LASF15:
 1683 0051 73746172 		.ascii	"startbyte0\000"
 1683      74627974 
 1683      653000
 1684              	.LASF16:
 1685 005c 73746172 		.ascii	"startbyte1\000"
 1685      74627974 
 1685      653100
 1686              	.LASF14:
 1687 0067 53544154 		.ascii	"STATUS\000"
 1687      555300
 1688              	.LASF23:
 1689 006e 42504C5F 		.ascii	"BPL_Init\000"
 1689      496E6974 
 1689      00
 1690              	.LASF43:
 1691 0077 75634D65 		.ascii	"ucMessageBuffer\000"
 1691      73736167 
 1691      65427566 
 1691      66657200 
 1692              	.LASF42:
 1693 0087 75635374 		.ascii	"ucStartByte2\000"
 1693      61727442 
 1693      79746532 
 1693      00
 1694              	.LASF28:
 1695 0094 72626653 		.ascii	"rbfStatus\000"
 1695      74617475 
 1695      7300
 1696              	.LASF5:
 1697 009e 6C6F6E67 		.ascii	"long unsigned int\000"
 1697      20756E73 
 1697      69676E65 
 1697      6420696E 
 1697      7400
 1698              	.LASF3:
 1699 00b0 73686F72 		.ascii	"short unsigned int\000"
 1699      7420756E 
 1699      7369676E 
 1699      65642069 
 1699      6E7400
 1700              	.LASF48:
 1701 00c3 42504C5F 		.ascii	"BPL_CDS5500_ucRxMessageCount\000"
 1701      43445335 
 1701      3530305F 
 1701      75635278 
ARM GAS  C:\Users\Martin\AppData\Local\Temp\ccutgkFX.s 			page 36


 1701      4D657373 
 1702              	.LASF54:
 1703 00e0 49544D5F 		.ascii	"ITM_RxBuffer\000"
 1703      52784275 
 1703      66666572 
 1703      00
 1704              	.LASF1:
 1705 00ed 756E7369 		.ascii	"unsigned char\000"
 1705      676E6564 
 1705      20636861 
 1705      7200
 1706              	.LASF36:
 1707 00fb 736F7572 		.ascii	"source\000"
 1707      636500
 1708              	.LASF12:
 1709 0102 646F7562 		.ascii	"double\000"
 1709      6C6500
 1710              	.LASF24:
 1711 0109 42504C5F 		.ascii	"BPL_CDS5500_ucGetRxMessageCount\000"
 1711      43445335 
 1711      3530305F 
 1711      75634765 
 1711      7452784D 
 1712              	.LASF17:
 1713 0129 6D6F746F 		.ascii	"motorId\000"
 1713      72496400 
 1714              	.LASF50:
 1715 0131 2E5C6270 		.ascii	".\\bpl.c\000"
 1715      6C2E6300 
 1716              	.LASF8:
 1717 0139 756E7369 		.ascii	"unsigned int\000"
 1717      676E6564 
 1717      20696E74 
 1717      00
 1718              	.LASF52:
 1719 0146 5F636473 		.ascii	"_cds5500_msg\000"
 1719      35353030 
 1719      5F6D7367 
 1719      00
 1720              	.LASF44:
 1721 0153 42504C5F 		.ascii	"BPL_aucReceiveBuffer\000"
 1721      61756352 
 1721      65636569 
 1721      76654275 
 1721      66666572 
 1722              	.LASF46:
 1723 0168 42504C5F 		.ascii	"BPL_ucReceiveBufferIndex\000"
 1723      75635265 
 1723      63656976 
 1723      65427566 
 1723      66657249 
 1724              	.LASF7:
 1725 0181 6C6F6E67 		.ascii	"long long unsigned int\000"
 1725      206C6F6E 
 1725      6720756E 
 1725      7369676E 
 1725      65642069 
ARM GAS  C:\Users\Martin\AppData\Local\Temp\ccutgkFX.s 			page 37


 1726              	.LASF9:
 1727 0198 75696E74 		.ascii	"uint8_t\000"
 1727      385F7400 
 1728              	.LASF0:
 1729 01a0 7369676E 		.ascii	"signed char\000"
 1729      65642063 
 1729      68617200 
 1730              	.LASF39:
 1731 01ac 42706C53 		.ascii	"BplStatus\000"
 1731      74617475 
 1731      7300
 1732              	.LASF38:
 1733 01b6 42504C5F 		.ascii	"BPL_HandleTask\000"
 1733      48616E64 
 1733      6C655461 
 1733      736B00
 1734              	.LASF19:
 1735 01c5 696E7374 		.ascii	"instrId\000"
 1735      72496400 
 1736              	.LASF49:
 1737 01cd 474E5520 		.ascii	"GNU C 4.4.1\000"
 1737      4320342E 
 1737      342E3100 
 1738              	.LASF29:
 1739 01d9 75634E75 		.ascii	"ucNumBytes\000"
 1739      6D427974 
 1739      657300
 1740              	.LASF25:
 1741 01e4 42504C5F 		.ascii	"BPL_GetReceiveMsgCount\000"
 1741      47657452 
 1741      65636569 
 1741      76654D73 
 1741      67436F75 
 1742              	.LASF2:
 1743 01fb 73686F72 		.ascii	"short int\000"
 1743      7420696E 
 1743      7400
 1744              	.LASF32:
 1745 0205 74617267 		.ascii	"targetAddr\000"
 1745      65744164 
 1745      647200
 1746              	.LASF10:
 1747 0210 75696E74 		.ascii	"uint8\000"
 1747      3800
 1748              	.LASF53:
 1749 0216 42504C5F 		.ascii	"BPL_CDS5500_ucSetRxMessageCount\000"
 1749      43445335 
 1749      3530305F 
 1749      75635365 
 1749      7452784D 
 1750              	.LASF4:
 1751 0236 6C6F6E67 		.ascii	"long int\000"
 1751      20696E74 
 1751      00
 1752              	.LASF13:
 1753 023f 63686172 		.ascii	"char\000"
 1753      00
ARM GAS  C:\Users\Martin\AppData\Local\Temp\ccutgkFX.s 			page 38


 1754              	.LASF31:
 1755 0244 42504C5F 		.ascii	"BPL_CDS5500_GetResponse\000"
 1755      43445335 
 1755      3530305F 
 1755      47657452 
 1755      6573706F 
 1756              	.LASF20:
 1757 025c 696E7374 		.ascii	"instrParams\000"
 1757      72506172 
 1757      616D7300 
 1758              	.LASF47:
 1759 0268 42504C5F 		.ascii	"BPL_ucTransmitBufferIndex\000"
 1759      75635472 
 1759      616E736D 
 1759      69744275 
 1759      66666572 
 1760              	.LASF41:
 1761 0282 75635374 		.ascii	"ucStartByte1\000"
 1761      61727442 
 1761      79746531 
 1761      00
 1762              	.LASF34:
 1763 028f 75635465 		.ascii	"ucTempChecksum\000"
 1763      6D704368 
 1763      65636B73 
 1763      756D00
 1764              	.LASF35:
 1765 029e 42504C5F 		.ascii	"BPL_TransmitMessage\000"
 1765      5472616E 
 1765      736D6974 
 1765      4D657373 
 1765      61676500 
 1766              	.LASF18:
 1767 02b2 6C656E67 		.ascii	"length\000"
 1767      746800
 1768              	.LASF51:
 1769 02b9 583A5C47 		.ascii	"X:\\GitHub_roboticscode\\roboticscode\\psoc\\psoc_c"
 1769      69744875 
 1769      625F726F 
 1769      626F7469 
 1769      6373636F 
 1770 02e8 72656174 		.ascii	"reator_2.2\\DrivePlatform3\\DrivePlatform3\\DrivePl"
 1770      6F725F32 
 1770      2E325C44 
 1770      72697665 
 1770      506C6174 
 1771 0318 6174666F 		.ascii	"atform3.cydsn\000"
 1771      726D332E 
 1771      63796473 
 1771      6E00
 1772              	.LASF30:
 1773 0326 42504C5F 		.ascii	"BPL_GetMessage\000"
 1773      4765744D 
 1773      65737361 
 1773      676500
 1774              	.LASF45:
 1775 0335 42504C5F 		.ascii	"BPL_aucTransmitBuffer\000"
ARM GAS  C:\Users\Martin\AppData\Local\Temp\ccutgkFX.s 			page 39


 1775      61756354 
 1775      72616E73 
 1775      6D697442 
 1775      75666665 
 1776              		.ident	"GCC: (Sourcery G++ Lite 2010q1-188) 4.4.1"
