ARM GAS  C:\Users\Martin\AppData\Local\Temp\ccKC1ubE.s 			page 1


   1              		.syntax unified
   2              		.cpu cortex-m3
   3              		.fpu softvfp
   4              		.eabi_attribute 20, 1
   5              		.eabi_attribute 21, 1
   6              		.eabi_attribute 23, 3
   7              		.eabi_attribute 24, 1
   8              		.eabi_attribute 25, 1
   9              		.eabi_attribute 26, 1
  10              		.eabi_attribute 30, 6
  11              		.eabi_attribute 18, 4
  12              		.thumb
  13              		.file	"hal.c"
  20 0000 EF010000 		.text
  20      02000601 
  20      00000201 
  20      FB0E0D00 
  20      01010101 
  21              	.Ltext0:
  22              		.cfi_sections	.debug_frame
  23              		.bss
  24              	HalStatus:
  25 0000 00       		.space	1
  26              		.data
  27              		.type	HalIsBusIdle, %object
  28              		.size	HalIsBusIdle, 1
  29              	HalIsBusIdle:
  30 0000 01       		.byte	1
  31              		.bss
  32              	RxCount:
  33 0001 00       		.space	1
  34              	TxCount:
  35 0002 00       		.space	1
  36              		.section	.text.HAL_GetUartStatus,"ax",%progbits
  37              		.align	2
  38              		.global	HAL_GetUartStatus
  39              		.thumb
  40              		.thumb_func
  41              		.type	HAL_GetUartStatus, %function
  42              	HAL_GetUartStatus:
  43              	.LFB29:
  44              		.file 1 ".\\hal.c"
   1:.\hal.c       **** /* Copyright (C) <2014> <Martin Schalk>
   2:.\hal.c       ****  * All rights reserved.
   3:.\hal.c       ****  *
   4:.\hal.c       ****  * This software may be modified and distributed under the terms
   5:.\hal.c       ****  * of the BSD license.  See the LICENSE file for details.
   6:.\hal.c       ****  */
   7:.\hal.c       **** 
   8:.\hal.c       **** #include "global.h"
   9:.\hal.c       **** #include "types.h"
ARM GAS  C:\Users\Martin\AppData\Local\Temp\ccKC1ubE.s 			page 2


  10:.\hal.c       **** #include "hal.h"
  11:.\hal.c       **** #include "error.h"
  12:.\hal.c       **** 
  13:.\hal.c       **** 
  14:.\hal.c       **** 
  15:.\hal.c       **** static STATUS   HalStatus = HAL_TRANSMISSION_READY;
  16:.\hal.c       **** static BOOL     HalIsBusIdle = TRUE;
  17:.\hal.c       **** static uint8    RxCount = 0;
  18:.\hal.c       **** static uint8    TxCount = 0;
  19:.\hal.c       **** 
  20:.\hal.c       **** 
  21:.\hal.c       **** /*******************************************************/
  22:.\hal.c       **** /*
  23:.\hal.c       **** UART_TX_STS_COMPLETE        If set, indicates byte was transmitted successfully
  24:.\hal.c       **** UART_TX_STS_FIFO_EMPTY      If set, indicates the TX FIFO is empty
  25:.\hal.c       **** UART_TX_STS_FIFO_FULL       If set, indicates the TX FIFO is full
  26:.\hal.c       **** UART_TX_STS_FIFO_NOT_FULL   If set, indicates the FIFO is not full
  27:.\hal.c       **** */
  28:.\hal.c       **** uint8 HAL_GetUartStatus(void)
  29:.\hal.c       **** {
  45              		.loc 1 29 0
  46              		.cfi_startproc
  47              		@ args = 0, pretend = 0, frame = 0
  48              		@ frame_needed = 1, uses_anonymous_args = 0
  49 0000 80B5     		push	{r7, lr}
  50              	.LCFI0:
  51              		.cfi_def_cfa_offset 8
  52 0002 00AF     		add	r7, sp, #0
  53              		.cfi_offset 14, -4
  54              		.cfi_offset 7, -8
  55              	.LCFI1:
  56              		.cfi_def_cfa_register 7
  30:.\hal.c       ****     return UART_ReadTxStatus();
  57              		.loc 1 30 0
  58 0004 FFF7FEFF 		bl	UART_ReadTxStatus
  59 0008 0346     		mov	r3, r0
  31:.\hal.c       **** }
  60              		.loc 1 31 0
  61 000a 1846     		mov	r0, r3
  62 000c 80BD     		pop	{r7, pc}
  63              		.cfi_endproc
  64              	.LFE29:
  65              		.size	HAL_GetUartStatus, .-HAL_GetUartStatus
  66 000e 00BF     		.section	.text.HAL_GetHalStatus,"ax",%progbits
  67              		.align	2
  68              		.global	HAL_GetHalStatus
  69              		.thumb
  70              		.thumb_func
  71              		.type	HAL_GetHalStatus, %function
  72              	HAL_GetHalStatus:
  73              	.LFB30:
  32:.\hal.c       **** 
  33:.\hal.c       **** /*******************************************************/
  34:.\hal.c       **** STATUS HAL_GetHalStatus(void)
  35:.\hal.c       **** {
  74              		.loc 1 35 0
  75              		.cfi_startproc
ARM GAS  C:\Users\Martin\AppData\Local\Temp\ccKC1ubE.s 			page 3


  76              		@ args = 0, pretend = 0, frame = 0
  77              		@ frame_needed = 1, uses_anonymous_args = 0
  78              		@ link register save eliminated.
  79 0000 80B4     		push	{r7}
  80              	.LCFI2:
  81              		.cfi_def_cfa_offset 4
  82 0002 00AF     		add	r7, sp, #0
  83              		.cfi_offset 7, -4
  84              	.LCFI3:
  85              		.cfi_def_cfa_register 7
  36:.\hal.c       **** 	return HalStatus;
  86              		.loc 1 36 0
  87 0004 40F20003 		movw	r3, #:lower16:HalStatus
  88 0008 C0F20003 		movt	r3, #:upper16:HalStatus
  89 000c 1B78     		ldrb	r3, [r3, #0]	@ zero_extendqisi2
  37:.\hal.c       **** }
  90              		.loc 1 37 0
  91 000e 1846     		mov	r0, r3
  92 0010 BD46     		mov	sp, r7
  93 0012 80BC     		pop	{r7}
  94 0014 7047     		bx	lr
  95              		.cfi_endproc
  96              	.LFE30:
  97              		.size	HAL_GetHalStatus, .-HAL_GetHalStatus
  98 0016 00BF     		.section	.text.HAL_SetHalStatus,"ax",%progbits
  99              		.align	2
 100              		.global	HAL_SetHalStatus
 101              		.thumb
 102              		.thumb_func
 103              		.type	HAL_SetHalStatus, %function
 104              	HAL_SetHalStatus:
 105              	.LFB31:
  38:.\hal.c       **** 
  39:.\hal.c       **** /*******************************************************/
  40:.\hal.c       **** void HAL_SetHalStatus(STATUS value)
  41:.\hal.c       **** {
 106              		.loc 1 41 0
 107              		.cfi_startproc
 108              		@ args = 0, pretend = 0, frame = 8
 109              		@ frame_needed = 1, uses_anonymous_args = 0
 110              		@ link register save eliminated.
 111 0000 80B4     		push	{r7}
 112              	.LCFI4:
 113              		.cfi_def_cfa_offset 4
 114 0002 83B0     		sub	sp, sp, #12
 115              	.LCFI5:
 116              		.cfi_def_cfa_offset 16
 117 0004 00AF     		add	r7, sp, #0
 118              		.cfi_offset 7, -4
 119              	.LCFI6:
 120              		.cfi_def_cfa_register 7
 121 0006 0346     		mov	r3, r0
 122 0008 FB71     		strb	r3, [r7, #7]
  42:.\hal.c       **** 	HalStatus = value;
 123              		.loc 1 42 0
 124 000a 40F20003 		movw	r3, #:lower16:HalStatus
 125 000e C0F20003 		movt	r3, #:upper16:HalStatus
ARM GAS  C:\Users\Martin\AppData\Local\Temp\ccKC1ubE.s 			page 4


 126 0012 FA79     		ldrb	r2, [r7, #7]
 127 0014 1A70     		strb	r2, [r3, #0]
  43:.\hal.c       **** }
 128              		.loc 1 43 0
 129 0016 07F10C07 		add	r7, r7, #12
 130 001a BD46     		mov	sp, r7
 131 001c 80BC     		pop	{r7}
 132 001e 7047     		bx	lr
 133              		.cfi_endproc
 134              	.LFE31:
 135              		.size	HAL_SetHalStatus, .-HAL_SetHalStatus
 136              		.section	.text.isr_rx_routine,"ax",%progbits
 137              		.align	2
 138              		.global	isr_rx_routine
 139              		.thumb
 140              		.thumb_func
 141              		.type	isr_rx_routine, %function
 142              	isr_rx_routine:
 143              	.LFB32:
  44:.\hal.c       **** 
  45:.\hal.c       **** /*******************************************************/
  46:.\hal.c       **** CY_ISR(isr_rx_routine)
  47:.\hal.c       **** {
 144              		.loc 1 47 0
 145              		.cfi_startproc
 146              		@ args = 0, pretend = 0, frame = 0
 147              		@ frame_needed = 1, uses_anonymous_args = 0
 148 0000 80B5     		push	{r7, lr}
 149              	.LCFI7:
 150              		.cfi_def_cfa_offset 8
 151 0002 00AF     		add	r7, sp, #0
 152              		.cfi_offset 14, -4
 153              		.cfi_offset 7, -8
 154              	.LCFI8:
 155              		.cfi_def_cfa_register 7
  48:.\hal.c       **** 	RxCount++;
 156              		.loc 1 48 0
 157 0004 40F20003 		movw	r3, #:lower16:RxCount
 158 0008 C0F20003 		movt	r3, #:upper16:RxCount
 159 000c 1B78     		ldrb	r3, [r3, #0]	@ zero_extendqisi2
 160 000e 03F10103 		add	r3, r3, #1
 161 0012 DAB2     		uxtb	r2, r3
 162 0014 40F20003 		movw	r3, #:lower16:RxCount
 163 0018 C0F20003 		movt	r3, #:upper16:RxCount
 164 001c 1A70     		strb	r2, [r3, #0]
  49:.\hal.c       ****     
  50:.\hal.c       ****     #ifdef HAL_START_BIT_DETECTION_SUPPORT
  51:.\hal.c       ****         DFF_Reset_Write(1);
 165              		.loc 1 51 0
 166 001e 4FF00100 		mov	r0, #1
 167 0022 FFF7FEFF 		bl	DFF_Reset_Write
  52:.\hal.c       ****         DFF_Reset_Write(0);
 168              		.loc 1 52 0
 169 0026 4FF00000 		mov	r0, #0
 170 002a FFF7FEFF 		bl	DFF_Reset_Write
  53:.\hal.c       ****     #endif
  54:.\hal.c       **** }
ARM GAS  C:\Users\Martin\AppData\Local\Temp\ccKC1ubE.s 			page 5


 171              		.loc 1 54 0
 172 002e 80BD     		pop	{r7, pc}
 173              		.cfi_endproc
 174              	.LFE32:
 175              		.size	isr_rx_routine, .-isr_rx_routine
 176              		.section	.text.isr_tx_routine,"ax",%progbits
 177              		.align	2
 178              		.global	isr_tx_routine
 179              		.thumb
 180              		.thumb_func
 181              		.type	isr_tx_routine, %function
 182              	isr_tx_routine:
 183              	.LFB33:
  55:.\hal.c       **** 
  56:.\hal.c       **** /*******************************************************/
  57:.\hal.c       **** CY_ISR(isr_tx_routine)
  58:.\hal.c       **** {
 184              		.loc 1 58 0
 185              		.cfi_startproc
 186              		@ args = 0, pretend = 0, frame = 0
 187              		@ frame_needed = 1, uses_anonymous_args = 0
 188 0000 80B5     		push	{r7, lr}
 189              	.LCFI9:
 190              		.cfi_def_cfa_offset 8
 191 0002 00AF     		add	r7, sp, #0
 192              		.cfi_offset 14, -4
 193              		.cfi_offset 7, -8
 194              	.LCFI10:
 195              		.cfi_def_cfa_register 7
  59:.\hal.c       **** 	TxCount = 0;
 196              		.loc 1 59 0
 197 0004 40F20003 		movw	r3, #:lower16:TxCount
 198 0008 C0F20003 		movt	r3, #:upper16:TxCount
 199 000c 4FF00002 		mov	r2, #0
 200 0010 1A70     		strb	r2, [r3, #0]
  60:.\hal.c       **** 	HalStatus = HAL_TRANSMISSION_READY;
 201              		.loc 1 60 0
 202 0012 40F20003 		movw	r3, #:lower16:HalStatus
 203 0016 C0F20003 		movt	r3, #:upper16:HalStatus
 204 001a 4FF00002 		mov	r2, #0
 205 001e 1A70     		strb	r2, [r3, #0]
  61:.\hal.c       **** 	UART_EnableRxInt();
 206              		.loc 1 61 0
 207 0020 FFF7FEFF 		bl	UART_EnableRxInt
  62:.\hal.c       **** }
 208              		.loc 1 62 0
 209 0024 80BD     		pop	{r7, pc}
 210              		.cfi_endproc
 211              	.LFE33:
 212              		.size	isr_tx_routine, .-isr_tx_routine
 213 0026 00BF     		.section	.rodata
 214              		.align	2
 215              	.LC0:
 216 0000 5278436F 		.ascii	"RxCount\000"
 216      756E7400 
 217              		.align	2
 218              	.LC1:
ARM GAS  C:\Users\Martin\AppData\Local\Temp\ccKC1ubE.s 			page 6


 219 0008 5478436F 		.ascii	"TxCount\000"
 219      756E7400 
 220              		.section	.text.HAL_Init,"ax",%progbits
 221              		.align	2
 222              		.global	HAL_Init
 223              		.thumb
 224              		.thumb_func
 225              		.type	HAL_Init, %function
 226              	HAL_Init:
 227              	.LFB34:
  63:.\hal.c       **** 
  64:.\hal.c       **** /*******************************************************/
  65:.\hal.c       **** STATUS 	HAL_Init(void)
  66:.\hal.c       **** {
 228              		.loc 1 66 0
 229              		.cfi_startproc
 230              		@ args = 0, pretend = 0, frame = 8
 231              		@ frame_needed = 1, uses_anonymous_args = 0
 232 0000 80B5     		push	{r7, lr}
 233              	.LCFI11:
 234              		.cfi_def_cfa_offset 8
 235 0002 82B0     		sub	sp, sp, #8
 236              	.LCFI12:
 237              		.cfi_def_cfa_offset 16
 238 0004 00AF     		add	r7, sp, #0
 239              		.cfi_offset 14, -4
 240              		.cfi_offset 7, -8
 241              	.LCFI13:
 242              		.cfi_def_cfa_register 7
  67:.\hal.c       **** #ifdef ERROR_MODULE_ENABLE
  68:.\hal.c       ****     STATUS idx1, idx2;
  69:.\hal.c       ****     idx1 = ERR_RegisterUcVariable(&RxCount, "RxCount", 0, 32);
 243              		.loc 1 69 0
 244 0006 40F20000 		movw	r0, #:lower16:RxCount
 245 000a C0F20000 		movt	r0, #:upper16:RxCount
 246 000e 40F20001 		movw	r1, #:lower16:.LC0
 247 0012 C0F20001 		movt	r1, #:upper16:.LC0
 248 0016 4FF00002 		mov	r2, #0
 249 001a 4FF02003 		mov	r3, #32
 250 001e FFF7FEFF 		bl	ERR_RegisterUcVariable
 251 0022 0346     		mov	r3, r0
 252 0024 BB71     		strb	r3, [r7, #6]
  70:.\hal.c       ****     idx2 = ERR_RegisterUcVariable(&TxCount, "TxCount", 0, 32);
 253              		.loc 1 70 0
 254 0026 40F20000 		movw	r0, #:lower16:TxCount
 255 002a C0F20000 		movt	r0, #:upper16:TxCount
 256 002e 40F20001 		movw	r1, #:lower16:.LC1
 257 0032 C0F20001 		movt	r1, #:upper16:.LC1
 258 0036 4FF00002 		mov	r2, #0
 259 003a 4FF02003 		mov	r3, #32
 260 003e FFF7FEFF 		bl	ERR_RegisterUcVariable
 261 0042 0346     		mov	r3, r0
 262 0044 FB71     		strb	r3, [r7, #7]
  71:.\hal.c       **** #endif
  72:.\hal.c       **** 
  73:.\hal.c       **** 	RxCount = 0;
 263              		.loc 1 73 0
ARM GAS  C:\Users\Martin\AppData\Local\Temp\ccKC1ubE.s 			page 7


 264 0046 40F20003 		movw	r3, #:lower16:RxCount
 265 004a C0F20003 		movt	r3, #:upper16:RxCount
 266 004e 4FF00002 		mov	r2, #0
 267 0052 1A70     		strb	r2, [r3, #0]
  74:.\hal.c       **** 	UART_Start();
 268              		.loc 1 74 0
 269 0054 FFF7FEFF 		bl	UART_Start
  75:.\hal.c       ****     Isr_rx_Start();
 270              		.loc 1 75 0
 271 0058 FFF7FEFF 		bl	Isr_rx_Start
  76:.\hal.c       **** 	Isr_tx_Start();	
 272              		.loc 1 76 0
 273 005c FFF7FEFF 		bl	Isr_tx_Start
  77:.\hal.c       **** 	Isr_rx_SetVector(isr_rx_routine);
 274              		.loc 1 77 0
 275 0060 40F20000 		movw	r0, #:lower16:isr_rx_routine
 276 0064 C0F20000 		movt	r0, #:upper16:isr_rx_routine
 277 0068 FFF7FEFF 		bl	Isr_rx_SetVector
  78:.\hal.c       **** 	Isr_tx_SetVector(isr_tx_routine);
 278              		.loc 1 78 0
 279 006c 40F20000 		movw	r0, #:lower16:isr_tx_routine
 280 0070 C0F20000 		movt	r0, #:upper16:isr_tx_routine
 281 0074 FFF7FEFF 		bl	Isr_tx_SetVector
  79:.\hal.c       **** 	Isr_rx_Enable();
 282              		.loc 1 79 0
 283 0078 FFF7FEFF 		bl	Isr_rx_Enable
  80:.\hal.c       **** 	Isr_tx_Enable();
 284              		.loc 1 80 0
 285 007c FFF7FEFF 		bl	Isr_tx_Enable
  81:.\hal.c       ****     #ifdef HAL_START_BIT_DETECTION_SUPPORT
  82:.\hal.c       ****         DFF_Clock_Start();
 286              		.loc 1 82 0
 287 0080 FFF7FEFF 		bl	DFF_Clock_Start
  83:.\hal.c       ****         DFF_Reset_Write(1);
 288              		.loc 1 83 0
 289 0084 4FF00100 		mov	r0, #1
 290 0088 FFF7FEFF 		bl	DFF_Reset_Write
  84:.\hal.c       ****         DFF_Reset_Write(0);
 291              		.loc 1 84 0
 292 008c 4FF00000 		mov	r0, #0
 293 0090 FFF7FEFF 		bl	DFF_Reset_Write
  85:.\hal.c       ****     #endif
  86:.\hal.c       **** 	UART_EnableRxInt();
 294              		.loc 1 86 0
 295 0094 FFF7FEFF 		bl	UART_EnableRxInt
  87:.\hal.c       **** 	UART_EnableTxInt();
 296              		.loc 1 87 0
 297 0098 FFF7FEFF 		bl	UART_EnableTxInt
  88:.\hal.c       ****  
  89:.\hal.c       **** 	return SUCCESS;
 298              		.loc 1 89 0
 299 009c 4FF00003 		mov	r3, #0
  90:.\hal.c       **** }
 300              		.loc 1 90 0
 301 00a0 1846     		mov	r0, r3
 302 00a2 07F10807 		add	r7, r7, #8
 303 00a6 BD46     		mov	sp, r7
ARM GAS  C:\Users\Martin\AppData\Local\Temp\ccKC1ubE.s 			page 8


 304 00a8 80BD     		pop	{r7, pc}
 305              		.cfi_endproc
 306              	.LFE34:
 307              		.size	HAL_Init, .-HAL_Init
 308 00aa 00BF     		.section	.text.HAL_GetRxIsrCount,"ax",%progbits
 309              		.align	2
 310              		.global	HAL_GetRxIsrCount
 311              		.thumb
 312              		.thumb_func
 313              		.type	HAL_GetRxIsrCount, %function
 314              	HAL_GetRxIsrCount:
 315              	.LFB35:
  91:.\hal.c       **** 
  92:.\hal.c       **** /*******************************************************/
  93:.\hal.c       **** uint8 	HAL_GetRxIsrCount()
  94:.\hal.c       **** {
 316              		.loc 1 94 0
 317              		.cfi_startproc
 318              		@ args = 0, pretend = 0, frame = 0
 319              		@ frame_needed = 1, uses_anonymous_args = 0
 320              		@ link register save eliminated.
 321 0000 80B4     		push	{r7}
 322              	.LCFI14:
 323              		.cfi_def_cfa_offset 4
 324 0002 00AF     		add	r7, sp, #0
 325              		.cfi_offset 7, -4
 326              	.LCFI15:
 327              		.cfi_def_cfa_register 7
  95:.\hal.c       **** 	return RxCount;
 328              		.loc 1 95 0
 329 0004 40F20003 		movw	r3, #:lower16:RxCount
 330 0008 C0F20003 		movt	r3, #:upper16:RxCount
 331 000c 1B78     		ldrb	r3, [r3, #0]	@ zero_extendqisi2
  96:.\hal.c       **** }
 332              		.loc 1 96 0
 333 000e 1846     		mov	r0, r3
 334 0010 BD46     		mov	sp, r7
 335 0012 80BC     		pop	{r7}
 336 0014 7047     		bx	lr
 337              		.cfi_endproc
 338              	.LFE35:
 339              		.size	HAL_GetRxIsrCount, .-HAL_GetRxIsrCount
 340 0016 00BF     		.section	.text.HAL_GetRxBufferCount,"ax",%progbits
 341              		.align	2
 342              		.global	HAL_GetRxBufferCount
 343              		.thumb
 344              		.thumb_func
 345              		.type	HAL_GetRxBufferCount, %function
 346              	HAL_GetRxBufferCount:
 347              	.LFB36:
  97:.\hal.c       **** 
  98:.\hal.c       **** /*******************************************************/
  99:.\hal.c       **** uint8 	HAL_GetRxBufferCount()
 100:.\hal.c       **** {
 348              		.loc 1 100 0
 349              		.cfi_startproc
 350              		@ args = 0, pretend = 0, frame = 0
ARM GAS  C:\Users\Martin\AppData\Local\Temp\ccKC1ubE.s 			page 9


 351              		@ frame_needed = 1, uses_anonymous_args = 0
 352 0000 80B5     		push	{r7, lr}
 353              	.LCFI16:
 354              		.cfi_def_cfa_offset 8
 355 0002 00AF     		add	r7, sp, #0
 356              		.cfi_offset 14, -4
 357              		.cfi_offset 7, -8
 358              	.LCFI17:
 359              		.cfi_def_cfa_register 7
 101:.\hal.c       **** 	return UART_GetRxBufferSize();
 360              		.loc 1 101 0
 361 0004 FFF7FEFF 		bl	UART_GetRxBufferSize
 362 0008 0346     		mov	r3, r0
 102:.\hal.c       **** }
 363              		.loc 1 102 0
 364 000a 1846     		mov	r0, r3
 365 000c 80BD     		pop	{r7, pc}
 366              		.cfi_endproc
 367              	.LFE36:
 368              		.size	HAL_GetRxBufferCount, .-HAL_GetRxBufferCount
 369 000e 00BF     		.section	.text.HAL_GetByte,"ax",%progbits
 370              		.align	2
 371              		.global	HAL_GetByte
 372              		.thumb
 373              		.thumb_func
 374              		.type	HAL_GetByte, %function
 375              	HAL_GetByte:
 376              	.LFB37:
 103:.\hal.c       **** 
 104:.\hal.c       **** 
 105:.\hal.c       **** /* check, if FIFO has data available.*/
 106:.\hal.c       **** 	//if ((UART_ReadRxStatus() & UART_RX_STS_FIFO_NOTEMPTY) == UART_RX_STS_FIFO_NOTEMPTY)
 107:.\hal.c       **** /*******************************************************/
 108:.\hal.c       **** uint8 	HAL_GetByte()
 109:.\hal.c       **** {
 377              		.loc 1 109 0
 378              		.cfi_startproc
 379              		@ args = 0, pretend = 0, frame = 8
 380              		@ frame_needed = 1, uses_anonymous_args = 0
 381 0000 80B5     		push	{r7, lr}
 382              	.LCFI18:
 383              		.cfi_def_cfa_offset 8
 384 0002 82B0     		sub	sp, sp, #8
 385              	.LCFI19:
 386              		.cfi_def_cfa_offset 16
 387 0004 00AF     		add	r7, sp, #0
 388              		.cfi_offset 14, -4
 389              		.cfi_offset 7, -8
 390              	.LCFI20:
 391              		.cfi_def_cfa_register 7
 110:.\hal.c       **** 	uint8 value;
 111:.\hal.c       **** 	
 112:.\hal.c       **** 	/* chech if data available */
 113:.\hal.c       **** 	if (UART_GetRxBufferSize > 0)
 114:.\hal.c       **** 	{
 115:.\hal.c       **** 		value = UART_ReadRxData();
 392              		.loc 1 115 0
ARM GAS  C:\Users\Martin\AppData\Local\Temp\ccKC1ubE.s 			page 10


 393 0006 FFF7FEFF 		bl	UART_ReadRxData
 394 000a 0346     		mov	r3, r0
 395 000c FB71     		strb	r3, [r7, #7]
 116:.\hal.c       **** 		RxCount--;
 396              		.loc 1 116 0
 397 000e 40F20003 		movw	r3, #:lower16:RxCount
 398 0012 C0F20003 		movt	r3, #:upper16:RxCount
 399 0016 1B78     		ldrb	r3, [r3, #0]	@ zero_extendqisi2
 400 0018 03F1FF33 		add	r3, r3, #-1
 401 001c DAB2     		uxtb	r2, r3
 402 001e 40F20003 		movw	r3, #:lower16:RxCount
 403 0022 C0F20003 		movt	r3, #:upper16:RxCount
 404 0026 1A70     		strb	r2, [r3, #0]
 117:.\hal.c       **** 	}
 118:.\hal.c       **** 	else
 119:.\hal.c       **** 	{
 120:.\hal.c       **** 		value = 0;
 121:.\hal.c       **** 	}
 122:.\hal.c       **** 	
 123:.\hal.c       **** 	return value;
 405              		.loc 1 123 0
 406 0028 FB79     		ldrb	r3, [r7, #7]	@ zero_extendqisi2
 124:.\hal.c       **** }
 407              		.loc 1 124 0
 408 002a 1846     		mov	r0, r3
 409 002c 07F10807 		add	r7, r7, #8
 410 0030 BD46     		mov	sp, r7
 411 0032 80BD     		pop	{r7, pc}
 412              		.cfi_endproc
 413              	.LFE37:
 414              		.size	HAL_GetByte, .-HAL_GetByte
 415              		.section	.text.HAL_TransmitByte,"ax",%progbits
 416              		.align	2
 417              		.global	HAL_TransmitByte
 418              		.thumb
 419              		.thumb_func
 420              		.type	HAL_TransmitByte, %function
 421              	HAL_TransmitByte:
 422              	.LFB38:
 125:.\hal.c       **** 
 126:.\hal.c       **** /*******************************************************/
 127:.\hal.c       **** STATUS 	HAL_TransmitByte(uint8 value)
 128:.\hal.c       **** {
 423              		.loc 1 128 0
 424              		.cfi_startproc
 425              		@ args = 0, pretend = 0, frame = 8
 426              		@ frame_needed = 1, uses_anonymous_args = 0
 427 0000 80B5     		push	{r7, lr}
 428              	.LCFI21:
 429              		.cfi_def_cfa_offset 8
 430 0002 82B0     		sub	sp, sp, #8
 431              	.LCFI22:
 432              		.cfi_def_cfa_offset 16
 433 0004 00AF     		add	r7, sp, #0
 434              		.cfi_offset 14, -4
 435              		.cfi_offset 7, -8
 436              	.LCFI23:
ARM GAS  C:\Users\Martin\AppData\Local\Temp\ccKC1ubE.s 			page 11


 437              		.cfi_def_cfa_register 7
 438 0006 0346     		mov	r3, r0
 439 0008 FB71     		strb	r3, [r7, #7]
 129:.\hal.c       ****     /* Check if bus is idle */
 130:.\hal.c       ****     if (HalIsBusIdle == TRUE) //TODO
 440              		.loc 1 130 0
 441 000a 40F20003 		movw	r3, #:lower16:HalIsBusIdle
 442 000e C0F20003 		movt	r3, #:upper16:HalIsBusIdle
 443 0012 1B78     		ldrb	r3, [r3, #0]	@ zero_extendqisi2
 444 0014 012B     		cmp	r3, #1
 445 0016 28D1     		bne	.L22
 131:.\hal.c       ****     {
 132:.\hal.c       ****     	UART_DisableRxInt();
 446              		.loc 1 132 0
 447 0018 FFF7FEFF 		bl	UART_DisableRxInt
 133:.\hal.c       ****     	HalStatus = HAL_TRANSMISSION_BUSY;
 448              		.loc 1 133 0
 449 001c 40F20003 		movw	r3, #:lower16:HalStatus
 450 0020 C0F20003 		movt	r3, #:upper16:HalStatus
 451 0024 4FF00102 		mov	r2, #1
 452 0028 1A70     		strb	r2, [r3, #0]
 453              	.L23:
 134:.\hal.c       ****     	
 135:.\hal.c       ****     	/* wait until uart read to transmitted */
 136:.\hal.c       ****     	while (UART_ReadTxStatus() != UART_TX_STS_COMPLETE)
 454              		.loc 1 136 0
 455 002a FFF7FEFF 		bl	UART_ReadTxStatus
 456 002e 0346     		mov	r3, r0
 457 0030 012B     		cmp	r3, #1
 458 0032 FAD1     		bne	.L23
 137:.\hal.c       ****     	;
 138:.\hal.c       ****     	TxCount++;
 459              		.loc 1 138 0
 460 0034 40F20003 		movw	r3, #:lower16:TxCount
 461 0038 C0F20003 		movt	r3, #:upper16:TxCount
 462 003c 1B78     		ldrb	r3, [r3, #0]	@ zero_extendqisi2
 463 003e 03F10103 		add	r3, r3, #1
 464 0042 DAB2     		uxtb	r2, r3
 465 0044 40F20003 		movw	r3, #:lower16:TxCount
 466 0048 C0F20003 		movt	r3, #:upper16:TxCount
 467 004c 1A70     		strb	r2, [r3, #0]
 139:.\hal.c       ****     	UART_WriteTxData(value);
 468              		.loc 1 139 0
 469 004e FB79     		ldrb	r3, [r7, #7]	@ zero_extendqisi2
 470 0050 1846     		mov	r0, r3
 471 0052 FFF7FEFF 		bl	UART_WriteTxData
 140:.\hal.c       ****     	
 141:.\hal.c       ****     	HalStatus = HAL_TRANSMISSION_READY;
 472              		.loc 1 141 0
 473 0056 40F20003 		movw	r3, #:lower16:HalStatus
 474 005a C0F20003 		movt	r3, #:upper16:HalStatus
 475 005e 4FF00002 		mov	r2, #0
 476 0062 1A70     		strb	r2, [r3, #0]
 142:.\hal.c       ****         
 143:.\hal.c       ****         return SUCCESS;
 477              		.loc 1 143 0
 478 0064 4FF00003 		mov	r3, #0
ARM GAS  C:\Users\Martin\AppData\Local\Temp\ccKC1ubE.s 			page 12


 479 0068 01E0     		b	.L24
 480              	.L22:
 144:.\hal.c       **** 	}
 145:.\hal.c       **** 	else
 146:.\hal.c       ****     {
 147:.\hal.c       ****         return !SUCCESS;
 481              		.loc 1 147 0
 482 006a 4FF00103 		mov	r3, #1
 483              	.L24:
 148:.\hal.c       ****     }
 149:.\hal.c       **** }
 484              		.loc 1 149 0
 485 006e 1846     		mov	r0, r3
 486 0070 07F10807 		add	r7, r7, #8
 487 0074 BD46     		mov	sp, r7
 488 0076 80BD     		pop	{r7, pc}
 489              		.cfi_endproc
 490              	.LFE38:
 491              		.size	HAL_TransmitByte, .-HAL_TransmitByte
 492              		.section	.text.HAL_TransmitArray,"ax",%progbits
 493              		.align	2
 494              		.global	HAL_TransmitArray
 495              		.thumb
 496              		.thumb_func
 497              		.type	HAL_TransmitArray, %function
 498              	HAL_TransmitArray:
 499              	.LFB39:
 150:.\hal.c       **** 
 151:.\hal.c       **** /*******************************************************/
 152:.\hal.c       **** STATUS 	HAL_TransmitArray(const uint8* source, uint8 numBytes)
 153:.\hal.c       **** {
 500              		.loc 1 153 0
 501              		.cfi_startproc
 502              		@ args = 0, pretend = 0, frame = 8
 503              		@ frame_needed = 1, uses_anonymous_args = 0
 504 0000 80B5     		push	{r7, lr}
 505              	.LCFI24:
 506              		.cfi_def_cfa_offset 8
 507 0002 82B0     		sub	sp, sp, #8
 508              	.LCFI25:
 509              		.cfi_def_cfa_offset 16
 510 0004 00AF     		add	r7, sp, #0
 511              		.cfi_offset 14, -4
 512              		.cfi_offset 7, -8
 513              	.LCFI26:
 514              		.cfi_def_cfa_register 7
 515 0006 7860     		str	r0, [r7, #4]
 516 0008 0B46     		mov	r3, r1
 517 000a FB70     		strb	r3, [r7, #3]
 154:.\hal.c       **** 	UART_DisableRxInt();
 518              		.loc 1 154 0
 519 000c FFF7FEFF 		bl	UART_DisableRxInt
 155:.\hal.c       **** 	HalStatus = HAL_TRANSMISSION_BUSY;
 520              		.loc 1 155 0
 521 0010 40F20003 		movw	r3, #:lower16:HalStatus
 522 0014 C0F20003 		movt	r3, #:upper16:HalStatus
 523 0018 4FF00102 		mov	r2, #1
ARM GAS  C:\Users\Martin\AppData\Local\Temp\ccKC1ubE.s 			page 13


 524 001c 1A70     		strb	r2, [r3, #0]
 156:.\hal.c       **** 	TxCount += numBytes;
 525              		.loc 1 156 0
 526 001e 40F20003 		movw	r3, #:lower16:TxCount
 527 0022 C0F20003 		movt	r3, #:upper16:TxCount
 528 0026 1A78     		ldrb	r2, [r3, #0]	@ zero_extendqisi2
 529 0028 FB78     		ldrb	r3, [r7, #3]
 530 002a 1344     		add	r3, r2, r3
 531 002c DAB2     		uxtb	r2, r3
 532 002e 40F20003 		movw	r3, #:lower16:TxCount
 533 0032 C0F20003 		movt	r3, #:upper16:TxCount
 534 0036 1A70     		strb	r2, [r3, #0]
 157:.\hal.c       **** 	UART_PutArray(source, numBytes); //function can be interrupted by <isr_tx_routine>
 535              		.loc 1 157 0
 536 0038 FB78     		ldrb	r3, [r7, #3]	@ zero_extendqisi2
 537 003a 7868     		ldr	r0, [r7, #4]
 538 003c 1946     		mov	r1, r3
 539 003e FFF7FEFF 		bl	UART_PutArray
 158:.\hal.c       **** 	HalStatus = HAL_TRANSMISSION_READY;
 540              		.loc 1 158 0
 541 0042 40F20003 		movw	r3, #:lower16:HalStatus
 542 0046 C0F20003 		movt	r3, #:upper16:HalStatus
 543 004a 4FF00002 		mov	r2, #0
 544 004e 1A70     		strb	r2, [r3, #0]
 159:.\hal.c       **** 	// UART_EnableRxInt(); => done in <isr_tx_routine> if last byte transmitted
 160:.\hal.c       **** 	return SUCCESS;
 545              		.loc 1 160 0
 546 0050 4FF00003 		mov	r3, #0
 161:.\hal.c       **** }
 547              		.loc 1 161 0
 548 0054 1846     		mov	r0, r3
 549 0056 07F10807 		add	r7, r7, #8
 550 005a BD46     		mov	sp, r7
 551 005c 80BD     		pop	{r7, pc}
 552              		.cfi_endproc
 553              	.LFE39:
 554              		.size	HAL_TransmitArray, .-HAL_TransmitArray
 555 005e 00BF     		.text
 556              	.Letext0: