ARM GAS  C:\Users\Martin\AppData\Local\Temp\ccWFI6zc.s 			page 1


   1              		.syntax unified
   2              		.cpu cortex-m3
   3              		.fpu softvfp
   4              		.eabi_attribute 20, 1
   5              		.eabi_attribute 21, 1
   6              		.eabi_attribute 23, 3
   7              		.eabi_attribute 24, 1
   8              		.eabi_attribute 25, 1
   9              		.eabi_attribute 26, 1
  10              		.eabi_attribute 30, 6
  11              		.eabi_attribute 18, 4
  12              		.thumb
  13              		.file	"move.c"
  20 0000 41010000 		.text
  20      02000701 
  20      00000201 
  20      FB0E0D00 
  20      01010101 
  21              	.Ltext0:
  22              		.cfi_sections	.debug_frame
  23              		.section	.text.MOV_Init,"ax",%progbits
  24              		.align	2
  25              		.global	MOV_Init
  26              		.thumb
  27              		.thumb_func
  28              		.type	MOV_Init, %function
  29              	MOV_Init:
  30              	.LFB29:
  31              		.file 1 ".\\move.c"
   1:.\move.c      **** /* Copyright (C) <2014> <Martin Schalk>
   2:.\move.c      ****  * All rights reserved.
   3:.\move.c      ****  *
   4:.\move.c      ****  * This software may be modified and distributed under the terms
   5:.\move.c      ****  * of the BSD license.  See the LICENSE file for details.
   6:.\move.c      ****  */
   7:.\move.c      ****  
   8:.\move.c      **** #include <project.h>
   9:.\move.c      **** #include <stdio.h>
  10:.\move.c      **** #include "types.h"
  11:.\move.c      **** #include "move.h"
  12:.\move.c      **** #include "servo_cds5500.h"
  13:.\move.c      **** 
  14:.\move.c      **** //#include "bal.h"
  15:.\move.c      **** #include "global.h"
  16:.\move.c      **** //#include "tmr.h"
  17:.\move.c      **** 
  18:.\move.c      **** //static CDS5500_STATUS Servo1;
  19:.\move.c      **** 
  20:.\move.c      **** 
  21:.\move.c      **** 
  22:.\move.c      **** /*****************************************************************/
ARM GAS  C:\Users\Martin\AppData\Local\Temp\ccWFI6zc.s 			page 2


  23:.\move.c      **** STATUS MOV_Init(void)
  24:.\move.c      **** {
  32              		.loc 1 24 0
  33              		.cfi_startproc
  34              		@ args = 0, pretend = 0, frame = 0
  35              		@ frame_needed = 1, uses_anonymous_args = 0
  36              		@ link register save eliminated.
  37 0000 80B4     		push	{r7}
  38              	.LCFI0:
  39              		.cfi_def_cfa_offset 4
  40 0002 00AF     		add	r7, sp, #0
  41              		.cfi_offset 7, -4
  42              	.LCFI1:
  43              		.cfi_def_cfa_register 7
  25:.\move.c      ****     return SUCCESS;
  44              		.loc 1 25 0
  45 0004 4FF00003 		mov	r3, #0
  26:.\move.c      **** }
  46              		.loc 1 26 0
  47 0008 1846     		mov	r0, r3
  48 000a BD46     		mov	sp, r7
  49 000c 80BC     		pop	{r7}
  50 000e 7047     		bx	lr
  51              		.cfi_endproc
  52              	.LFE29:
  53              		.size	MOV_Init, .-MOV_Init
  54              		.section	.text.MOV_HandleTask,"ax",%progbits
  55              		.align	2
  56              		.global	MOV_HandleTask
  57              		.thumb
  58              		.thumb_func
  59              		.type	MOV_HandleTask, %function
  60              	MOV_HandleTask:
  61              	.LFB30:
  27:.\move.c      **** 
  28:.\move.c      **** /*****************************************************************/
  29:.\move.c      **** STATUS MOV_HandleTask(void)
  30:.\move.c      **** {
  62              		.loc 1 30 0
  63              		.cfi_startproc
  64              		@ args = 0, pretend = 0, frame = 8
  65              		@ frame_needed = 1, uses_anonymous_args = 0
  66              		@ link register save eliminated.
  67 0000 80B4     		push	{r7}
  68              	.LCFI2:
  69              		.cfi_def_cfa_offset 4
  70 0002 83B0     		sub	sp, sp, #12
  71              	.LCFI3:
  72              		.cfi_def_cfa_offset 16
  73 0004 00AF     		add	r7, sp, #0
  74              		.cfi_offset 7, -4
  75              	.LCFI4:
  76              		.cfi_def_cfa_register 7
  31:.\move.c      ****     STATUS balStatus;
  32:.\move.c      **** 
  33:.\move.c      ****     return balStatus;
  77              		.loc 1 33 0
ARM GAS  C:\Users\Martin\AppData\Local\Temp\ccWFI6zc.s 			page 3


  78 0006 FB79     		ldrb	r3, [r7, #7]	@ zero_extendqisi2
  34:.\move.c      **** }
  79              		.loc 1 34 0
  80 0008 1846     		mov	r0, r3
  81 000a 07F10C07 		add	r7, r7, #12
  82 000e BD46     		mov	sp, r7
  83 0010 80BC     		pop	{r7}
  84 0012 7047     		bx	lr
  85              		.cfi_endproc
  86              	.LFE30:
  87              		.size	MOV_HandleTask, .-MOV_HandleTask
  88              		.section	.text.MOV_ucTest,"ax",%progbits
  89              		.align	2
  90              		.global	MOV_ucTest
  91              		.thumb
  92              		.thumb_func
  93              		.type	MOV_ucTest, %function
  94              	MOV_ucTest:
  95              	.LFB31:
  35:.\move.c      **** 
  36:.\move.c      **** /*****************************************************************/
  37:.\move.c      **** /*****************************************************************/
  38:.\move.c      **** #ifdef MOV_MODULE_TEST
  39:.\move.c      **** 
  40:.\move.c      **** void MOV_ucTest(void)
  41:.\move.c      **** {
  96              		.loc 1 41 0
  97              		.cfi_startproc
  98              		@ args = 0, pretend = 0, frame = 8
  99              		@ frame_needed = 1, uses_anonymous_args = 0
 100 0000 80B5     		push	{r7, lr}
 101              	.LCFI5:
 102              		.cfi_def_cfa_offset 8
 103 0002 82B0     		sub	sp, sp, #8
 104              	.LCFI6:
 105              		.cfi_def_cfa_offset 16
 106 0004 00AF     		add	r7, sp, #0
 107              		.cfi_offset 14, -4
 108              		.cfi_offset 7, -8
 109              	.LCFI7:
 110              		.cfi_def_cfa_register 7
  42:.\move.c      ****     STATUS status;
  43:.\move.c      ****     static uint8_t x = 1;
  44:.\move.c      ****     
  45:.\move.c      ****     if (x)
 111              		.loc 1 45 0
 112 0006 40F20003 		movw	r3, #:lower16:x.3547
 113 000a C0F20003 		movt	r3, #:upper16:x.3547
 114 000e 1B78     		ldrb	r3, [r3, #0]	@ zero_extendqisi2
 115 0010 002B     		cmp	r3, #0
 116 0012 03D0     		beq	.L7
  46:.\move.c      ****     {
  47:.\move.c      ****         CDS5500_Ping(CDS5500_SERVO_1);
 117              		.loc 1 47 0
 118 0014 4FF00100 		mov	r0, #1
 119 0018 FFF7FEFF 		bl	CDS5500_Ping
 120              	.L7:
ARM GAS  C:\Users\Martin\AppData\Local\Temp\ccWFI6zc.s 			page 4


  48:.\move.c      ****     }
  49:.\move.c      **** }
 121              		.loc 1 49 0
 122 001c 07F10807 		add	r7, r7, #8
 123 0020 BD46     		mov	sp, r7
 124 0022 80BD     		pop	{r7, pc}
 125              		.cfi_endproc
 126              	.LFE31:
 127              		.size	MOV_ucTest, .-MOV_ucTest
 128              		.data
 129              		.type	x.3547, %object
 130              		.size	x.3547, 1
 131              	x.3547:
 132 0000 01       		.byte	1
 133              		.text
 134              	.Letext0: