ARM GAS  C:\Users\Martin\AppData\Local\Temp\ccuhJpPE.s 			page 1


   1              		.syntax unified
   2              		.cpu cortex-m3
   3              		.fpu softvfp
   4              		.eabi_attribute 20, 1
   5              		.eabi_attribute 21, 1
   6              		.eabi_attribute 23, 3
   7              		.eabi_attribute 24, 1
   8              		.eabi_attribute 25, 1
   9              		.eabi_attribute 26, 1
  10              		.eabi_attribute 30, 6
  11              		.eabi_attribute 18, 4
  12              		.thumb
  13              		.file	"ring_buffer.c"
  14              		.section	.debug_abbrev,"",%progbits
  15              	.Ldebug_abbrev0:
  16              		.section	.debug_info,"",%progbits
  17              	.Ldebug_info0:
  18              		.section	.debug_line,"",%progbits
  19              	.Ldebug_line0:
  20 0000 7F030000 		.text
  20      02002201 
  20      00000201 
  20      FB0E0D00 
  20      01010101 
  21              	.Ltext0:
  22              		.cfi_sections	.debug_frame
  23              		.bss
  24              		.align	2
  25              	RingBuffer:
  26 0000 00000000 		.space	40
  26      00000000 
  26      00000000 
  26      00000000 
  26      00000000 
  27              		.section	.text.RBF_ucInit,"ax",%progbits
  28              		.align	2
  29              		.global	RBF_ucInit
  30              		.thumb
  31              		.thumb_func
  32              		.type	RBF_ucInit, %function
  33              	RBF_ucInit:
  34              	.LFB29:
  35              		.file 1 ".\\ring_buffer.c"
   1:.\ring_buffer.c **** /* Copyright (C) <2014> <Martin Schalk>
   2:.\ring_buffer.c ****  * All rights reserved.
   3:.\ring_buffer.c ****  *
   4:.\ring_buffer.c ****  * This software may be modified and distributed under the terms
   5:.\ring_buffer.c ****  * of the BSD license.  See the LICENSE file for details.
   6:.\ring_buffer.c ****  */
   7:.\ring_buffer.c **** 
   8:.\ring_buffer.c ****  
   9:.\ring_buffer.c ****  
  10:.\ring_buffer.c ****  
  11:.\ring_buffer.c **** /** COMMENTS
  12:.\ring_buffer.c **** 
  13:.\ring_buffer.c **** */
  14:.\ring_buffer.c **** 
ARM GAS  C:\Users\Martin\AppData\Local\Temp\ccuhJpPE.s 			page 2


  15:.\ring_buffer.c **** #include "global.h"
  16:.\ring_buffer.c **** #include "types.h"
  17:.\ring_buffer.c **** #include "ring_buffer.h"
  18:.\ring_buffer.c **** #include <stdio.h>
  19:.\ring_buffer.c ****  
  20:.\ring_buffer.c **** 
  21:.\ring_buffer.c **** static RING_BUFFER RingBuffer[RBF_NUM];
  22:.\ring_buffer.c ****  
  23:.\ring_buffer.c **** /* ----------------------------------------------------------------- */
  24:.\ring_buffer.c **** /* --------------------- STATIC FUNCTIONS -------------------------- */ 
  25:.\ring_buffer.c **** /* ----------------------------------------------------------------- */
  26:.\ring_buffer.c **** static uint8_t IncHead(uint8_t ucIdx);
  27:.\ring_buffer.c **** static uint8_t DecHead(uint8_t ucIdx);
  28:.\ring_buffer.c **** static uint8_t IncTail(uint8_t ucIdx);
  29:.\ring_buffer.c **** //static uint8_t DecTail(uint8_t ucIdx);
  30:.\ring_buffer.c **** 
  31:.\ring_buffer.c **** /* ----------------------------------------------------------------- */
  32:.\ring_buffer.c **** /* --------------------- GLOBAL FUNCTIONS -------------------------- */
  33:.\ring_buffer.c **** /* ----------------------------------------------------------------- */
  34:.\ring_buffer.c **** /*****************************************************************/
  35:.\ring_buffer.c **** STATUS RBF_ucInit(void)
  36:.\ring_buffer.c **** {
  36              		.loc 1 36 0
  37              		.cfi_startproc
  38              		@ args = 0, pretend = 0, frame = 0
  39              		@ frame_needed = 1, uses_anonymous_args = 0
  40 0000 80B5     		push	{r7, lr}
  41              	.LCFI0:
  42              		.cfi_def_cfa_offset 8
  43 0002 00AF     		add	r7, sp, #0
  44              		.cfi_offset 14, -4
  45              		.cfi_offset 7, -8
  46              	.LCFI1:
  47              		.cfi_def_cfa_register 7
  37:.\ring_buffer.c ****     static int stest = sizeof(RingBuffer);
  38:.\ring_buffer.c ****     (void)stest;
  39:.\ring_buffer.c ****      
  40:.\ring_buffer.c ****     memset(RingBuffer, 0x00, sizeof(RingBuffer));
  48              		.loc 1 40 0
  49 0004 40F20000 		movw	r0, #:lower16:RingBuffer
  50 0008 C0F20000 		movt	r0, #:upper16:RingBuffer
  51 000c 4FF00001 		mov	r1, #0
  52 0010 4FF02802 		mov	r2, #40
  53 0014 FFF7FEFF 		bl	memset
  41:.\ring_buffer.c ****     
  42:.\ring_buffer.c ****     return SUCCESS;
  54              		.loc 1 42 0
  55 0018 4FF00003 		mov	r3, #0
  43:.\ring_buffer.c **** } 
  56              		.loc 1 43 0
  57 001c 1846     		mov	r0, r3
  58 001e 80BD     		pop	{r7, pc}
  59              		.cfi_endproc
  60              	.LFE29:
  61              		.size	RBF_ucInit, .-RBF_ucInit
  62              		.section	.text.RBF_ucClearBuffer,"ax",%progbits
  63              		.align	2
ARM GAS  C:\Users\Martin\AppData\Local\Temp\ccuhJpPE.s 			page 3


  64              		.global	RBF_ucClearBuffer
  65              		.thumb
  66              		.thumb_func
  67              		.type	RBF_ucClearBuffer, %function
  68              	RBF_ucClearBuffer:
  69              	.LFB30:
  44:.\ring_buffer.c **** 
  45:.\ring_buffer.c **** /*****************************************************************/
  46:.\ring_buffer.c **** uint8_t RBF_ucClearBuffer(uint8_t ucIndex)
  47:.\ring_buffer.c **** {
  70              		.loc 1 47 0
  71              		.cfi_startproc
  72              		@ args = 0, pretend = 0, frame = 16
  73              		@ frame_needed = 1, uses_anonymous_args = 0
  74 0000 80B5     		push	{r7, lr}
  75              	.LCFI2:
  76              		.cfi_def_cfa_offset 8
  77 0002 84B0     		sub	sp, sp, #16
  78              	.LCFI3:
  79              		.cfi_def_cfa_offset 24
  80 0004 00AF     		add	r7, sp, #0
  81              		.cfi_offset 14, -4
  82              		.cfi_offset 7, -8
  83              	.LCFI4:
  84              		.cfi_def_cfa_register 7
  85 0006 0346     		mov	r3, r0
  86 0008 FB71     		strb	r3, [r7, #7]
  48:.\ring_buffer.c **** 	STATUS status;
  49:.\ring_buffer.c **** 
  50:.\ring_buffer.c ****     if ((RingBuffer[ucIndex].address != NULLPTR) && (RingBuffer[ucIndex].size > 1))
  87              		.loc 1 50 0
  88 000a F979     		ldrb	r1, [r7, #7]	@ zero_extendqisi2
  89 000c 40F20002 		movw	r2, #:lower16:RingBuffer
  90 0010 C0F20002 		movt	r2, #:upper16:RingBuffer
  91 0014 0B46     		mov	r3, r1
  92 0016 4FEA8303 		lsl	r3, r3, #2
  93 001a 0B44     		add	r3, r3, r1
  94 001c 4FEA8303 		lsl	r3, r3, #2
  95 0020 1344     		add	r3, r3, r2
  96 0022 03F10403 		add	r3, r3, #4
  97 0026 1B68     		ldr	r3, [r3, #0]
  98 0028 002B     		cmp	r3, #0
  99 002a 7BD0     		beq	.L4
 100 002c F979     		ldrb	r1, [r7, #7]	@ zero_extendqisi2
 101 002e 40F20002 		movw	r2, #:lower16:RingBuffer
 102 0032 C0F20002 		movt	r2, #:upper16:RingBuffer
 103 0036 0B46     		mov	r3, r1
 104 0038 4FEA8303 		lsl	r3, r3, #2
 105 003c 0B44     		add	r3, r3, r1
 106 003e 4FEA8303 		lsl	r3, r3, #2
 107 0042 1344     		add	r3, r3, r2
 108 0044 03F10803 		add	r3, r3, #8
 109 0048 1B88     		ldrh	r3, [r3, #0]
 110 004a 012B     		cmp	r3, #1
 111 004c 6AD9     		bls	.L4
  51:.\ring_buffer.c **** 	{		
  52:.\ring_buffer.c **** 		memset(RingBuffer[ucIndex].address, 0x00, RingBuffer[ucIndex].size);
ARM GAS  C:\Users\Martin\AppData\Local\Temp\ccuhJpPE.s 			page 4


 112              		.loc 1 52 0
 113 004e F979     		ldrb	r1, [r7, #7]	@ zero_extendqisi2
 114 0050 40F20002 		movw	r2, #:lower16:RingBuffer
 115 0054 C0F20002 		movt	r2, #:upper16:RingBuffer
 116 0058 0B46     		mov	r3, r1
 117 005a 4FEA8303 		lsl	r3, r3, #2
 118 005e 0B44     		add	r3, r3, r1
 119 0060 4FEA8303 		lsl	r3, r3, #2
 120 0064 1344     		add	r3, r3, r2
 121 0066 03F10403 		add	r3, r3, #4
 122 006a 1868     		ldr	r0, [r3, #0]
 123 006c F979     		ldrb	r1, [r7, #7]	@ zero_extendqisi2
 124 006e 40F20002 		movw	r2, #:lower16:RingBuffer
 125 0072 C0F20002 		movt	r2, #:upper16:RingBuffer
 126 0076 0B46     		mov	r3, r1
 127 0078 4FEA8303 		lsl	r3, r3, #2
 128 007c 0B44     		add	r3, r3, r1
 129 007e 4FEA8303 		lsl	r3, r3, #2
 130 0082 1344     		add	r3, r3, r2
 131 0084 03F10803 		add	r3, r3, #8
 132 0088 1B88     		ldrh	r3, [r3, #0]
 133 008a 4FF00001 		mov	r1, #0
 134 008e 1A46     		mov	r2, r3
 135 0090 FFF7FEFF 		bl	memset
  53:.\ring_buffer.c **** 		RingBuffer[ucIndex].head = 0;
 136              		.loc 1 53 0
 137 0094 F979     		ldrb	r1, [r7, #7]	@ zero_extendqisi2
 138 0096 40F20002 		movw	r2, #:lower16:RingBuffer
 139 009a C0F20002 		movt	r2, #:upper16:RingBuffer
 140 009e 0B46     		mov	r3, r1
 141 00a0 4FEA8303 		lsl	r3, r3, #2
 142 00a4 0B44     		add	r3, r3, r1
 143 00a6 4FEA8303 		lsl	r3, r3, #2
 144 00aa 1344     		add	r3, r3, r2
 145 00ac 03F10803 		add	r3, r3, #8
 146 00b0 4FF00002 		mov	r2, #0
 147 00b4 5A80     		strh	r2, [r3, #2]	@ movhi
  54:.\ring_buffer.c **** 		RingBuffer[ucIndex].tail = 0;
 148              		.loc 1 54 0
 149 00b6 F979     		ldrb	r1, [r7, #7]	@ zero_extendqisi2
 150 00b8 40F20002 		movw	r2, #:lower16:RingBuffer
 151 00bc C0F20002 		movt	r2, #:upper16:RingBuffer
 152 00c0 0B46     		mov	r3, r1
 153 00c2 4FEA8303 		lsl	r3, r3, #2
 154 00c6 0B44     		add	r3, r3, r1
 155 00c8 4FEA8303 		lsl	r3, r3, #2
 156 00cc 1344     		add	r3, r3, r2
 157 00ce 03F10803 		add	r3, r3, #8
 158 00d2 4FF00002 		mov	r2, #0
 159 00d6 9A80     		strh	r2, [r3, #4]	@ movhi
  55:.\ring_buffer.c ****         RingBuffer[ucIndex].zb = 0;
 160              		.loc 1 55 0
 161 00d8 F979     		ldrb	r1, [r7, #7]	@ zero_extendqisi2
 162 00da 40F20002 		movw	r2, #:lower16:RingBuffer
 163 00de C0F20002 		movt	r2, #:upper16:RingBuffer
 164 00e2 0B46     		mov	r3, r1
 165 00e4 4FEA8303 		lsl	r3, r3, #2
ARM GAS  C:\Users\Martin\AppData\Local\Temp\ccuhJpPE.s 			page 5


 166 00e8 0B44     		add	r3, r3, r1
 167 00ea 4FEA8303 		lsl	r3, r3, #2
 168 00ee 1344     		add	r3, r3, r2
 169 00f0 03F10803 		add	r3, r3, #8
 170 00f4 4FF00002 		mov	r2, #0
 171 00f8 9A71     		strb	r2, [r3, #6]
  56:.\ring_buffer.c **** 		RingBuffer[ucIndex].msgcount = 0;
 172              		.loc 1 56 0
 173 00fa F979     		ldrb	r1, [r7, #7]	@ zero_extendqisi2
 174 00fc 40F20002 		movw	r2, #:lower16:RingBuffer
 175 0100 C0F20002 		movt	r2, #:upper16:RingBuffer
 176 0104 0B46     		mov	r3, r1
 177 0106 4FEA8303 		lsl	r3, r3, #2
 178 010a 0B44     		add	r3, r3, r1
 179 010c 4FEA8303 		lsl	r3, r3, #2
 180 0110 1344     		add	r3, r3, r2
 181 0112 03F11003 		add	r3, r3, #16
 182 0116 4FF00002 		mov	r2, #0
 183 011a 1A80     		strh	r2, [r3, #0]	@ movhi
  57:.\ring_buffer.c **** 		
  58:.\ring_buffer.c **** 		status = RBF_SUCCESS;
 184              		.loc 1 58 0
 185 011c 4FF00003 		mov	r3, #0
 186 0120 FB73     		strb	r3, [r7, #15]
 187              		.loc 1 50 0
 188 0122 02E0     		b	.L5
 189              	.L4:
  59:.\ring_buffer.c **** 	}
  60:.\ring_buffer.c **** 	else
  61:.\ring_buffer.c ****     {
  62:.\ring_buffer.c ****         status = RBF_INVALID_PARAMETERS;
 190              		.loc 1 62 0
 191 0124 6FF00103 		mvn	r3, #1
 192 0128 FB73     		strb	r3, [r7, #15]
 193              	.L5:
  63:.\ring_buffer.c ****     }
  64:.\ring_buffer.c **** 	
  65:.\ring_buffer.c **** 	return status;
 194              		.loc 1 65 0
 195 012a FB7B     		ldrb	r3, [r7, #15]	@ zero_extendqisi2
  66:.\ring_buffer.c **** } 
 196              		.loc 1 66 0
 197 012c 1846     		mov	r0, r3
 198 012e 07F11007 		add	r7, r7, #16
 199 0132 BD46     		mov	sp, r7
 200 0134 80BD     		pop	{r7, pc}
 201              		.cfi_endproc
 202              	.LFE30:
 203              		.size	RBF_ucClearBuffer, .-RBF_ucClearBuffer
 204 0136 00BF     		.section	.text.RBF_ucRegisterBuffer,"ax",%progbits
 205              		.align	2
 206              		.global	RBF_ucRegisterBuffer
 207              		.thumb
 208              		.thumb_func
 209              		.type	RBF_ucRegisterBuffer, %function
 210              	RBF_ucRegisterBuffer:
 211              	.LFB31:
ARM GAS  C:\Users\Martin\AppData\Local\Temp\ccuhJpPE.s 			page 6


  67:.\ring_buffer.c **** /*****************************************************************/
  68:.\ring_buffer.c **** uint8_t RBF_ucRegisterBuffer(uint8_t* pucAddr, uint16_t uiSize)
  69:.\ring_buffer.c **** {
 212              		.loc 1 69 0
 213              		.cfi_startproc
 214              		@ args = 0, pretend = 0, frame = 16
 215              		@ frame_needed = 1, uses_anonymous_args = 0
 216 0000 80B5     		push	{r7, lr}
 217              	.LCFI5:
 218              		.cfi_def_cfa_offset 8
 219 0002 84B0     		sub	sp, sp, #16
 220              	.LCFI6:
 221              		.cfi_def_cfa_offset 24
 222 0004 00AF     		add	r7, sp, #0
 223              		.cfi_offset 14, -4
 224              		.cfi_offset 7, -8
 225              	.LCFI7:
 226              		.cfi_def_cfa_register 7
 227 0006 7860     		str	r0, [r7, #4]
 228 0008 0B46     		mov	r3, r1
 229 000a 7B80     		strh	r3, [r7, #2]	@ movhi
  70:.\ring_buffer.c ****     uint8_t ucIndex = 0;
 230              		.loc 1 70 0
 231 000c 4FF00003 		mov	r3, #0
 232 0010 FB73     		strb	r3, [r7, #15]
  71:.\ring_buffer.c ****     
  72:.\ring_buffer.c ****     if ((pucAddr != NULLPTR) && (uiSize > 1))
 233              		.loc 1 72 0
 234 0012 7B68     		ldr	r3, [r7, #4]
 235 0014 002B     		cmp	r3, #0
 236 0016 00F0AE80 		beq	.L8
 237 001a 7B88     		ldrh	r3, [r7, #2]
 238 001c 012B     		cmp	r3, #1
 239 001e 40F2AA80 		bls	.L8
  73:.\ring_buffer.c ****     {
  74:.\ring_buffer.c ****         while (ucIndex < RBF_NUM)
 240              		.loc 1 74 0
 241 0022 9DE0     		b	.L9
 242              	.L12:
  75:.\ring_buffer.c ****         {
  76:.\ring_buffer.c ****             if (RingBuffer[ucIndex].address == 0)
 243              		.loc 1 76 0
 244 0024 F97B     		ldrb	r1, [r7, #15]	@ zero_extendqisi2
 245 0026 40F20002 		movw	r2, #:lower16:RingBuffer
 246 002a C0F20002 		movt	r2, #:upper16:RingBuffer
 247 002e 0B46     		mov	r3, r1
 248 0030 4FEA8303 		lsl	r3, r3, #2
 249 0034 0B44     		add	r3, r3, r1
 250 0036 4FEA8303 		lsl	r3, r3, #2
 251 003a 1344     		add	r3, r3, r2
 252 003c 03F10403 		add	r3, r3, #4
 253 0040 1B68     		ldr	r3, [r3, #0]
 254 0042 002B     		cmp	r3, #0
 255 0044 40F08880 		bne	.L10
  77:.\ring_buffer.c ****             {
  78:.\ring_buffer.c ****                 RingBuffer[ucIndex].address = pucAddr;
 256              		.loc 1 78 0
ARM GAS  C:\Users\Martin\AppData\Local\Temp\ccuhJpPE.s 			page 7


 257 0048 F97B     		ldrb	r1, [r7, #15]	@ zero_extendqisi2
 258 004a 40F20002 		movw	r2, #:lower16:RingBuffer
 259 004e C0F20002 		movt	r2, #:upper16:RingBuffer
 260 0052 0B46     		mov	r3, r1
 261 0054 4FEA8303 		lsl	r3, r3, #2
 262 0058 0B44     		add	r3, r3, r1
 263 005a 4FEA8303 		lsl	r3, r3, #2
 264 005e 1344     		add	r3, r3, r2
 265 0060 03F10403 		add	r3, r3, #4
 266 0064 7A68     		ldr	r2, [r7, #4]
 267 0066 1A60     		str	r2, [r3, #0]
  79:.\ring_buffer.c ****                 RingBuffer[ucIndex].size = uiSize;
 268              		.loc 1 79 0
 269 0068 F97B     		ldrb	r1, [r7, #15]	@ zero_extendqisi2
 270 006a 40F20002 		movw	r2, #:lower16:RingBuffer
 271 006e C0F20002 		movt	r2, #:upper16:RingBuffer
 272 0072 0B46     		mov	r3, r1
 273 0074 4FEA8303 		lsl	r3, r3, #2
 274 0078 0B44     		add	r3, r3, r1
 275 007a 4FEA8303 		lsl	r3, r3, #2
 276 007e 1344     		add	r3, r3, r2
 277 0080 03F10803 		add	r3, r3, #8
 278 0084 7A88     		ldrh	r2, [r7, #2]	@ movhi
 279 0086 1A80     		strh	r2, [r3, #0]	@ movhi
  80:.\ring_buffer.c ****                 RingBuffer[ucIndex].head = 0;
 280              		.loc 1 80 0
 281 0088 F97B     		ldrb	r1, [r7, #15]	@ zero_extendqisi2
 282 008a 40F20002 		movw	r2, #:lower16:RingBuffer
 283 008e C0F20002 		movt	r2, #:upper16:RingBuffer
 284 0092 0B46     		mov	r3, r1
 285 0094 4FEA8303 		lsl	r3, r3, #2
 286 0098 0B44     		add	r3, r3, r1
 287 009a 4FEA8303 		lsl	r3, r3, #2
 288 009e 1344     		add	r3, r3, r2
 289 00a0 03F10803 		add	r3, r3, #8
 290 00a4 4FF00002 		mov	r2, #0
 291 00a8 5A80     		strh	r2, [r3, #2]	@ movhi
  81:.\ring_buffer.c ****                 RingBuffer[ucIndex].tail = 0;
 292              		.loc 1 81 0
 293 00aa F97B     		ldrb	r1, [r7, #15]	@ zero_extendqisi2
 294 00ac 40F20002 		movw	r2, #:lower16:RingBuffer
 295 00b0 C0F20002 		movt	r2, #:upper16:RingBuffer
 296 00b4 0B46     		mov	r3, r1
 297 00b6 4FEA8303 		lsl	r3, r3, #2
 298 00ba 0B44     		add	r3, r3, r1
 299 00bc 4FEA8303 		lsl	r3, r3, #2
 300 00c0 1344     		add	r3, r3, r2
 301 00c2 03F10803 		add	r3, r3, #8
 302 00c6 4FF00002 		mov	r2, #0
 303 00ca 9A80     		strh	r2, [r3, #4]	@ movhi
  82:.\ring_buffer.c ****                 RingBuffer[ucIndex].zb = 0;
 304              		.loc 1 82 0
 305 00cc F97B     		ldrb	r1, [r7, #15]	@ zero_extendqisi2
 306 00ce 40F20002 		movw	r2, #:lower16:RingBuffer
 307 00d2 C0F20002 		movt	r2, #:upper16:RingBuffer
 308 00d6 0B46     		mov	r3, r1
 309 00d8 4FEA8303 		lsl	r3, r3, #2
ARM GAS  C:\Users\Martin\AppData\Local\Temp\ccuhJpPE.s 			page 8


 310 00dc 0B44     		add	r3, r3, r1
 311 00de 4FEA8303 		lsl	r3, r3, #2
 312 00e2 1344     		add	r3, r3, r2
 313 00e4 03F10803 		add	r3, r3, #8
 314 00e8 4FF00002 		mov	r2, #0
 315 00ec 9A71     		strb	r2, [r3, #6]
  83:.\ring_buffer.c **** 				RingBuffer[ucIndex].msgcount = 0;
 316              		.loc 1 83 0
 317 00ee F97B     		ldrb	r1, [r7, #15]	@ zero_extendqisi2
 318 00f0 40F20002 		movw	r2, #:lower16:RingBuffer
 319 00f4 C0F20002 		movt	r2, #:upper16:RingBuffer
 320 00f8 0B46     		mov	r3, r1
 321 00fa 4FEA8303 		lsl	r3, r3, #2
 322 00fe 0B44     		add	r3, r3, r1
 323 0100 4FEA8303 		lsl	r3, r3, #2
 324 0104 1344     		add	r3, r3, r2
 325 0106 03F11003 		add	r3, r3, #16
 326 010a 4FF00002 		mov	r2, #0
 327 010e 1A80     		strh	r2, [r3, #0]	@ movhi
  84:.\ring_buffer.c ****                 
  85:.\ring_buffer.c ****                 memset(RingBuffer[ucIndex].address, 0x00, RingBuffer[ucIndex].size);
 328              		.loc 1 85 0
 329 0110 F97B     		ldrb	r1, [r7, #15]	@ zero_extendqisi2
 330 0112 40F20002 		movw	r2, #:lower16:RingBuffer
 331 0116 C0F20002 		movt	r2, #:upper16:RingBuffer
 332 011a 0B46     		mov	r3, r1
 333 011c 4FEA8303 		lsl	r3, r3, #2
 334 0120 0B44     		add	r3, r3, r1
 335 0122 4FEA8303 		lsl	r3, r3, #2
 336 0126 1344     		add	r3, r3, r2
 337 0128 03F10403 		add	r3, r3, #4
 338 012c 1868     		ldr	r0, [r3, #0]
 339 012e F97B     		ldrb	r1, [r7, #15]	@ zero_extendqisi2
 340 0130 40F20002 		movw	r2, #:lower16:RingBuffer
 341 0134 C0F20002 		movt	r2, #:upper16:RingBuffer
 342 0138 0B46     		mov	r3, r1
 343 013a 4FEA8303 		lsl	r3, r3, #2
 344 013e 0B44     		add	r3, r3, r1
 345 0140 4FEA8303 		lsl	r3, r3, #2
 346 0144 1344     		add	r3, r3, r2
 347 0146 03F10803 		add	r3, r3, #8
 348 014a 1B88     		ldrh	r3, [r3, #0]
 349 014c 4FF00001 		mov	r1, #0
 350 0150 1A46     		mov	r2, r3
 351 0152 FFF7FEFF 		bl	memset
  86:.\ring_buffer.c ****                 
  87:.\ring_buffer.c ****                 break;
 352              		.loc 1 87 0
 353 0156 07E0     		b	.L11
 354              	.L10:
  88:.\ring_buffer.c ****             }
  89:.\ring_buffer.c ****             else
  90:.\ring_buffer.c ****             {
  91:.\ring_buffer.c ****                 ucIndex++;
 355              		.loc 1 91 0
 356 0158 FB7B     		ldrb	r3, [r7, #15]
 357 015a 03F10103 		add	r3, r3, #1
ARM GAS  C:\Users\Martin\AppData\Local\Temp\ccuhJpPE.s 			page 9


 358 015e FB73     		strb	r3, [r7, #15]
 359              	.L9:
 360              		.loc 1 74 0
 361 0160 FB7B     		ldrb	r3, [r7, #15]	@ zero_extendqisi2
 362 0162 012B     		cmp	r3, #1
 363 0164 7FF65EAF 		bls	.L12
 364              	.L11:
  92:.\ring_buffer.c ****             }
  93:.\ring_buffer.c ****         }
  94:.\ring_buffer.c ****         
  95:.\ring_buffer.c ****         if (ucIndex == RBF_NUM)
 365              		.loc 1 95 0
 366 0168 FB7B     		ldrb	r3, [r7, #15]	@ zero_extendqisi2
 367 016a 022B     		cmp	r3, #2
 368 016c 07D1     		bne	.L16
  96:.\ring_buffer.c ****             ucIndex = RBF_NOT_AVAILABLE;
 369              		.loc 1 96 0
 370 016e 6FF00203 		mvn	r3, #2
 371 0172 FB73     		strb	r3, [r7, #15]
 372              		.loc 1 72 0
 373 0174 04E0     		b	.L14
 374              	.L8:
  97:.\ring_buffer.c ****     }
  98:.\ring_buffer.c ****     else
  99:.\ring_buffer.c ****     {
 100:.\ring_buffer.c ****         ucIndex = RBF_INVALID_PARAMETERS;
 375              		.loc 1 100 0
 376 0176 6FF00103 		mvn	r3, #1
 377 017a FB73     		strb	r3, [r7, #15]
 378 017c 00E0     		b	.L14
 379              	.L16:
 380              		.loc 1 72 0
 381 017e 00BF     		nop
 382              	.L14:
 101:.\ring_buffer.c ****     }
 102:.\ring_buffer.c ****     
 103:.\ring_buffer.c ****     
 104:.\ring_buffer.c ****     return ucIndex;
 383              		.loc 1 104 0
 384 0180 FB7B     		ldrb	r3, [r7, #15]	@ zero_extendqisi2
 105:.\ring_buffer.c **** }
 385              		.loc 1 105 0
 386 0182 1846     		mov	r0, r3
 387 0184 07F11007 		add	r7, r7, #16
 388 0188 BD46     		mov	sp, r7
 389 018a 80BD     		pop	{r7, pc}
 390              		.cfi_endproc
 391              	.LFE31:
 392              		.size	RBF_ucRegisterBuffer, .-RBF_ucRegisterBuffer
 393              		.section	.text.RBF_ucUnregisterBuffer,"ax",%progbits
 394              		.align	2
 395              		.global	RBF_ucUnregisterBuffer
 396              		.thumb
 397              		.thumb_func
 398              		.type	RBF_ucUnregisterBuffer, %function
 399              	RBF_ucUnregisterBuffer:
 400              	.LFB32:
ARM GAS  C:\Users\Martin\AppData\Local\Temp\ccuhJpPE.s 			page 10


 106:.\ring_buffer.c **** 
 107:.\ring_buffer.c **** /*****************************************************************/
 108:.\ring_buffer.c **** uint8_t RBF_ucUnregisterBuffer(uint8_t ucIndex)
 109:.\ring_buffer.c **** {
 401              		.loc 1 109 0
 402              		.cfi_startproc
 403              		@ args = 0, pretend = 0, frame = 16
 404              		@ frame_needed = 1, uses_anonymous_args = 0
 405 0000 80B5     		push	{r7, lr}
 406              	.LCFI8:
 407              		.cfi_def_cfa_offset 8
 408 0002 84B0     		sub	sp, sp, #16
 409              	.LCFI9:
 410              		.cfi_def_cfa_offset 24
 411 0004 00AF     		add	r7, sp, #0
 412              		.cfi_offset 14, -4
 413              		.cfi_offset 7, -8
 414              	.LCFI10:
 415              		.cfi_def_cfa_register 7
 416 0006 0346     		mov	r3, r0
 417 0008 FB71     		strb	r3, [r7, #7]
 110:.\ring_buffer.c ****     STATUS status;
 111:.\ring_buffer.c ****     
 112:.\ring_buffer.c ****     if (RingBuffer[ucIndex].address)
 418              		.loc 1 112 0
 419 000a F979     		ldrb	r1, [r7, #7]	@ zero_extendqisi2
 420 000c 40F20002 		movw	r2, #:lower16:RingBuffer
 421 0010 C0F20002 		movt	r2, #:upper16:RingBuffer
 422 0014 0B46     		mov	r3, r1
 423 0016 4FEA8303 		lsl	r3, r3, #2
 424 001a 0B44     		add	r3, r3, r1
 425 001c 4FEA8303 		lsl	r3, r3, #2
 426 0020 1344     		add	r3, r3, r2
 427 0022 03F10403 		add	r3, r3, #4
 428 0026 1B68     		ldr	r3, [r3, #0]
 429 0028 002B     		cmp	r3, #0
 430 002a 00F08D80 		beq	.L18
 113:.\ring_buffer.c ****     {
 114:.\ring_buffer.c ****         RingBuffer[ucIndex].address = 0;
 431              		.loc 1 114 0
 432 002e F979     		ldrb	r1, [r7, #7]	@ zero_extendqisi2
 433 0030 40F20002 		movw	r2, #:lower16:RingBuffer
 434 0034 C0F20002 		movt	r2, #:upper16:RingBuffer
 435 0038 0B46     		mov	r3, r1
 436 003a 4FEA8303 		lsl	r3, r3, #2
 437 003e 0B44     		add	r3, r3, r1
 438 0040 4FEA8303 		lsl	r3, r3, #2
 439 0044 1344     		add	r3, r3, r2
 440 0046 03F10403 		add	r3, r3, #4
 441 004a 4FF00002 		mov	r2, #0
 442 004e 1A60     		str	r2, [r3, #0]
 115:.\ring_buffer.c ****         RingBuffer[ucIndex].size = 0;
 443              		.loc 1 115 0
 444 0050 F979     		ldrb	r1, [r7, #7]	@ zero_extendqisi2
 445 0052 40F20002 		movw	r2, #:lower16:RingBuffer
 446 0056 C0F20002 		movt	r2, #:upper16:RingBuffer
 447 005a 0B46     		mov	r3, r1
ARM GAS  C:\Users\Martin\AppData\Local\Temp\ccuhJpPE.s 			page 11


 448 005c 4FEA8303 		lsl	r3, r3, #2
 449 0060 0B44     		add	r3, r3, r1
 450 0062 4FEA8303 		lsl	r3, r3, #2
 451 0066 1344     		add	r3, r3, r2
 452 0068 03F10803 		add	r3, r3, #8
 453 006c 4FF00002 		mov	r2, #0
 454 0070 1A80     		strh	r2, [r3, #0]	@ movhi
 116:.\ring_buffer.c ****         RingBuffer[ucIndex].head = 0;
 455              		.loc 1 116 0
 456 0072 F979     		ldrb	r1, [r7, #7]	@ zero_extendqisi2
 457 0074 40F20002 		movw	r2, #:lower16:RingBuffer
 458 0078 C0F20002 		movt	r2, #:upper16:RingBuffer
 459 007c 0B46     		mov	r3, r1
 460 007e 4FEA8303 		lsl	r3, r3, #2
 461 0082 0B44     		add	r3, r3, r1
 462 0084 4FEA8303 		lsl	r3, r3, #2
 463 0088 1344     		add	r3, r3, r2
 464 008a 03F10803 		add	r3, r3, #8
 465 008e 4FF00002 		mov	r2, #0
 466 0092 5A80     		strh	r2, [r3, #2]	@ movhi
 117:.\ring_buffer.c ****         RingBuffer[ucIndex].tail = 0;
 467              		.loc 1 117 0
 468 0094 F979     		ldrb	r1, [r7, #7]	@ zero_extendqisi2
 469 0096 40F20002 		movw	r2, #:lower16:RingBuffer
 470 009a C0F20002 		movt	r2, #:upper16:RingBuffer
 471 009e 0B46     		mov	r3, r1
 472 00a0 4FEA8303 		lsl	r3, r3, #2
 473 00a4 0B44     		add	r3, r3, r1
 474 00a6 4FEA8303 		lsl	r3, r3, #2
 475 00aa 1344     		add	r3, r3, r2
 476 00ac 03F10803 		add	r3, r3, #8
 477 00b0 4FF00002 		mov	r2, #0
 478 00b4 9A80     		strh	r2, [r3, #4]	@ movhi
 118:.\ring_buffer.c ****         RingBuffer[ucIndex].zb = 0;
 479              		.loc 1 118 0
 480 00b6 F979     		ldrb	r1, [r7, #7]	@ zero_extendqisi2
 481 00b8 40F20002 		movw	r2, #:lower16:RingBuffer
 482 00bc C0F20002 		movt	r2, #:upper16:RingBuffer
 483 00c0 0B46     		mov	r3, r1
 484 00c2 4FEA8303 		lsl	r3, r3, #2
 485 00c6 0B44     		add	r3, r3, r1
 486 00c8 4FEA8303 		lsl	r3, r3, #2
 487 00cc 1344     		add	r3, r3, r2
 488 00ce 03F10803 		add	r3, r3, #8
 489 00d2 4FF00002 		mov	r2, #0
 490 00d6 9A71     		strb	r2, [r3, #6]
 119:.\ring_buffer.c **** 		RingBuffer[ucIndex].msgcount = 0;
 491              		.loc 1 119 0
 492 00d8 F979     		ldrb	r1, [r7, #7]	@ zero_extendqisi2
 493 00da 40F20002 		movw	r2, #:lower16:RingBuffer
 494 00de C0F20002 		movt	r2, #:upper16:RingBuffer
 495 00e2 0B46     		mov	r3, r1
 496 00e4 4FEA8303 		lsl	r3, r3, #2
 497 00e8 0B44     		add	r3, r3, r1
 498 00ea 4FEA8303 		lsl	r3, r3, #2
 499 00ee 1344     		add	r3, r3, r2
 500 00f0 03F11003 		add	r3, r3, #16
ARM GAS  C:\Users\Martin\AppData\Local\Temp\ccuhJpPE.s 			page 12


 501 00f4 4FF00002 		mov	r2, #0
 502 00f8 1A80     		strh	r2, [r3, #0]	@ movhi
 120:.\ring_buffer.c ****         
 121:.\ring_buffer.c ****         memset(RingBuffer[ucIndex].address, 0x00, RingBuffer[ucIndex].size);
 503              		.loc 1 121 0
 504 00fa F979     		ldrb	r1, [r7, #7]	@ zero_extendqisi2
 505 00fc 40F20002 		movw	r2, #:lower16:RingBuffer
 506 0100 C0F20002 		movt	r2, #:upper16:RingBuffer
 507 0104 0B46     		mov	r3, r1
 508 0106 4FEA8303 		lsl	r3, r3, #2
 509 010a 0B44     		add	r3, r3, r1
 510 010c 4FEA8303 		lsl	r3, r3, #2
 511 0110 1344     		add	r3, r3, r2
 512 0112 03F10403 		add	r3, r3, #4
 513 0116 1868     		ldr	r0, [r3, #0]
 514 0118 F979     		ldrb	r1, [r7, #7]	@ zero_extendqisi2
 515 011a 40F20002 		movw	r2, #:lower16:RingBuffer
 516 011e C0F20002 		movt	r2, #:upper16:RingBuffer
 517 0122 0B46     		mov	r3, r1
 518 0124 4FEA8303 		lsl	r3, r3, #2
 519 0128 0B44     		add	r3, r3, r1
 520 012a 4FEA8303 		lsl	r3, r3, #2
 521 012e 1344     		add	r3, r3, r2
 522 0130 03F10803 		add	r3, r3, #8
 523 0134 1B88     		ldrh	r3, [r3, #0]
 524 0136 4FF00001 		mov	r1, #0
 525 013a 1A46     		mov	r2, r3
 526 013c FFF7FEFF 		bl	memset
 122:.\ring_buffer.c ****         
 123:.\ring_buffer.c ****         status = RBF_SUCCESS;
 527              		.loc 1 123 0
 528 0140 4FF00003 		mov	r3, #0
 529 0144 FB73     		strb	r3, [r7, #15]
 530 0146 02E0     		b	.L19
 531              	.L18:
 124:.\ring_buffer.c ****     }
 125:.\ring_buffer.c ****     else
 126:.\ring_buffer.c ****     {
 127:.\ring_buffer.c ****         status = RBF_FAIL;
 532              		.loc 1 127 0
 533 0148 4FF00103 		mov	r3, #1
 534 014c FB73     		strb	r3, [r7, #15]
 535              	.L19:
 128:.\ring_buffer.c ****     }
 129:.\ring_buffer.c ****     
 130:.\ring_buffer.c ****     return status;
 536              		.loc 1 130 0
 537 014e FB7B     		ldrb	r3, [r7, #15]	@ zero_extendqisi2
 131:.\ring_buffer.c **** }
 538              		.loc 1 131 0
 539 0150 1846     		mov	r0, r3
 540 0152 07F11007 		add	r7, r7, #16
 541 0156 BD46     		mov	sp, r7
 542 0158 80BD     		pop	{r7, pc}
 543              		.cfi_endproc
 544              	.LFE32:
 545              		.size	RBF_ucUnregisterBuffer, .-RBF_ucUnregisterBuffer
ARM GAS  C:\Users\Martin\AppData\Local\Temp\ccuhJpPE.s 			page 13


 546 015a 00BF     		.section	.text.RBF_ucByteIn,"ax",%progbits
 547              		.align	2
 548              		.global	RBF_ucByteIn
 549              		.thumb
 550              		.thumb_func
 551              		.type	RBF_ucByteIn, %function
 552              	RBF_ucByteIn:
 553              	.LFB33:
 132:.\ring_buffer.c **** /*****************************************************************/
 133:.\ring_buffer.c **** uint8_t RBF_ucByteIn(uint8_t ucIndex, uint8_t byte)
 134:.\ring_buffer.c **** {
 554              		.loc 1 134 0
 555              		.cfi_startproc
 556              		@ args = 0, pretend = 0, frame = 16
 557              		@ frame_needed = 1, uses_anonymous_args = 0
 558 0000 80B5     		push	{r7, lr}
 559              	.LCFI11:
 560              		.cfi_def_cfa_offset 8
 561 0002 84B0     		sub	sp, sp, #16
 562              	.LCFI12:
 563              		.cfi_def_cfa_offset 24
 564 0004 00AF     		add	r7, sp, #0
 565              		.cfi_offset 14, -4
 566              		.cfi_offset 7, -8
 567              	.LCFI13:
 568              		.cfi_def_cfa_register 7
 569 0006 0246     		mov	r2, r0
 570 0008 0B46     		mov	r3, r1
 571 000a FA71     		strb	r2, [r7, #7]
 572 000c BB71     		strb	r3, [r7, #6]
 135:.\ring_buffer.c ****     STATUS status;
 136:.\ring_buffer.c **** 	
 137:.\ring_buffer.c ****     // is head == tail ?
 138:.\ring_buffer.c ****     if (RingBuffer[ucIndex].head == RingBuffer[ucIndex].tail)
 573              		.loc 1 138 0
 574 000e F979     		ldrb	r1, [r7, #7]	@ zero_extendqisi2
 575 0010 40F20002 		movw	r2, #:lower16:RingBuffer
 576 0014 C0F20002 		movt	r2, #:upper16:RingBuffer
 577 0018 0B46     		mov	r3, r1
 578 001a 4FEA8303 		lsl	r3, r3, #2
 579 001e 0B44     		add	r3, r3, r1
 580 0020 4FEA8303 		lsl	r3, r3, #2
 581 0024 1344     		add	r3, r3, r2
 582 0026 03F10803 		add	r3, r3, #8
 583 002a 5888     		ldrh	r0, [r3, #2]
 584 002c F979     		ldrb	r1, [r7, #7]	@ zero_extendqisi2
 585 002e 40F20002 		movw	r2, #:lower16:RingBuffer
 586 0032 C0F20002 		movt	r2, #:upper16:RingBuffer
 587 0036 0B46     		mov	r3, r1
 588 0038 4FEA8303 		lsl	r3, r3, #2
 589 003c 0B44     		add	r3, r3, r1
 590 003e 4FEA8303 		lsl	r3, r3, #2
 591 0042 1344     		add	r3, r3, r2
 592 0044 03F10803 		add	r3, r3, #8
 593 0048 9B88     		ldrh	r3, [r3, #4]
 594 004a 9842     		cmp	r0, r3
 595 004c 2CD1     		bne	.L22
ARM GAS  C:\Users\Martin\AppData\Local\Temp\ccuhJpPE.s 			page 14


 139:.\ring_buffer.c ****     {
 140:.\ring_buffer.c ****         // if head = tail, is zero byte empty?
 141:.\ring_buffer.c ****         if (RingBuffer[ucIndex].zb == 0)
 596              		.loc 1 141 0
 597 004e F979     		ldrb	r1, [r7, #7]	@ zero_extendqisi2
 598 0050 40F20002 		movw	r2, #:lower16:RingBuffer
 599 0054 C0F20002 		movt	r2, #:upper16:RingBuffer
 600 0058 0B46     		mov	r3, r1
 601 005a 4FEA8303 		lsl	r3, r3, #2
 602 005e 0B44     		add	r3, r3, r1
 603 0060 4FEA8303 		lsl	r3, r3, #2
 604 0064 1344     		add	r3, r3, r2
 605 0066 03F10803 		add	r3, r3, #8
 606 006a 9B79     		ldrb	r3, [r3, #6]	@ zero_extendqisi2
 607 006c 002B     		cmp	r3, #0
 608 006e 14D1     		bne	.L23
 142:.\ring_buffer.c ****         {
 143:.\ring_buffer.c ****             RingBuffer[ucIndex].zb = 1;
 609              		.loc 1 143 0
 610 0070 F979     		ldrb	r1, [r7, #7]	@ zero_extendqisi2
 611 0072 40F20002 		movw	r2, #:lower16:RingBuffer
 612 0076 C0F20002 		movt	r2, #:upper16:RingBuffer
 613 007a 0B46     		mov	r3, r1
 614 007c 4FEA8303 		lsl	r3, r3, #2
 615 0080 0B44     		add	r3, r3, r1
 616 0082 4FEA8303 		lsl	r3, r3, #2
 617 0086 1344     		add	r3, r3, r2
 618 0088 03F10803 		add	r3, r3, #8
 619 008c 4FF00102 		mov	r2, #1
 620 0090 9A71     		strb	r2, [r3, #6]
 144:.\ring_buffer.c ****             status = RBF_SUCCESS;
 621              		.loc 1 144 0
 622 0092 4FF00003 		mov	r3, #0
 623 0096 FB73     		strb	r3, [r7, #15]
 145:.\ring_buffer.c ****         }
 146:.\ring_buffer.c ****         else
 147:.\ring_buffer.c ****         {
 148:.\ring_buffer.c ****             status = IncHead(ucIndex);
 624              		.loc 1 148 0
 625 0098 0CE0     		b	.L25
 626              	.L23:
 627 009a FB79     		ldrb	r3, [r7, #7]	@ zero_extendqisi2
 628 009c 1846     		mov	r0, r3
 629 009e FFF7FEFF 		bl	IncHead
 630 00a2 0346     		mov	r3, r0
 631 00a4 FB73     		strb	r3, [r7, #15]
 632 00a6 05E0     		b	.L25
 633              	.L22:
 149:.\ring_buffer.c ****         }
 150:.\ring_buffer.c ****     }
 151:.\ring_buffer.c ****     else // is head != tail 
 152:.\ring_buffer.c ****     {
 153:.\ring_buffer.c ****         status = IncHead(ucIndex);
 634              		.loc 1 153 0
 635 00a8 FB79     		ldrb	r3, [r7, #7]	@ zero_extendqisi2
 636 00aa 1846     		mov	r0, r3
 637 00ac FFF7FEFF 		bl	IncHead
ARM GAS  C:\Users\Martin\AppData\Local\Temp\ccuhJpPE.s 			page 15


 638 00b0 0346     		mov	r3, r0
 639 00b2 FB73     		strb	r3, [r7, #15]
 640              	.L25:
 154:.\ring_buffer.c ****     }
 155:.\ring_buffer.c ****     
 156:.\ring_buffer.c ****     if (status == RBF_SUCCESS)
 641              		.loc 1 156 0
 642 00b4 FB7B     		ldrb	r3, [r7, #15]	@ zero_extendqisi2
 643 00b6 002B     		cmp	r3, #0
 644 00b8 20D1     		bne	.L26
 157:.\ring_buffer.c ****     {
 158:.\ring_buffer.c **** 		(RingBuffer[ucIndex].address)[RingBuffer[ucIndex].head] = byte;
 645              		.loc 1 158 0
 646 00ba F979     		ldrb	r1, [r7, #7]	@ zero_extendqisi2
 647 00bc 40F20002 		movw	r2, #:lower16:RingBuffer
 648 00c0 C0F20002 		movt	r2, #:upper16:RingBuffer
 649 00c4 0B46     		mov	r3, r1
 650 00c6 4FEA8303 		lsl	r3, r3, #2
 651 00ca 0B44     		add	r3, r3, r1
 652 00cc 4FEA8303 		lsl	r3, r3, #2
 653 00d0 1344     		add	r3, r3, r2
 654 00d2 03F10403 		add	r3, r3, #4
 655 00d6 1868     		ldr	r0, [r3, #0]
 656 00d8 F979     		ldrb	r1, [r7, #7]	@ zero_extendqisi2
 657 00da 40F20002 		movw	r2, #:lower16:RingBuffer
 658 00de C0F20002 		movt	r2, #:upper16:RingBuffer
 659 00e2 0B46     		mov	r3, r1
 660 00e4 4FEA8303 		lsl	r3, r3, #2
 661 00e8 0B44     		add	r3, r3, r1
 662 00ea 4FEA8303 		lsl	r3, r3, #2
 663 00ee 1344     		add	r3, r3, r2
 664 00f0 03F10803 		add	r3, r3, #8
 665 00f4 5B88     		ldrh	r3, [r3, #2]
 666 00f6 0344     		add	r3, r0, r3
 667 00f8 BA79     		ldrb	r2, [r7, #6]
 668 00fa 1A70     		strb	r2, [r3, #0]
 669              	.L26:
 159:.\ring_buffer.c **** 	}
 160:.\ring_buffer.c **** 	
 161:.\ring_buffer.c **** 	return status;
 670              		.loc 1 161 0
 671 00fc FB7B     		ldrb	r3, [r7, #15]	@ zero_extendqisi2
 162:.\ring_buffer.c **** }
 672              		.loc 1 162 0
 673 00fe 1846     		mov	r0, r3
 674 0100 07F11007 		add	r7, r7, #16
 675 0104 BD46     		mov	sp, r7
 676 0106 80BD     		pop	{r7, pc}
 677              		.cfi_endproc
 678              	.LFE33:
 679              		.size	RBF_ucByteIn, .-RBF_ucByteIn
 680              		.section	.text.RBF_ucHeadByteOut,"ax",%progbits
 681              		.align	2
 682              		.global	RBF_ucHeadByteOut
 683              		.thumb
 684              		.thumb_func
 685              		.type	RBF_ucHeadByteOut, %function
ARM GAS  C:\Users\Martin\AppData\Local\Temp\ccuhJpPE.s 			page 16


 686              	RBF_ucHeadByteOut:
 687              	.LFB34:
 163:.\ring_buffer.c **** /*****************************************************************/
 164:.\ring_buffer.c **** uint8_t RBF_ucHeadByteOut(uint8_t ucIndex, uint8_t* byte)
 165:.\ring_buffer.c **** {
 688              		.loc 1 165 0
 689              		.cfi_startproc
 690              		@ args = 0, pretend = 0, frame = 16
 691              		@ frame_needed = 1, uses_anonymous_args = 0
 692 0000 80B5     		push	{r7, lr}
 693              	.LCFI14:
 694              		.cfi_def_cfa_offset 8
 695 0002 84B0     		sub	sp, sp, #16
 696              	.LCFI15:
 697              		.cfi_def_cfa_offset 24
 698 0004 00AF     		add	r7, sp, #0
 699              		.cfi_offset 14, -4
 700              		.cfi_offset 7, -8
 701              	.LCFI16:
 702              		.cfi_def_cfa_register 7
 703 0006 0346     		mov	r3, r0
 704 0008 3960     		str	r1, [r7, #0]
 705 000a FB71     		strb	r3, [r7, #7]
 166:.\ring_buffer.c ****     STATUS status;
 167:.\ring_buffer.c **** 	
 168:.\ring_buffer.c ****     // is head == tail ?
 169:.\ring_buffer.c **** 	if (RingBuffer[ucIndex].tail == RingBuffer[ucIndex].head)
 706              		.loc 1 169 0
 707 000c F979     		ldrb	r1, [r7, #7]	@ zero_extendqisi2
 708 000e 40F20002 		movw	r2, #:lower16:RingBuffer
 709 0012 C0F20002 		movt	r2, #:upper16:RingBuffer
 710 0016 0B46     		mov	r3, r1
 711 0018 4FEA8303 		lsl	r3, r3, #2
 712 001c 0B44     		add	r3, r3, r1
 713 001e 4FEA8303 		lsl	r3, r3, #2
 714 0022 1344     		add	r3, r3, r2
 715 0024 03F10803 		add	r3, r3, #8
 716 0028 9888     		ldrh	r0, [r3, #4]
 717 002a F979     		ldrb	r1, [r7, #7]	@ zero_extendqisi2
 718 002c 40F20002 		movw	r2, #:lower16:RingBuffer
 719 0030 C0F20002 		movt	r2, #:upper16:RingBuffer
 720 0034 0B46     		mov	r3, r1
 721 0036 4FEA8303 		lsl	r3, r3, #2
 722 003a 0B44     		add	r3, r3, r1
 723 003c 4FEA8303 		lsl	r3, r3, #2
 724 0040 1344     		add	r3, r3, r2
 725 0042 03F10803 		add	r3, r3, #8
 726 0046 5B88     		ldrh	r3, [r3, #2]
 727 0048 9842     		cmp	r0, r3
 728 004a 29D1     		bne	.L29
 170:.\ring_buffer.c **** 	{
 171:.\ring_buffer.c ****         // if head = tail, is zero byte set?
 172:.\ring_buffer.c ****         if (RingBuffer[ucIndex].zb == 1)
 729              		.loc 1 172 0
 730 004c F979     		ldrb	r1, [r7, #7]	@ zero_extendqisi2
 731 004e 40F20002 		movw	r2, #:lower16:RingBuffer
 732 0052 C0F20002 		movt	r2, #:upper16:RingBuffer
ARM GAS  C:\Users\Martin\AppData\Local\Temp\ccuhJpPE.s 			page 17


 733 0056 0B46     		mov	r3, r1
 734 0058 4FEA8303 		lsl	r3, r3, #2
 735 005c 0B44     		add	r3, r3, r1
 736 005e 4FEA8303 		lsl	r3, r3, #2
 737 0062 1344     		add	r3, r3, r2
 738 0064 03F10803 		add	r3, r3, #8
 739 0068 9B79     		ldrb	r3, [r3, #6]	@ zero_extendqisi2
 740 006a 012B     		cmp	r3, #1
 741 006c 14D1     		bne	.L30
 173:.\ring_buffer.c ****         {
 174:.\ring_buffer.c ****            RingBuffer[ucIndex].zb = 0; 
 742              		.loc 1 174 0
 743 006e F979     		ldrb	r1, [r7, #7]	@ zero_extendqisi2
 744 0070 40F20002 		movw	r2, #:lower16:RingBuffer
 745 0074 C0F20002 		movt	r2, #:upper16:RingBuffer
 746 0078 0B46     		mov	r3, r1
 747 007a 4FEA8303 		lsl	r3, r3, #2
 748 007e 0B44     		add	r3, r3, r1
 749 0080 4FEA8303 		lsl	r3, r3, #2
 750 0084 1344     		add	r3, r3, r2
 751 0086 03F10803 		add	r3, r3, #8
 752 008a 4FF00002 		mov	r2, #0
 753 008e 9A71     		strb	r2, [r3, #6]
 175:.\ring_buffer.c ****            status = RBF_SUCCESS;
 754              		.loc 1 175 0
 755 0090 4FF00003 		mov	r3, #0
 756 0094 FB73     		strb	r3, [r7, #15]
 176:.\ring_buffer.c ****         }
 177:.\ring_buffer.c ****         else
 178:.\ring_buffer.c ****         {
 179:.\ring_buffer.c ****             status = RBF_FAIL;
 757              		.loc 1 179 0
 758 0096 06E0     		b	.L32
 759              	.L30:
 760 0098 4FF00103 		mov	r3, #1
 761 009c FB73     		strb	r3, [r7, #15]
 762 009e 02E0     		b	.L32
 763              	.L29:
 180:.\ring_buffer.c ****         }
 181:.\ring_buffer.c ****     }
 182:.\ring_buffer.c ****     else // is head != tail 
 183:.\ring_buffer.c ****     {
 184:.\ring_buffer.c ****         status = RBF_SUCCESS;
 764              		.loc 1 184 0
 765 00a0 4FF00003 		mov	r3, #0
 766 00a4 FB73     		strb	r3, [r7, #15]
 767              	.L32:
 185:.\ring_buffer.c ****     }
 186:.\ring_buffer.c ****     
 187:.\ring_buffer.c ****     if (status == RBF_SUCCESS)
 768              		.loc 1 187 0
 769 00a6 FB7B     		ldrb	r3, [r7, #15]	@ zero_extendqisi2
 770 00a8 002B     		cmp	r3, #0
 771 00aa 71D1     		bne	.L33
 188:.\ring_buffer.c ****     {
 189:.\ring_buffer.c **** 		*byte = (RingBuffer[ucIndex].address)[RingBuffer[ucIndex].head];
 772              		.loc 1 189 0
ARM GAS  C:\Users\Martin\AppData\Local\Temp\ccuhJpPE.s 			page 18


 773 00ac F979     		ldrb	r1, [r7, #7]	@ zero_extendqisi2
 774 00ae 40F20002 		movw	r2, #:lower16:RingBuffer
 775 00b2 C0F20002 		movt	r2, #:upper16:RingBuffer
 776 00b6 0B46     		mov	r3, r1
 777 00b8 4FEA8303 		lsl	r3, r3, #2
 778 00bc 0B44     		add	r3, r3, r1
 779 00be 4FEA8303 		lsl	r3, r3, #2
 780 00c2 1344     		add	r3, r3, r2
 781 00c4 03F10403 		add	r3, r3, #4
 782 00c8 1868     		ldr	r0, [r3, #0]
 783 00ca F979     		ldrb	r1, [r7, #7]	@ zero_extendqisi2
 784 00cc 40F20002 		movw	r2, #:lower16:RingBuffer
 785 00d0 C0F20002 		movt	r2, #:upper16:RingBuffer
 786 00d4 0B46     		mov	r3, r1
 787 00d6 4FEA8303 		lsl	r3, r3, #2
 788 00da 0B44     		add	r3, r3, r1
 789 00dc 4FEA8303 		lsl	r3, r3, #2
 790 00e0 1344     		add	r3, r3, r2
 791 00e2 03F10803 		add	r3, r3, #8
 792 00e6 5B88     		ldrh	r3, [r3, #2]
 793 00e8 0344     		add	r3, r0, r3
 794 00ea 1A78     		ldrb	r2, [r3, #0]	@ zero_extendqisi2
 795 00ec 3B68     		ldr	r3, [r7, #0]
 796 00ee 1A70     		strb	r2, [r3, #0]
 190:.\ring_buffer.c **** 		(RingBuffer[ucIndex].address)[RingBuffer[ucIndex].head] = 0;		//delete byte
 797              		.loc 1 190 0
 798 00f0 F979     		ldrb	r1, [r7, #7]	@ zero_extendqisi2
 799 00f2 40F20002 		movw	r2, #:lower16:RingBuffer
 800 00f6 C0F20002 		movt	r2, #:upper16:RingBuffer
 801 00fa 0B46     		mov	r3, r1
 802 00fc 4FEA8303 		lsl	r3, r3, #2
 803 0100 0B44     		add	r3, r3, r1
 804 0102 4FEA8303 		lsl	r3, r3, #2
 805 0106 1344     		add	r3, r3, r2
 806 0108 03F10403 		add	r3, r3, #4
 807 010c 1868     		ldr	r0, [r3, #0]
 808 010e F979     		ldrb	r1, [r7, #7]	@ zero_extendqisi2
 809 0110 40F20002 		movw	r2, #:lower16:RingBuffer
 810 0114 C0F20002 		movt	r2, #:upper16:RingBuffer
 811 0118 0B46     		mov	r3, r1
 812 011a 4FEA8303 		lsl	r3, r3, #2
 813 011e 0B44     		add	r3, r3, r1
 814 0120 4FEA8303 		lsl	r3, r3, #2
 815 0124 1344     		add	r3, r3, r2
 816 0126 03F10803 		add	r3, r3, #8
 817 012a 5B88     		ldrh	r3, [r3, #2]
 818 012c 0344     		add	r3, r0, r3
 819 012e 4FF00002 		mov	r2, #0
 820 0132 1A70     		strb	r2, [r3, #0]
 191:.\ring_buffer.c ****         
 192:.\ring_buffer.c ****         if (RingBuffer[ucIndex].tail != RingBuffer[ucIndex].head)
 821              		.loc 1 192 0
 822 0134 F979     		ldrb	r1, [r7, #7]	@ zero_extendqisi2
 823 0136 40F20002 		movw	r2, #:lower16:RingBuffer
 824 013a C0F20002 		movt	r2, #:upper16:RingBuffer
 825 013e 0B46     		mov	r3, r1
 826 0140 4FEA8303 		lsl	r3, r3, #2
ARM GAS  C:\Users\Martin\AppData\Local\Temp\ccuhJpPE.s 			page 19


 827 0144 0B44     		add	r3, r3, r1
 828 0146 4FEA8303 		lsl	r3, r3, #2
 829 014a 1344     		add	r3, r3, r2
 830 014c 03F10803 		add	r3, r3, #8
 831 0150 9888     		ldrh	r0, [r3, #4]
 832 0152 F979     		ldrb	r1, [r7, #7]	@ zero_extendqisi2
 833 0154 40F20002 		movw	r2, #:lower16:RingBuffer
 834 0158 C0F20002 		movt	r2, #:upper16:RingBuffer
 835 015c 0B46     		mov	r3, r1
 836 015e 4FEA8303 		lsl	r3, r3, #2
 837 0162 0B44     		add	r3, r3, r1
 838 0164 4FEA8303 		lsl	r3, r3, #2
 839 0168 1344     		add	r3, r3, r2
 840 016a 03F10803 		add	r3, r3, #8
 841 016e 5B88     		ldrh	r3, [r3, #2]
 842 0170 9842     		cmp	r0, r3
 843 0172 0DD0     		beq	.L33
 193:.\ring_buffer.c ****         {
 194:.\ring_buffer.c ****             if (DecHead(ucIndex) == RBF_SUCCESS)
 844              		.loc 1 194 0
 845 0174 FB79     		ldrb	r3, [r7, #7]	@ zero_extendqisi2
 846 0176 1846     		mov	r0, r3
 847 0178 FFF7FEFF 		bl	DecHead
 848 017c 0346     		mov	r3, r0
 849 017e 002B     		cmp	r3, #0
 850 0180 03D1     		bne	.L34
 195:.\ring_buffer.c ****             {
 196:.\ring_buffer.c ****                 status = RBF_SUCCESS;
 851              		.loc 1 196 0
 852 0182 4FF00003 		mov	r3, #0
 853 0186 FB73     		strb	r3, [r7, #15]
 854 0188 02E0     		b	.L33
 855              	.L34:
 197:.\ring_buffer.c ****             }
 198:.\ring_buffer.c ****             else
 199:.\ring_buffer.c ****             {
 200:.\ring_buffer.c ****     		    status = RBF_ERROR;
 856              		.loc 1 200 0
 857 018a 4FF0FF33 		mov	r3, #-1
 858 018e FB73     		strb	r3, [r7, #15]
 859              	.L33:
 201:.\ring_buffer.c ****             }
 202:.\ring_buffer.c ****         }
 203:.\ring_buffer.c **** 	}
 204:.\ring_buffer.c **** 	
 205:.\ring_buffer.c **** 	
 206:.\ring_buffer.c **** 	return status;
 860              		.loc 1 206 0
 861 0190 FB7B     		ldrb	r3, [r7, #15]	@ zero_extendqisi2
 207:.\ring_buffer.c **** }
 862              		.loc 1 207 0
 863 0192 1846     		mov	r0, r3
 864 0194 07F11007 		add	r7, r7, #16
 865 0198 BD46     		mov	sp, r7
 866 019a 80BD     		pop	{r7, pc}
 867              		.cfi_endproc
 868              	.LFE34:
ARM GAS  C:\Users\Martin\AppData\Local\Temp\ccuhJpPE.s 			page 20


 869              		.size	RBF_ucHeadByteOut, .-RBF_ucHeadByteOut
 870              		.section	.text.RBF_ucTailByteOut,"ax",%progbits
 871              		.align	2
 872              		.global	RBF_ucTailByteOut
 873              		.thumb
 874              		.thumb_func
 875              		.type	RBF_ucTailByteOut, %function
 876              	RBF_ucTailByteOut:
 877              	.LFB35:
 208:.\ring_buffer.c **** /*****************************************************************/
 209:.\ring_buffer.c **** uint8_t RBF_ucTailByteOut(uint8_t ucIndex, uint8_t* byte)
 210:.\ring_buffer.c **** {
 878              		.loc 1 210 0
 879              		.cfi_startproc
 880              		@ args = 0, pretend = 0, frame = 16
 881              		@ frame_needed = 1, uses_anonymous_args = 0
 882 0000 80B5     		push	{r7, lr}
 883              	.LCFI17:
 884              		.cfi_def_cfa_offset 8
 885 0002 84B0     		sub	sp, sp, #16
 886              	.LCFI18:
 887              		.cfi_def_cfa_offset 24
 888 0004 00AF     		add	r7, sp, #0
 889              		.cfi_offset 14, -4
 890              		.cfi_offset 7, -8
 891              	.LCFI19:
 892              		.cfi_def_cfa_register 7
 893 0006 0346     		mov	r3, r0
 894 0008 3960     		str	r1, [r7, #0]
 895 000a FB71     		strb	r3, [r7, #7]
 211:.\ring_buffer.c ****     STATUS status;
 212:.\ring_buffer.c **** 	
 213:.\ring_buffer.c ****     // is head == tail ?
 214:.\ring_buffer.c **** 	if (RingBuffer[ucIndex].tail == RingBuffer[ucIndex].head)
 896              		.loc 1 214 0
 897 000c F979     		ldrb	r1, [r7, #7]	@ zero_extendqisi2
 898 000e 40F20002 		movw	r2, #:lower16:RingBuffer
 899 0012 C0F20002 		movt	r2, #:upper16:RingBuffer
 900 0016 0B46     		mov	r3, r1
 901 0018 4FEA8303 		lsl	r3, r3, #2
 902 001c 0B44     		add	r3, r3, r1
 903 001e 4FEA8303 		lsl	r3, r3, #2
 904 0022 1344     		add	r3, r3, r2
 905 0024 03F10803 		add	r3, r3, #8
 906 0028 9888     		ldrh	r0, [r3, #4]
 907 002a F979     		ldrb	r1, [r7, #7]	@ zero_extendqisi2
 908 002c 40F20002 		movw	r2, #:lower16:RingBuffer
 909 0030 C0F20002 		movt	r2, #:upper16:RingBuffer
 910 0034 0B46     		mov	r3, r1
 911 0036 4FEA8303 		lsl	r3, r3, #2
 912 003a 0B44     		add	r3, r3, r1
 913 003c 4FEA8303 		lsl	r3, r3, #2
 914 0040 1344     		add	r3, r3, r2
 915 0042 03F10803 		add	r3, r3, #8
 916 0046 5B88     		ldrh	r3, [r3, #2]
 917 0048 9842     		cmp	r0, r3
 918 004a 29D1     		bne	.L37
ARM GAS  C:\Users\Martin\AppData\Local\Temp\ccuhJpPE.s 			page 21


 215:.\ring_buffer.c **** 	{
 216:.\ring_buffer.c ****         // if head = tail, is zero byte set?
 217:.\ring_buffer.c ****         if (RingBuffer[ucIndex].zb == 1)
 919              		.loc 1 217 0
 920 004c F979     		ldrb	r1, [r7, #7]	@ zero_extendqisi2
 921 004e 40F20002 		movw	r2, #:lower16:RingBuffer
 922 0052 C0F20002 		movt	r2, #:upper16:RingBuffer
 923 0056 0B46     		mov	r3, r1
 924 0058 4FEA8303 		lsl	r3, r3, #2
 925 005c 0B44     		add	r3, r3, r1
 926 005e 4FEA8303 		lsl	r3, r3, #2
 927 0062 1344     		add	r3, r3, r2
 928 0064 03F10803 		add	r3, r3, #8
 929 0068 9B79     		ldrb	r3, [r3, #6]	@ zero_extendqisi2
 930 006a 012B     		cmp	r3, #1
 931 006c 14D1     		bne	.L38
 218:.\ring_buffer.c ****         {
 219:.\ring_buffer.c ****            RingBuffer[ucIndex].zb = 0; 
 932              		.loc 1 219 0
 933 006e F979     		ldrb	r1, [r7, #7]	@ zero_extendqisi2
 934 0070 40F20002 		movw	r2, #:lower16:RingBuffer
 935 0074 C0F20002 		movt	r2, #:upper16:RingBuffer
 936 0078 0B46     		mov	r3, r1
 937 007a 4FEA8303 		lsl	r3, r3, #2
 938 007e 0B44     		add	r3, r3, r1
 939 0080 4FEA8303 		lsl	r3, r3, #2
 940 0084 1344     		add	r3, r3, r2
 941 0086 03F10803 		add	r3, r3, #8
 942 008a 4FF00002 		mov	r2, #0
 943 008e 9A71     		strb	r2, [r3, #6]
 220:.\ring_buffer.c ****            status = RBF_SUCCESS;
 944              		.loc 1 220 0
 945 0090 4FF00003 		mov	r3, #0
 946 0094 FB73     		strb	r3, [r7, #15]
 221:.\ring_buffer.c ****         }
 222:.\ring_buffer.c ****         else
 223:.\ring_buffer.c ****         {
 224:.\ring_buffer.c ****             status = RBF_FAIL;
 947              		.loc 1 224 0
 948 0096 06E0     		b	.L40
 949              	.L38:
 950 0098 4FF00103 		mov	r3, #1
 951 009c FB73     		strb	r3, [r7, #15]
 952 009e 02E0     		b	.L40
 953              	.L37:
 225:.\ring_buffer.c ****         }
 226:.\ring_buffer.c ****     }
 227:.\ring_buffer.c ****     else // is head != tail 
 228:.\ring_buffer.c ****     {
 229:.\ring_buffer.c ****         status = RBF_SUCCESS;
 954              		.loc 1 229 0
 955 00a0 4FF00003 		mov	r3, #0
 956 00a4 FB73     		strb	r3, [r7, #15]
 957              	.L40:
 230:.\ring_buffer.c ****     }
 231:.\ring_buffer.c ****     
 232:.\ring_buffer.c ****     if (status == RBF_SUCCESS)
ARM GAS  C:\Users\Martin\AppData\Local\Temp\ccuhJpPE.s 			page 22


 958              		.loc 1 232 0
 959 00a6 FB7B     		ldrb	r3, [r7, #15]	@ zero_extendqisi2
 960 00a8 002B     		cmp	r3, #0
 961 00aa 71D1     		bne	.L41
 233:.\ring_buffer.c ****     {
 234:.\ring_buffer.c **** 		*byte = (RingBuffer[ucIndex].address)[RingBuffer[ucIndex].tail];
 962              		.loc 1 234 0
 963 00ac F979     		ldrb	r1, [r7, #7]	@ zero_extendqisi2
 964 00ae 40F20002 		movw	r2, #:lower16:RingBuffer
 965 00b2 C0F20002 		movt	r2, #:upper16:RingBuffer
 966 00b6 0B46     		mov	r3, r1
 967 00b8 4FEA8303 		lsl	r3, r3, #2
 968 00bc 0B44     		add	r3, r3, r1
 969 00be 4FEA8303 		lsl	r3, r3, #2
 970 00c2 1344     		add	r3, r3, r2
 971 00c4 03F10403 		add	r3, r3, #4
 972 00c8 1868     		ldr	r0, [r3, #0]
 973 00ca F979     		ldrb	r1, [r7, #7]	@ zero_extendqisi2
 974 00cc 40F20002 		movw	r2, #:lower16:RingBuffer
 975 00d0 C0F20002 		movt	r2, #:upper16:RingBuffer
 976 00d4 0B46     		mov	r3, r1
 977 00d6 4FEA8303 		lsl	r3, r3, #2
 978 00da 0B44     		add	r3, r3, r1
 979 00dc 4FEA8303 		lsl	r3, r3, #2
 980 00e0 1344     		add	r3, r3, r2
 981 00e2 03F10803 		add	r3, r3, #8
 982 00e6 9B88     		ldrh	r3, [r3, #4]
 983 00e8 0344     		add	r3, r0, r3
 984 00ea 1A78     		ldrb	r2, [r3, #0]	@ zero_extendqisi2
 985 00ec 3B68     		ldr	r3, [r7, #0]
 986 00ee 1A70     		strb	r2, [r3, #0]
 235:.\ring_buffer.c **** 		(RingBuffer[ucIndex].address)[RingBuffer[ucIndex].tail] = 0;		//delete byte
 987              		.loc 1 235 0
 988 00f0 F979     		ldrb	r1, [r7, #7]	@ zero_extendqisi2
 989 00f2 40F20002 		movw	r2, #:lower16:RingBuffer
 990 00f6 C0F20002 		movt	r2, #:upper16:RingBuffer
 991 00fa 0B46     		mov	r3, r1
 992 00fc 4FEA8303 		lsl	r3, r3, #2
 993 0100 0B44     		add	r3, r3, r1
 994 0102 4FEA8303 		lsl	r3, r3, #2
 995 0106 1344     		add	r3, r3, r2
 996 0108 03F10403 		add	r3, r3, #4
 997 010c 1868     		ldr	r0, [r3, #0]
 998 010e F979     		ldrb	r1, [r7, #7]	@ zero_extendqisi2
 999 0110 40F20002 		movw	r2, #:lower16:RingBuffer
 1000 0114 C0F20002 		movt	r2, #:upper16:RingBuffer
 1001 0118 0B46     		mov	r3, r1
 1002 011a 4FEA8303 		lsl	r3, r3, #2
 1003 011e 0B44     		add	r3, r3, r1
 1004 0120 4FEA8303 		lsl	r3, r3, #2
 1005 0124 1344     		add	r3, r3, r2
 1006 0126 03F10803 		add	r3, r3, #8
 1007 012a 9B88     		ldrh	r3, [r3, #4]
 1008 012c 0344     		add	r3, r0, r3
 1009 012e 4FF00002 		mov	r2, #0
 1010 0132 1A70     		strb	r2, [r3, #0]
 236:.\ring_buffer.c ****         
ARM GAS  C:\Users\Martin\AppData\Local\Temp\ccuhJpPE.s 			page 23


 237:.\ring_buffer.c ****         if (RingBuffer[ucIndex].tail != RingBuffer[ucIndex].head)
 1011              		.loc 1 237 0
 1012 0134 F979     		ldrb	r1, [r7, #7]	@ zero_extendqisi2
 1013 0136 40F20002 		movw	r2, #:lower16:RingBuffer
 1014 013a C0F20002 		movt	r2, #:upper16:RingBuffer
 1015 013e 0B46     		mov	r3, r1
 1016 0140 4FEA8303 		lsl	r3, r3, #2
 1017 0144 0B44     		add	r3, r3, r1
 1018 0146 4FEA8303 		lsl	r3, r3, #2
 1019 014a 1344     		add	r3, r3, r2
 1020 014c 03F10803 		add	r3, r3, #8
 1021 0150 9888     		ldrh	r0, [r3, #4]
 1022 0152 F979     		ldrb	r1, [r7, #7]	@ zero_extendqisi2
 1023 0154 40F20002 		movw	r2, #:lower16:RingBuffer
 1024 0158 C0F20002 		movt	r2, #:upper16:RingBuffer
 1025 015c 0B46     		mov	r3, r1
 1026 015e 4FEA8303 		lsl	r3, r3, #2
 1027 0162 0B44     		add	r3, r3, r1
 1028 0164 4FEA8303 		lsl	r3, r3, #2
 1029 0168 1344     		add	r3, r3, r2
 1030 016a 03F10803 		add	r3, r3, #8
 1031 016e 5B88     		ldrh	r3, [r3, #2]
 1032 0170 9842     		cmp	r0, r3
 1033 0172 0DD0     		beq	.L41
 238:.\ring_buffer.c ****         {
 239:.\ring_buffer.c ****             if (IncTail(ucIndex) == RBF_SUCCESS)
 1034              		.loc 1 239 0
 1035 0174 FB79     		ldrb	r3, [r7, #7]	@ zero_extendqisi2
 1036 0176 1846     		mov	r0, r3
 1037 0178 FFF7FEFF 		bl	IncTail
 1038 017c 0346     		mov	r3, r0
 1039 017e 002B     		cmp	r3, #0
 1040 0180 03D1     		bne	.L42
 240:.\ring_buffer.c ****             {
 241:.\ring_buffer.c ****                 status = RBF_SUCCESS;
 1041              		.loc 1 241 0
 1042 0182 4FF00003 		mov	r3, #0
 1043 0186 FB73     		strb	r3, [r7, #15]
 1044 0188 02E0     		b	.L41
 1045              	.L42:
 242:.\ring_buffer.c ****             }
 243:.\ring_buffer.c ****             else
 244:.\ring_buffer.c ****             {
 245:.\ring_buffer.c ****     		    status = RBF_ERROR;
 1046              		.loc 1 245 0
 1047 018a 4FF0FF33 		mov	r3, #-1
 1048 018e FB73     		strb	r3, [r7, #15]
 1049              	.L41:
 246:.\ring_buffer.c ****             }
 247:.\ring_buffer.c ****         }
 248:.\ring_buffer.c **** 	}
 249:.\ring_buffer.c **** 	
 250:.\ring_buffer.c **** 	return status;
 1050              		.loc 1 250 0
 1051 0190 FB7B     		ldrb	r3, [r7, #15]	@ zero_extendqisi2
 251:.\ring_buffer.c **** }
 1052              		.loc 1 251 0
ARM GAS  C:\Users\Martin\AppData\Local\Temp\ccuhJpPE.s 			page 24


 1053 0192 1846     		mov	r0, r3
 1054 0194 07F11007 		add	r7, r7, #16
 1055 0198 BD46     		mov	sp, r7
 1056 019a 80BD     		pop	{r7, pc}
 1057              		.cfi_endproc
 1058              	.LFE35:
 1059              		.size	RBF_ucTailByteOut, .-RBF_ucTailByteOut
 1060              		.section	.text.RBF_ucReadOnlyFromTail,"ax",%progbits
 1061              		.align	2
 1062              		.global	RBF_ucReadOnlyFromTail
 1063              		.thumb
 1064              		.thumb_func
 1065              		.type	RBF_ucReadOnlyFromTail, %function
 1066              	RBF_ucReadOnlyFromTail:
 1067              	.LFB36:
 252:.\ring_buffer.c **** /*****************************************************************/
 253:.\ring_buffer.c **** uint8_t RBF_ucReadOnlyFromTail(uint8_t ucIndex, uint8_t ucNumByte)
 254:.\ring_buffer.c **** {    
 1068              		.loc 1 254 0
 1069              		.cfi_startproc
 1070              		@ args = 0, pretend = 0, frame = 16
 1071              		@ frame_needed = 1, uses_anonymous_args = 0
 1072              		@ link register save eliminated.
 1073 0000 80B4     		push	{r7}
 1074              	.LCFI20:
 1075              		.cfi_def_cfa_offset 4
 1076 0002 85B0     		sub	sp, sp, #20
 1077              	.LCFI21:
 1078              		.cfi_def_cfa_offset 24
 1079 0004 00AF     		add	r7, sp, #0
 1080              		.cfi_offset 7, -4
 1081              	.LCFI22:
 1082              		.cfi_def_cfa_register 7
 1083 0006 0246     		mov	r2, r0
 1084 0008 0B46     		mov	r3, r1
 1085 000a FA71     		strb	r2, [r7, #7]
 1086 000c BB71     		strb	r3, [r7, #6]
 255:.\ring_buffer.c ****     uint8_t ucByte;
 256:.\ring_buffer.c **** 
 257:.\ring_buffer.c ****     if (RingBuffer[ucIndex].address == NULLPTR)
 1087              		.loc 1 257 0
 1088 000e F979     		ldrb	r1, [r7, #7]	@ zero_extendqisi2
 1089 0010 40F20002 		movw	r2, #:lower16:RingBuffer
 1090 0014 C0F20002 		movt	r2, #:upper16:RingBuffer
 1091 0018 0B46     		mov	r3, r1
 1092 001a 4FEA8303 		lsl	r3, r3, #2
 1093 001e 0B44     		add	r3, r3, r1
 1094 0020 4FEA8303 		lsl	r3, r3, #2
 1095 0024 1344     		add	r3, r3, r2
 1096 0026 03F10403 		add	r3, r3, #4
 1097 002a 1B68     		ldr	r3, [r3, #0]
 1098 002c 002B     		cmp	r3, #0
 1099 002e 02D1     		bne	.L45
 258:.\ring_buffer.c ****         return RBF_NOT_AVAILABLE;
 1100              		.loc 1 258 0
 1101 0030 4FF0FD03 		mov	r3, #253
 1102 0034 7FE0     		b	.L46
ARM GAS  C:\Users\Martin\AppData\Local\Temp\ccuhJpPE.s 			page 25


 1103              	.L45:
 259:.\ring_buffer.c ****         
 260:.\ring_buffer.c ****      // is head == tail ?
 261:.\ring_buffer.c **** 	if ((RingBuffer[ucIndex].tail + ucNumByte) > RingBuffer[ucIndex].size)
 1104              		.loc 1 261 0
 1105 0036 F979     		ldrb	r1, [r7, #7]	@ zero_extendqisi2
 1106 0038 40F20002 		movw	r2, #:lower16:RingBuffer
 1107 003c C0F20002 		movt	r2, #:upper16:RingBuffer
 1108 0040 0B46     		mov	r3, r1
 1109 0042 4FEA8303 		lsl	r3, r3, #2
 1110 0046 0B44     		add	r3, r3, r1
 1111 0048 4FEA8303 		lsl	r3, r3, #2
 1112 004c 1344     		add	r3, r3, r2
 1113 004e 03F10803 		add	r3, r3, #8
 1114 0052 9B88     		ldrh	r3, [r3, #4]
 1115 0054 1A46     		mov	r2, r3
 1116 0056 BB79     		ldrb	r3, [r7, #6]	@ zero_extendqisi2
 1117 0058 02EB0300 		add	r0, r2, r3
 1118 005c F979     		ldrb	r1, [r7, #7]	@ zero_extendqisi2
 1119 005e 40F20002 		movw	r2, #:lower16:RingBuffer
 1120 0062 C0F20002 		movt	r2, #:upper16:RingBuffer
 1121 0066 0B46     		mov	r3, r1
 1122 0068 4FEA8303 		lsl	r3, r3, #2
 1123 006c 0B44     		add	r3, r3, r1
 1124 006e 4FEA8303 		lsl	r3, r3, #2
 1125 0072 1344     		add	r3, r3, r2
 1126 0074 03F10803 		add	r3, r3, #8
 1127 0078 1B88     		ldrh	r3, [r3, #0]
 1128 007a 9842     		cmp	r0, r3
 1129 007c 36DD     		ble	.L47
 262:.\ring_buffer.c **** 	{
 263:.\ring_buffer.c ****         ucByte = (RingBuffer[ucIndex].address)[RingBuffer[ucIndex].tail + ucNumByte - RingBuffer[uc
 1130              		.loc 1 263 0
 1131 007e F979     		ldrb	r1, [r7, #7]	@ zero_extendqisi2
 1132 0080 40F20002 		movw	r2, #:lower16:RingBuffer
 1133 0084 C0F20002 		movt	r2, #:upper16:RingBuffer
 1134 0088 0B46     		mov	r3, r1
 1135 008a 4FEA8303 		lsl	r3, r3, #2
 1136 008e 0B44     		add	r3, r3, r1
 1137 0090 4FEA8303 		lsl	r3, r3, #2
 1138 0094 1344     		add	r3, r3, r2
 1139 0096 03F10403 		add	r3, r3, #4
 1140 009a 1868     		ldr	r0, [r3, #0]
 1141 009c F979     		ldrb	r1, [r7, #7]	@ zero_extendqisi2
 1142 009e 40F20002 		movw	r2, #:lower16:RingBuffer
 1143 00a2 C0F20002 		movt	r2, #:upper16:RingBuffer
 1144 00a6 0B46     		mov	r3, r1
 1145 00a8 4FEA8303 		lsl	r3, r3, #2
 1146 00ac 0B44     		add	r3, r3, r1
 1147 00ae 4FEA8303 		lsl	r3, r3, #2
 1148 00b2 1344     		add	r3, r3, r2
 1149 00b4 03F10803 		add	r3, r3, #8
 1150 00b8 9B88     		ldrh	r3, [r3, #4]
 1151 00ba 1A46     		mov	r2, r3
 1152 00bc BB79     		ldrb	r3, [r7, #6]	@ zero_extendqisi2
 1153 00be 02EB030C 		add	ip, r2, r3
 1154 00c2 F979     		ldrb	r1, [r7, #7]	@ zero_extendqisi2
ARM GAS  C:\Users\Martin\AppData\Local\Temp\ccuhJpPE.s 			page 26


 1155 00c4 40F20002 		movw	r2, #:lower16:RingBuffer
 1156 00c8 C0F20002 		movt	r2, #:upper16:RingBuffer
 1157 00cc 0B46     		mov	r3, r1
 1158 00ce 4FEA8303 		lsl	r3, r3, #2
 1159 00d2 0B44     		add	r3, r3, r1
 1160 00d4 4FEA8303 		lsl	r3, r3, #2
 1161 00d8 1344     		add	r3, r3, r2
 1162 00da 03F10803 		add	r3, r3, #8
 1163 00de 1B88     		ldrh	r3, [r3, #0]
 1164 00e0 C3EB0C03 		rsb	r3, r3, ip
 1165 00e4 0344     		add	r3, r0, r3
 1166 00e6 1B78     		ldrb	r3, [r3, #0]
 1167 00e8 FB73     		strb	r3, [r7, #15]
 1168 00ea 23E0     		b	.L48
 1169              	.L47:
 264:.\ring_buffer.c ****     }
 265:.\ring_buffer.c ****     else
 266:.\ring_buffer.c ****     {        
 267:.\ring_buffer.c ****         ucByte = (RingBuffer[ucIndex].address)[RingBuffer[ucIndex].tail + ucNumByte];
 1170              		.loc 1 267 0
 1171 00ec F979     		ldrb	r1, [r7, #7]	@ zero_extendqisi2
 1172 00ee 40F20002 		movw	r2, #:lower16:RingBuffer
 1173 00f2 C0F20002 		movt	r2, #:upper16:RingBuffer
 1174 00f6 0B46     		mov	r3, r1
 1175 00f8 4FEA8303 		lsl	r3, r3, #2
 1176 00fc 0B44     		add	r3, r3, r1
 1177 00fe 4FEA8303 		lsl	r3, r3, #2
 1178 0102 1344     		add	r3, r3, r2
 1179 0104 03F10403 		add	r3, r3, #4
 1180 0108 1868     		ldr	r0, [r3, #0]
 1181 010a F979     		ldrb	r1, [r7, #7]	@ zero_extendqisi2
 1182 010c 40F20002 		movw	r2, #:lower16:RingBuffer
 1183 0110 C0F20002 		movt	r2, #:upper16:RingBuffer
 1184 0114 0B46     		mov	r3, r1
 1185 0116 4FEA8303 		lsl	r3, r3, #2
 1186 011a 0B44     		add	r3, r3, r1
 1187 011c 4FEA8303 		lsl	r3, r3, #2
 1188 0120 1344     		add	r3, r3, r2
 1189 0122 03F10803 		add	r3, r3, #8
 1190 0126 9B88     		ldrh	r3, [r3, #4]
 1191 0128 1A46     		mov	r2, r3
 1192 012a BB79     		ldrb	r3, [r7, #6]	@ zero_extendqisi2
 1193 012c 1344     		add	r3, r2, r3
 1194 012e 0344     		add	r3, r0, r3
 1195 0130 1B78     		ldrb	r3, [r3, #0]
 1196 0132 FB73     		strb	r3, [r7, #15]
 1197              	.L48:
 268:.\ring_buffer.c ****     }
 269:.\ring_buffer.c **** 
 270:.\ring_buffer.c ****     return ucByte; //TODO: test
 1198              		.loc 1 270 0
 1199 0134 FB7B     		ldrb	r3, [r7, #15]	@ zero_extendqisi2
 1200              	.L46:
 271:.\ring_buffer.c **** }
 1201              		.loc 1 271 0
 1202 0136 1846     		mov	r0, r3
 1203 0138 07F11407 		add	r7, r7, #20
ARM GAS  C:\Users\Martin\AppData\Local\Temp\ccuhJpPE.s 			page 27


 1204 013c BD46     		mov	sp, r7
 1205 013e 80BC     		pop	{r7}
 1206 0140 7047     		bx	lr
 1207              		.cfi_endproc
 1208              	.LFE36:
 1209              		.size	RBF_ucReadOnlyFromTail, .-RBF_ucReadOnlyFromTail
 1210 0142 00BF     		.section	.text.RBF_ucMsgIn,"ax",%progbits
 1211              		.align	2
 1212              		.global	RBF_ucMsgIn
 1213              		.thumb
 1214              		.thumb_func
 1215              		.type	RBF_ucMsgIn, %function
 1216              	RBF_ucMsgIn:
 1217              	.LFB37:
 272:.\ring_buffer.c **** 
 273:.\ring_buffer.c **** /*****************************************************************/
 274:.\ring_buffer.c **** /**
 275:.\ring_buffer.c **** 	Message structure:
 276:.\ring_buffer.c **** 	| size | d0 | d1 | ... | dn | size |
 277:.\ring_buffer.c **** 	
 278:.\ring_buffer.c **** 	- no checksum needed because there is no loss of information 
 279:.\ring_buffer.c **** 	due to transmission errors etc.
 280:.\ring_buffer.c **** */
 281:.\ring_buffer.c **** uint8_t RBF_ucMsgIn(uint8_t ucIndex, uint8_t* msg, uint8_t size)
 282:.\ring_buffer.c **** {
 1218              		.loc 1 282 0
 1219              		.cfi_startproc
 1220              		@ args = 0, pretend = 0, frame = 32
 1221              		@ frame_needed = 1, uses_anonymous_args = 0
 1222 0000 80B5     		push	{r7, lr}
 1223              	.LCFI23:
 1224              		.cfi_def_cfa_offset 8
 1225 0002 88B0     		sub	sp, sp, #32
 1226              	.LCFI24:
 1227              		.cfi_def_cfa_offset 40
 1228 0004 00AF     		add	r7, sp, #0
 1229              		.cfi_offset 14, -4
 1230              		.cfi_offset 7, -8
 1231              	.LCFI25:
 1232              		.cfi_def_cfa_register 7
 1233 0006 B960     		str	r1, [r7, #8]
 1234 0008 1346     		mov	r3, r2
 1235 000a 0246     		mov	r2, r0
 1236 000c FA73     		strb	r2, [r7, #15]
 1237 000e FB71     		strb	r3, [r7, #7]
 283:.\ring_buffer.c ****     STATUS status;
 284:.\ring_buffer.c **** 	int i=0;
 1238              		.loc 1 284 0
 1239 0010 4FF00003 		mov	r3, #0
 1240 0014 BB61     		str	r3, [r7, #24]
 285:.\ring_buffer.c **** 	uint8_t temp;
 286:.\ring_buffer.c ****     uint16_t uiByteCnt = RBF_ucGetByteCount(ucIndex);
 1241              		.loc 1 286 0
 1242 0016 FB7B     		ldrb	r3, [r7, #15]	@ zero_extendqisi2
 1243 0018 1846     		mov	r0, r3
 1244 001a FFF7FEFF 		bl	RBF_ucGetByteCount
 1245 001e 0346     		mov	r3, r0
ARM GAS  C:\Users\Martin\AppData\Local\Temp\ccuhJpPE.s 			page 28


 1246 0020 FB83     		strh	r3, [r7, #30]	@ movhi
 287:.\ring_buffer.c **** 	
 288:.\ring_buffer.c ****     //check if enough space for message, msg + size at beginning + size at end
 289:.\ring_buffer.c ****     if ((RingBuffer[ucIndex].size - uiByteCnt) < (size + 2))
 1247              		.loc 1 289 0
 1248 0022 F97B     		ldrb	r1, [r7, #15]	@ zero_extendqisi2
 1249 0024 40F20002 		movw	r2, #:lower16:RingBuffer
 1250 0028 C0F20002 		movt	r2, #:upper16:RingBuffer
 1251 002c 0B46     		mov	r3, r1
 1252 002e 4FEA8303 		lsl	r3, r3, #2
 1253 0032 0B44     		add	r3, r3, r1
 1254 0034 4FEA8303 		lsl	r3, r3, #2
 1255 0038 1344     		add	r3, r3, r2
 1256 003a 03F10803 		add	r3, r3, #8
 1257 003e 1B88     		ldrh	r3, [r3, #0]
 1258 0040 1A46     		mov	r2, r3
 1259 0042 FB8B     		ldrh	r3, [r7, #30]
 1260 0044 C3EB0202 		rsb	r2, r3, r2
 1261 0048 FB79     		ldrb	r3, [r7, #7]	@ zero_extendqisi2
 1262 004a 03F10203 		add	r3, r3, #2
 1263 004e 9A42     		cmp	r2, r3
 1264 0050 02DA     		bge	.L51
 290:.\ring_buffer.c ****     {
 291:.\ring_buffer.c ****         return RBF_FAIL;
 1265              		.loc 1 291 0
 1266 0052 4FF00103 		mov	r3, #1
 1267 0056 83E0     		b	.L52
 1268              	.L51:
 292:.\ring_buffer.c ****     }
 293:.\ring_buffer.c ****     
 294:.\ring_buffer.c **** 	// 1st byte = message size		
 295:.\ring_buffer.c **** 	if(RBF_ucByteIn(ucIndex, size) == RBF_SUCCESS)				// | size | d0 | d1 | ... | dn | size |
 1269              		.loc 1 295 0
 1270 0058 FA7B     		ldrb	r2, [r7, #15]	@ zero_extendqisi2
 1271 005a FB79     		ldrb	r3, [r7, #7]	@ zero_extendqisi2
 1272 005c 1046     		mov	r0, r2
 1273 005e 1946     		mov	r1, r3
 1274 0060 FFF7FEFF 		bl	RBF_ucByteIn
 1275 0064 0346     		mov	r3, r0
 1276 0066 002B     		cmp	r3, #0
 1277 0068 76D1     		bne	.L53
 296:.\ring_buffer.c **** 	{															//	 ^
 297:.\ring_buffer.c **** 		while(i < size)
 1278              		.loc 1 297 0
 1279 006a 0FE0     		b	.L54
 1280              	.L57:
 298:.\ring_buffer.c **** 		{
 299:.\ring_buffer.c **** 			if(RBF_ucByteIn(ucIndex, msg[i]) == RBF_SUCCESS)	// | size | d0 | d1 | ... | dn | size |
 1281              		.loc 1 299 0
 1282 006c BA69     		ldr	r2, [r7, #24]
 1283 006e BB68     		ldr	r3, [r7, #8]
 1284 0070 1344     		add	r3, r2, r3
 1285 0072 1B78     		ldrb	r3, [r3, #0]	@ zero_extendqisi2
 1286 0074 FA7B     		ldrb	r2, [r7, #15]	@ zero_extendqisi2
 1287 0076 1046     		mov	r0, r2
 1288 0078 1946     		mov	r1, r3
 1289 007a FFF7FEFF 		bl	RBF_ucByteIn
ARM GAS  C:\Users\Martin\AppData\Local\Temp\ccuhJpPE.s 			page 29


 1290 007e 0346     		mov	r3, r0
 1291 0080 002B     		cmp	r3, #0
 1292 0082 08D1     		bne	.L70
 300:.\ring_buffer.c **** 			{													//	 		^        -->       |
 301:.\ring_buffer.c **** 				i++;
 1293              		.loc 1 301 0
 1294 0084 BB69     		ldr	r3, [r7, #24]
 1295 0086 03F10103 		add	r3, r3, #1
 1296 008a BB61     		str	r3, [r7, #24]
 1297              	.L54:
 1298              		.loc 1 297 0
 1299 008c FA79     		ldrb	r2, [r7, #7]	@ zero_extendqisi2
 1300 008e BB69     		ldr	r3, [r7, #24]
 1301 0090 9A42     		cmp	r2, r3
 1302 0092 EBDC     		bgt	.L57
 1303 0094 00E0     		b	.L56
 1304              	.L70:
 302:.\ring_buffer.c **** 			}
 303:.\ring_buffer.c **** 			else
 304:.\ring_buffer.c **** 			{
 305:.\ring_buffer.c **** 				break; //no more bytes or buffer full
 1305              		.loc 1 305 0
 1306 0096 00BF     		nop
 1307              	.L56:
 306:.\ring_buffer.c **** 			}
 307:.\ring_buffer.c **** 		}
 308:.\ring_buffer.c **** 		
 309:.\ring_buffer.c **** 		// check if message complete
 310:.\ring_buffer.c **** 		if (i == size)
 1308              		.loc 1 310 0
 1309 0098 FA79     		ldrb	r2, [r7, #7]	@ zero_extendqisi2
 1310 009a BB69     		ldr	r3, [r7, #24]
 1311 009c 9A42     		cmp	r2, r3
 1312 009e 57D1     		bne	.L65
 311:.\ring_buffer.c **** 		{
 312:.\ring_buffer.c **** 			// add message size as last byte
 313:.\ring_buffer.c **** 			if(RBF_ucByteIn(ucIndex, size) == RBF_SUCCESS)		// | size | d0 | d1 | ... | dn | size |
 1313              		.loc 1 313 0
 1314 00a0 FA7B     		ldrb	r2, [r7, #15]	@ zero_extendqisi2
 1315 00a2 FB79     		ldrb	r3, [r7, #7]	@ zero_extendqisi2
 1316 00a4 1046     		mov	r0, r2
 1317 00a6 1946     		mov	r1, r3
 1318 00a8 FFF7FEFF 		bl	RBF_ucByteIn
 1319 00ac 0346     		mov	r3, r0
 1320 00ae 002B     		cmp	r3, #0
 1321 00b0 37D1     		bne	.L61
 314:.\ring_buffer.c **** 			{													//	 							 ^
 315:.\ring_buffer.c **** 				RingBuffer[ucIndex].msgcount++;
 1322              		.loc 1 315 0
 1323 00b2 FA7B     		ldrb	r2, [r7, #15]	@ zero_extendqisi2
 1324 00b4 40F20001 		movw	r1, #:lower16:RingBuffer
 1325 00b8 C0F20001 		movt	r1, #:upper16:RingBuffer
 1326 00bc 1346     		mov	r3, r2
 1327 00be 4FEA8303 		lsl	r3, r3, #2
 1328 00c2 1344     		add	r3, r3, r2
 1329 00c4 4FEA8303 		lsl	r3, r3, #2
 1330 00c8 0B44     		add	r3, r3, r1
ARM GAS  C:\Users\Martin\AppData\Local\Temp\ccuhJpPE.s 			page 30


 1331 00ca 03F11003 		add	r3, r3, #16
 1332 00ce 1B88     		ldrh	r3, [r3, #0]
 1333 00d0 03F10103 		add	r3, r3, #1
 1334 00d4 98B2     		uxth	r0, r3
 1335 00d6 40F20001 		movw	r1, #:lower16:RingBuffer
 1336 00da C0F20001 		movt	r1, #:upper16:RingBuffer
 1337 00de 1346     		mov	r3, r2
 1338 00e0 4FEA8303 		lsl	r3, r3, #2
 1339 00e4 1344     		add	r3, r3, r2
 1340 00e6 4FEA8303 		lsl	r3, r3, #2
 1341 00ea 0B44     		add	r3, r3, r1
 1342 00ec 03F11003 		add	r3, r3, #16
 1343 00f0 0246     		mov	r2, r0	@ movhi
 1344 00f2 1A80     		strh	r2, [r3, #0]	@ movhi
 316:.\ring_buffer.c **** 				status = RBF_SUCCESS;
 1345              		.loc 1 316 0
 1346 00f4 4FF00003 		mov	r3, #0
 1347 00f8 FB75     		strb	r3, [r7, #23]
 317:.\ring_buffer.c **** 			}
 318:.\ring_buffer.c **** 			else
 319:.\ring_buffer.c **** 			{
 320:.\ring_buffer.c **** 				while(i >= 0)	// delete already written message bytes plus size byte at beginning
 321:.\ring_buffer.c **** 				{
 322:.\ring_buffer.c **** 					if(RBF_ucHeadByteOut(ucIndex, &temp) == RBF_FAIL)
 323:.\ring_buffer.c **** 					{
 324:.\ring_buffer.c **** 						status = RBF_ERROR;
 325:.\ring_buffer.c **** 						break;
 326:.\ring_buffer.c **** 					}
 327:.\ring_buffer.c **** 					i--;
 328:.\ring_buffer.c **** 				}
 329:.\ring_buffer.c **** 			}
 330:.\ring_buffer.c **** 		}
 331:.\ring_buffer.c **** 		else
 332:.\ring_buffer.c **** 		{
 333:.\ring_buffer.c **** 			while(i >= 0)	// delete already written message bytes plus size byte at beginning
 1348              		.loc 1 333 0
 1349 00fa 30E0     		b	.L68
 1350              	.L63:
 1351              		.loc 1 322 0
 1352 00fc FA7B     		ldrb	r2, [r7, #15]	@ zero_extendqisi2
 1353 00fe 07F11603 		add	r3, r7, #22
 1354 0102 1046     		mov	r0, r2
 1355 0104 1946     		mov	r1, r3
 1356 0106 FFF7FEFF 		bl	RBF_ucHeadByteOut
 1357 010a 0346     		mov	r3, r0
 1358 010c 012B     		cmp	r3, #1
 1359 010e 04D1     		bne	.L62
 1360              		.loc 1 324 0
 1361 0110 4FF0FF33 		mov	r3, #-1
 1362 0114 FB75     		strb	r3, [r7, #23]
 1363              		.loc 1 325 0
 1364 0116 00BF     		nop
 1365              		.loc 1 333 0
 1366 0118 21E0     		b	.L68
 1367              	.L62:
 1368              		.loc 1 327 0
 1369 011a BB69     		ldr	r3, [r7, #24]
ARM GAS  C:\Users\Martin\AppData\Local\Temp\ccuhJpPE.s 			page 31


 1370 011c 03F1FF33 		add	r3, r3, #-1
 1371 0120 BB61     		str	r3, [r7, #24]
 1372              	.L61:
 1373              		.loc 1 320 0
 1374 0122 BB69     		ldr	r3, [r7, #24]
 1375 0124 002B     		cmp	r3, #0
 1376 0126 E9DA     		bge	.L63
 1377              		.loc 1 333 0
 1378 0128 19E0     		b	.L68
 1379              	.L67:
 334:.\ring_buffer.c **** 			{
 335:.\ring_buffer.c **** 				if(RBF_ucHeadByteOut(ucIndex, &temp) == RBF_FAIL)
 1380              		.loc 1 335 0
 1381 012a FA7B     		ldrb	r2, [r7, #15]	@ zero_extendqisi2
 1382 012c 07F11603 		add	r3, r7, #22
 1383 0130 1046     		mov	r0, r2
 1384 0132 1946     		mov	r1, r3
 1385 0134 FFF7FEFF 		bl	RBF_ucHeadByteOut
 1386 0138 0346     		mov	r3, r0
 1387 013a 012B     		cmp	r3, #1
 1388 013c 04D1     		bne	.L66
 336:.\ring_buffer.c **** 				{
 337:.\ring_buffer.c **** 					status = RBF_ERROR;
 1389              		.loc 1 337 0
 1390 013e 4FF0FF33 		mov	r3, #-1
 1391 0142 FB75     		strb	r3, [r7, #23]
 338:.\ring_buffer.c **** 					break;
 1392              		.loc 1 338 0
 1393 0144 00BF     		nop
 1394 0146 0AE0     		b	.L68
 1395              	.L66:
 339:.\ring_buffer.c **** 				}
 340:.\ring_buffer.c **** 				i--;
 1396              		.loc 1 340 0
 1397 0148 BB69     		ldr	r3, [r7, #24]
 1398 014a 03F1FF33 		add	r3, r3, #-1
 1399 014e BB61     		str	r3, [r7, #24]
 1400              	.L65:
 1401              		.loc 1 333 0
 1402 0150 BB69     		ldr	r3, [r7, #24]
 1403 0152 002B     		cmp	r3, #0
 1404 0154 E9DA     		bge	.L67
 1405 0156 02E0     		b	.L68
 1406              	.L53:
 341:.\ring_buffer.c **** 			}
 342:.\ring_buffer.c **** 		}
 343:.\ring_buffer.c **** 		
 344:.\ring_buffer.c **** 	}
 345:.\ring_buffer.c **** 	else
 346:.\ring_buffer.c **** 	{
 347:.\ring_buffer.c **** 		status = RBF_FAIL;
 1407              		.loc 1 347 0
 1408 0158 4FF00103 		mov	r3, #1
 1409 015c FB75     		strb	r3, [r7, #23]
 1410              	.L68:
 348:.\ring_buffer.c **** 	}
 349:.\ring_buffer.c **** 	
ARM GAS  C:\Users\Martin\AppData\Local\Temp\ccuhJpPE.s 			page 32


 350:.\ring_buffer.c **** 	return status;
 1411              		.loc 1 350 0
 1412 015e FB7D     		ldrb	r3, [r7, #23]	@ zero_extendqisi2
 1413              	.L52:
 351:.\ring_buffer.c **** }
 1414              		.loc 1 351 0
 1415 0160 1846     		mov	r0, r3
 1416 0162 07F12007 		add	r7, r7, #32
 1417 0166 BD46     		mov	sp, r7
 1418 0168 80BD     		pop	{r7, pc}
 1419              		.cfi_endproc
 1420              	.LFE37:
 1421              		.size	RBF_ucMsgIn, .-RBF_ucMsgIn
 1422 016a 00BF     		.section	.text.RBF_ucHeadMsgOut,"ax",%progbits
 1423              		.align	2
 1424              		.global	RBF_ucHeadMsgOut
 1425              		.thumb
 1426              		.thumb_func
 1427              		.type	RBF_ucHeadMsgOut, %function
 1428              	RBF_ucHeadMsgOut:
 1429              	.LFB38:
 352:.\ring_buffer.c **** /*****************************************************************/
 353:.\ring_buffer.c **** /**
 354:.\ring_buffer.c **** 	Example:
 355:.\ring_buffer.c **** 	
 356:.\ring_buffer.c **** 	| size | d0 | d1 | ... | dn | size | size | d0 | d1 | ... | dn | size |
 357:.\ring_buffer.c **** 	  ^																 ^
 358:.\ring_buffer.c **** 	  tail															 head
 359:.\ring_buffer.c **** 																	 ----
 360:.\ring_buffer.c **** */
 361:.\ring_buffer.c **** uint8_t RBF_ucHeadMsgOut(uint8_t ucIndex, uint8_t* target, uint8_t* size)
 362:.\ring_buffer.c **** {
 1430              		.loc 1 362 0
 1431              		.cfi_startproc
 1432              		@ args = 0, pretend = 0, frame = 24
 1433              		@ frame_needed = 1, uses_anonymous_args = 0
 1434 0000 80B5     		push	{r7, lr}
 1435              	.LCFI26:
 1436              		.cfi_def_cfa_offset 8
 1437 0002 86B0     		sub	sp, sp, #24
 1438              	.LCFI27:
 1439              		.cfi_def_cfa_offset 32
 1440 0004 00AF     		add	r7, sp, #0
 1441              		.cfi_offset 14, -4
 1442              		.cfi_offset 7, -8
 1443              	.LCFI28:
 1444              		.cfi_def_cfa_register 7
 1445 0006 0346     		mov	r3, r0
 1446 0008 B960     		str	r1, [r7, #8]
 1447 000a 7A60     		str	r2, [r7, #4]
 1448 000c FB73     		strb	r3, [r7, #15]
 363:.\ring_buffer.c ****     STATUS status;
 364:.\ring_buffer.c **** 	int i=0;
 1449              		.loc 1 364 0
 1450 000e 4FF00003 		mov	r3, #0
 1451 0012 7B61     		str	r3, [r7, #20]
 365:.\ring_buffer.c **** 	uint8_t temp;
ARM GAS  C:\Users\Martin\AppData\Local\Temp\ccuhJpPE.s 			page 33


 366:.\ring_buffer.c **** 	
 367:.\ring_buffer.c **** 	// 1st byte = message size		
 368:.\ring_buffer.c **** 	if(RBF_ucHeadByteOut(ucIndex, size) == RBF_SUCCESS)		// | size | d0 | d1 | ... | dn | size |
 1452              		.loc 1 368 0
 1453 0014 FB7B     		ldrb	r3, [r7, #15]	@ zero_extendqisi2
 1454 0016 1846     		mov	r0, r3
 1455 0018 7968     		ldr	r1, [r7, #4]
 1456 001a FFF7FEFF 		bl	RBF_ucHeadByteOut
 1457 001e 0346     		mov	r3, r0
 1458 0020 002B     		cmp	r3, #0
 1459 0022 7CD1     		bne	.L72
 369:.\ring_buffer.c **** 	{																	//	 							 ^
 370:.\ring_buffer.c **** 		if (*size > 0)
 1460              		.loc 1 370 0
 1461 0024 7B68     		ldr	r3, [r7, #4]
 1462 0026 1B78     		ldrb	r3, [r3, #0]	@ zero_extendqisi2
 1463 0028 002B     		cmp	r3, #0
 1464 002a 6FD0     		beq	.L73
 371:.\ring_buffer.c **** 		{
 372:.\ring_buffer.c **** 			while(i < *size)
 1465              		.loc 1 372 0
 1466 002c 1EE0     		b	.L74
 1467              	.L77:
 373:.\ring_buffer.c **** 			{
 374:.\ring_buffer.c **** 				// message data bytes
 375:.\ring_buffer.c **** 				if(RBF_ucHeadByteOut(ucIndex, &target[*size-1-i]) == RBF_SUCCESS)	// | size | d0 | d1 | ... | d
 1468              		.loc 1 375 0
 1469 002e 7B68     		ldr	r3, [r7, #4]
 1470 0030 1B78     		ldrb	r3, [r3, #0]	@ zero_extendqisi2
 1471 0032 03F1FF32 		add	r2, r3, #-1
 1472 0036 7B69     		ldr	r3, [r7, #20]
 1473 0038 C3EB0203 		rsb	r3, r3, r2
 1474 003c 1A46     		mov	r2, r3
 1475 003e BB68     		ldr	r3, [r7, #8]
 1476 0040 1344     		add	r3, r2, r3
 1477 0042 FA7B     		ldrb	r2, [r7, #15]	@ zero_extendqisi2
 1478 0044 1046     		mov	r0, r2
 1479 0046 1946     		mov	r1, r3
 1480 0048 FFF7FEFF 		bl	RBF_ucHeadByteOut
 1481 004c 0346     		mov	r3, r0
 1482 004e 002B     		cmp	r3, #0
 1483 0050 04D1     		bne	.L75
 376:.\ring_buffer.c **** 				{																	//	 	  |			<--		^
 377:.\ring_buffer.c **** 					i++;
 1484              		.loc 1 377 0
 1485 0052 7B69     		ldr	r3, [r7, #20]
 1486 0054 03F10103 		add	r3, r3, #1
 1487 0058 7B61     		str	r3, [r7, #20]
 1488 005a 07E0     		b	.L74
 1489              	.L75:
 378:.\ring_buffer.c **** 				}
 379:.\ring_buffer.c **** 				else
 380:.\ring_buffer.c **** 				{
 381:.\ring_buffer.c **** 					*size = 0;
 1490              		.loc 1 381 0
 1491 005c 7B68     		ldr	r3, [r7, #4]
 1492 005e 4FF00002 		mov	r2, #0
ARM GAS  C:\Users\Martin\AppData\Local\Temp\ccuhJpPE.s 			page 34


 1493 0062 1A70     		strb	r2, [r3, #0]
 382:.\ring_buffer.c **** 					status = RBF_ERROR;	// this should never happen, buffer must be cleared
 1494              		.loc 1 382 0
 1495 0064 4FF0FF33 		mov	r3, #-1
 1496 0068 FB74     		strb	r3, [r7, #19]
 383:.\ring_buffer.c **** 					break; 
 1497              		.loc 1 383 0
 1498 006a 05E0     		b	.L76
 1499              	.L74:
 1500              		.loc 1 372 0
 1501 006c 7B68     		ldr	r3, [r7, #4]
 1502 006e 1B78     		ldrb	r3, [r3, #0]	@ zero_extendqisi2
 1503 0070 1A46     		mov	r2, r3
 1504 0072 7B69     		ldr	r3, [r7, #20]
 1505 0074 9A42     		cmp	r2, r3
 1506 0076 DADC     		bgt	.L77
 1507              	.L76:
 384:.\ring_buffer.c **** 				}
 385:.\ring_buffer.c **** 			}
 386:.\ring_buffer.c **** 			
 387:.\ring_buffer.c **** 			if (i == *size)
 1508              		.loc 1 387 0
 1509 0078 7B68     		ldr	r3, [r7, #4]
 1510 007a 1B78     		ldrb	r3, [r3, #0]	@ zero_extendqisi2
 1511 007c 1A46     		mov	r2, r3
 1512 007e 7B69     		ldr	r3, [r7, #20]
 1513 0080 9A42     		cmp	r2, r3
 1514 0082 3BD1     		bne	.L78
 388:.\ring_buffer.c **** 			{
 389:.\ring_buffer.c **** 				// get size byte at beginning of message 
 390:.\ring_buffer.c **** 				if(RBF_ucHeadByteOut(ucIndex, &temp) == RBF_SUCCESS)	// | size | d0 | d1 | ... | dn | size |
 1515              		.loc 1 390 0
 1516 0084 FA7B     		ldrb	r2, [r7, #15]	@ zero_extendqisi2
 1517 0086 07F11203 		add	r3, r7, #18
 1518 008a 1046     		mov	r0, r2
 1519 008c 1946     		mov	r1, r3
 1520 008e FFF7FEFF 		bl	RBF_ucHeadByteOut
 1521 0092 0346     		mov	r3, r0
 1522 0094 002B     		cmp	r3, #0
 1523 0096 41D1     		bne	.L83
 391:.\ring_buffer.c **** 				{														//	 ^
 392:.\ring_buffer.c **** 					if (temp == *size)
 1524              		.loc 1 392 0
 1525 0098 7B68     		ldr	r3, [r7, #4]
 1526 009a 1A78     		ldrb	r2, [r3, #0]	@ zero_extendqisi2
 1527 009c BB7C     		ldrb	r3, [r7, #18]	@ zero_extendqisi2
 1528 009e 9A42     		cmp	r2, r3
 1529 00a0 24D1     		bne	.L80
 393:.\ring_buffer.c **** 					{
 394:.\ring_buffer.c **** 						RingBuffer[ucIndex].msgcount--;
 1530              		.loc 1 394 0
 1531 00a2 FA7B     		ldrb	r2, [r7, #15]	@ zero_extendqisi2
 1532 00a4 40F20001 		movw	r1, #:lower16:RingBuffer
 1533 00a8 C0F20001 		movt	r1, #:upper16:RingBuffer
 1534 00ac 1346     		mov	r3, r2
 1535 00ae 4FEA8303 		lsl	r3, r3, #2
 1536 00b2 1344     		add	r3, r3, r2
ARM GAS  C:\Users\Martin\AppData\Local\Temp\ccuhJpPE.s 			page 35


 1537 00b4 4FEA8303 		lsl	r3, r3, #2
 1538 00b8 0B44     		add	r3, r3, r1
 1539 00ba 03F11003 		add	r3, r3, #16
 1540 00be 1B88     		ldrh	r3, [r3, #0]
 1541 00c0 03F1FF33 		add	r3, r3, #-1
 1542 00c4 98B2     		uxth	r0, r3
 1543 00c6 40F20001 		movw	r1, #:lower16:RingBuffer
 1544 00ca C0F20001 		movt	r1, #:upper16:RingBuffer
 1545 00ce 1346     		mov	r3, r2
 1546 00d0 4FEA8303 		lsl	r3, r3, #2
 1547 00d4 1344     		add	r3, r3, r2
 1548 00d6 4FEA8303 		lsl	r3, r3, #2
 1549 00da 0B44     		add	r3, r3, r1
 1550 00dc 03F11003 		add	r3, r3, #16
 1551 00e0 0246     		mov	r2, r0	@ movhi
 1552 00e2 1A80     		strh	r2, [r3, #0]	@ movhi
 395:.\ring_buffer.c **** 						status = RBF_SUCCESS;
 1553              		.loc 1 395 0
 1554 00e4 4FF00003 		mov	r3, #0
 1555 00e8 FB74     		strb	r3, [r7, #19]
 396:.\ring_buffer.c **** 					}
 397:.\ring_buffer.c **** 					else
 398:.\ring_buffer.c **** 					{
 399:.\ring_buffer.c **** 						*size = 0;
 400:.\ring_buffer.c **** 						status = RBF_ERROR;	// this should never happen, buffer must be cleared
 401:.\ring_buffer.c **** 					}
 402:.\ring_buffer.c **** 				}
 403:.\ring_buffer.c **** 			}
 404:.\ring_buffer.c **** 			else
 405:.\ring_buffer.c **** 			{
 406:.\ring_buffer.c **** 				*size = 0;
 407:.\ring_buffer.c **** 				status = RBF_ERROR;	// this should never happen, buffer must be cleared
 1556              		.loc 1 407 0
 1557 00ea 18E0     		b	.L72
 1558              	.L80:
 1559              		.loc 1 399 0
 1560 00ec 7B68     		ldr	r3, [r7, #4]
 1561 00ee 4FF00002 		mov	r2, #0
 1562 00f2 1A70     		strb	r2, [r3, #0]
 1563              		.loc 1 400 0
 1564 00f4 4FF0FF33 		mov	r3, #-1
 1565 00f8 FB74     		strb	r3, [r7, #19]
 1566              		.loc 1 407 0
 1567 00fa 10E0     		b	.L72
 1568              	.L78:
 1569              		.loc 1 406 0
 1570 00fc 7B68     		ldr	r3, [r7, #4]
 1571 00fe 4FF00002 		mov	r2, #0
 1572 0102 1A70     		strb	r2, [r3, #0]
 1573              		.loc 1 407 0
 1574 0104 4FF0FF33 		mov	r3, #-1
 1575 0108 FB74     		strb	r3, [r7, #19]
 1576 010a 08E0     		b	.L72
 1577              	.L73:
 408:.\ring_buffer.c **** 			}	
 409:.\ring_buffer.c **** 		}
 410:.\ring_buffer.c **** 		else
ARM GAS  C:\Users\Martin\AppData\Local\Temp\ccuhJpPE.s 			page 36


 411:.\ring_buffer.c **** 		{
 412:.\ring_buffer.c **** 			*size = 0;
 1578              		.loc 1 412 0
 1579 010c 7B68     		ldr	r3, [r7, #4]
 1580 010e 4FF00002 		mov	r2, #0
 1581 0112 1A70     		strb	r2, [r3, #0]
 413:.\ring_buffer.c **** 			status = RBF_EMPTY;
 1582              		.loc 1 413 0
 1583 0114 6FF00303 		mvn	r3, #3
 1584 0118 FB74     		strb	r3, [r7, #19]
 1585 011a 00E0     		b	.L72
 1586              	.L83:
 1587              		.loc 1 407 0
 1588 011c 00BF     		nop
 1589              	.L72:
 414:.\ring_buffer.c **** 		}
 415:.\ring_buffer.c **** 	}
 416:.\ring_buffer.c **** 	
 417:.\ring_buffer.c **** 	
 418:.\ring_buffer.c **** 	return status;
 1590              		.loc 1 418 0
 1591 011e FB7C     		ldrb	r3, [r7, #19]	@ zero_extendqisi2
 419:.\ring_buffer.c **** }
 1592              		.loc 1 419 0
 1593 0120 1846     		mov	r0, r3
 1594 0122 07F11807 		add	r7, r7, #24
 1595 0126 BD46     		mov	sp, r7
 1596 0128 80BD     		pop	{r7, pc}
 1597              		.cfi_endproc
 1598              	.LFE38:
 1599              		.size	RBF_ucHeadMsgOut, .-RBF_ucHeadMsgOut
 1600 012a 00BF     		.section	.text.RBF_ucTailMsgOut,"ax",%progbits
 1601              		.align	2
 1602              		.global	RBF_ucTailMsgOut
 1603              		.thumb
 1604              		.thumb_func
 1605              		.type	RBF_ucTailMsgOut, %function
 1606              	RBF_ucTailMsgOut:
 1607              	.LFB39:
 420:.\ring_buffer.c **** /*****************************************************************/
 421:.\ring_buffer.c **** /**
 422:.\ring_buffer.c **** 	Example:
 423:.\ring_buffer.c **** 	
 424:.\ring_buffer.c **** 	| size | d0 | d1 | ... | dn | size | size | d0 | d1 | ... | dn | size |
 425:.\ring_buffer.c **** 	  ^																 ^
 426:.\ring_buffer.c **** 	  tail															 head
 427:.\ring_buffer.c **** 	  ----
 428:.\ring_buffer.c **** */
 429:.\ring_buffer.c **** uint8_t RBF_ucTailMsgOut(uint8_t ucIndex, uint8_t* target, uint8_t* size)
 430:.\ring_buffer.c **** {
 1608              		.loc 1 430 0
 1609              		.cfi_startproc
 1610              		@ args = 0, pretend = 0, frame = 24
 1611              		@ frame_needed = 1, uses_anonymous_args = 0
 1612 0000 80B5     		push	{r7, lr}
 1613              	.LCFI29:
 1614              		.cfi_def_cfa_offset 8
ARM GAS  C:\Users\Martin\AppData\Local\Temp\ccuhJpPE.s 			page 37


 1615 0002 86B0     		sub	sp, sp, #24
 1616              	.LCFI30:
 1617              		.cfi_def_cfa_offset 32
 1618 0004 00AF     		add	r7, sp, #0
 1619              		.cfi_offset 14, -4
 1620              		.cfi_offset 7, -8
 1621              	.LCFI31:
 1622              		.cfi_def_cfa_register 7
 1623 0006 0346     		mov	r3, r0
 1624 0008 B960     		str	r1, [r7, #8]
 1625 000a 7A60     		str	r2, [r7, #4]
 1626 000c FB73     		strb	r3, [r7, #15]
 431:.\ring_buffer.c ****     STATUS status;
 432:.\ring_buffer.c **** 	int i=0;
 1627              		.loc 1 432 0
 1628 000e 4FF00003 		mov	r3, #0
 1629 0012 7B61     		str	r3, [r7, #20]
 433:.\ring_buffer.c **** 	uint8_t temp;
 434:.\ring_buffer.c **** 	
 435:.\ring_buffer.c **** 	// 1st byte = message size		
 436:.\ring_buffer.c **** 	if(RBF_ucTailByteOut(ucIndex, size) == RBF_SUCCESS)		// | size | d0 | d1 | ... | dn | size |
 1630              		.loc 1 436 0
 1631 0014 FB7B     		ldrb	r3, [r7, #15]	@ zero_extendqisi2
 1632 0016 1846     		mov	r0, r3
 1633 0018 7968     		ldr	r1, [r7, #4]
 1634 001a FFF7FEFF 		bl	RBF_ucTailByteOut
 1635 001e 0346     		mov	r3, r0
 1636 0020 002B     		cmp	r3, #0
 1637 0022 75D1     		bne	.L85
 437:.\ring_buffer.c **** 	{																	//	 ^
 438:.\ring_buffer.c **** 		if (*size > 0)
 1638              		.loc 1 438 0
 1639 0024 7B68     		ldr	r3, [r7, #4]
 1640 0026 1B78     		ldrb	r3, [r3, #0]	@ zero_extendqisi2
 1641 0028 002B     		cmp	r3, #0
 1642 002a 68D0     		beq	.L86
 439:.\ring_buffer.c **** 		{
 440:.\ring_buffer.c **** 			while(i < *size)
 1643              		.loc 1 440 0
 1644 002c 17E0     		b	.L87
 1645              	.L90:
 441:.\ring_buffer.c **** 			{
 442:.\ring_buffer.c **** 				// message data bytes
 443:.\ring_buffer.c **** 				if(RBF_ucTailByteOut(ucIndex, &target[i]) == RBF_SUCCESS)	// | size | d0 | d1 | ... | dn | size
 1646              		.loc 1 443 0
 1647 002e 7A69     		ldr	r2, [r7, #20]
 1648 0030 BB68     		ldr	r3, [r7, #8]
 1649 0032 1344     		add	r3, r2, r3
 1650 0034 FA7B     		ldrb	r2, [r7, #15]	@ zero_extendqisi2
 1651 0036 1046     		mov	r0, r2
 1652 0038 1946     		mov	r1, r3
 1653 003a FFF7FEFF 		bl	RBF_ucTailByteOut
 1654 003e 0346     		mov	r3, r0
 1655 0040 002B     		cmp	r3, #0
 1656 0042 04D1     		bne	.L88
 444:.\ring_buffer.c **** 				{															//	 	    ^	   -->		   |
 445:.\ring_buffer.c **** 					i++;
ARM GAS  C:\Users\Martin\AppData\Local\Temp\ccuhJpPE.s 			page 38


 1657              		.loc 1 445 0
 1658 0044 7B69     		ldr	r3, [r7, #20]
 1659 0046 03F10103 		add	r3, r3, #1
 1660 004a 7B61     		str	r3, [r7, #20]
 1661 004c 07E0     		b	.L87
 1662              	.L88:
 446:.\ring_buffer.c **** 				}
 447:.\ring_buffer.c **** 				else
 448:.\ring_buffer.c **** 				{
 449:.\ring_buffer.c **** 					*size = 0;
 1663              		.loc 1 449 0
 1664 004e 7B68     		ldr	r3, [r7, #4]
 1665 0050 4FF00002 		mov	r2, #0
 1666 0054 1A70     		strb	r2, [r3, #0]
 450:.\ring_buffer.c **** 					status = RBF_ERROR;	// this should never happen, buffer must be cleared
 1667              		.loc 1 450 0
 1668 0056 4FF0FF33 		mov	r3, #-1
 1669 005a FB74     		strb	r3, [r7, #19]
 451:.\ring_buffer.c **** 					break; 
 1670              		.loc 1 451 0
 1671 005c 05E0     		b	.L89
 1672              	.L87:
 1673              		.loc 1 440 0
 1674 005e 7B68     		ldr	r3, [r7, #4]
 1675 0060 1B78     		ldrb	r3, [r3, #0]	@ zero_extendqisi2
 1676 0062 1A46     		mov	r2, r3
 1677 0064 7B69     		ldr	r3, [r7, #20]
 1678 0066 9A42     		cmp	r2, r3
 1679 0068 E1DC     		bgt	.L90
 1680              	.L89:
 452:.\ring_buffer.c **** 				}
 453:.\ring_buffer.c **** 			}
 454:.\ring_buffer.c **** 			
 455:.\ring_buffer.c **** 			if (i == *size)
 1681              		.loc 1 455 0
 1682 006a 7B68     		ldr	r3, [r7, #4]
 1683 006c 1B78     		ldrb	r3, [r3, #0]	@ zero_extendqisi2
 1684 006e 1A46     		mov	r2, r3
 1685 0070 7B69     		ldr	r3, [r7, #20]
 1686 0072 9A42     		cmp	r2, r3
 1687 0074 3BD1     		bne	.L91
 456:.\ring_buffer.c **** 			{
 457:.\ring_buffer.c **** 				// get size byte at beginning of message 
 458:.\ring_buffer.c **** 				if(RBF_ucTailByteOut(ucIndex, &temp) == RBF_SUCCESS)	// | size | d0 | d1 | ... | dn | size |
 1688              		.loc 1 458 0
 1689 0076 FA7B     		ldrb	r2, [r7, #15]	@ zero_extendqisi2
 1690 0078 07F11203 		add	r3, r7, #18
 1691 007c 1046     		mov	r0, r2
 1692 007e 1946     		mov	r1, r3
 1693 0080 FFF7FEFF 		bl	RBF_ucTailByteOut
 1694 0084 0346     		mov	r3, r0
 1695 0086 002B     		cmp	r3, #0
 1696 0088 41D1     		bne	.L96
 459:.\ring_buffer.c **** 				{														//	 							 ^
 460:.\ring_buffer.c **** 					if (temp == *size)
 1697              		.loc 1 460 0
 1698 008a 7B68     		ldr	r3, [r7, #4]
ARM GAS  C:\Users\Martin\AppData\Local\Temp\ccuhJpPE.s 			page 39


 1699 008c 1A78     		ldrb	r2, [r3, #0]	@ zero_extendqisi2
 1700 008e BB7C     		ldrb	r3, [r7, #18]	@ zero_extendqisi2
 1701 0090 9A42     		cmp	r2, r3
 1702 0092 24D1     		bne	.L93
 461:.\ring_buffer.c **** 					{
 462:.\ring_buffer.c **** 						RingBuffer[ucIndex].msgcount--;
 1703              		.loc 1 462 0
 1704 0094 FA7B     		ldrb	r2, [r7, #15]	@ zero_extendqisi2
 1705 0096 40F20001 		movw	r1, #:lower16:RingBuffer
 1706 009a C0F20001 		movt	r1, #:upper16:RingBuffer
 1707 009e 1346     		mov	r3, r2
 1708 00a0 4FEA8303 		lsl	r3, r3, #2
 1709 00a4 1344     		add	r3, r3, r2
 1710 00a6 4FEA8303 		lsl	r3, r3, #2
 1711 00aa 0B44     		add	r3, r3, r1
 1712 00ac 03F11003 		add	r3, r3, #16
 1713 00b0 1B88     		ldrh	r3, [r3, #0]
 1714 00b2 03F1FF33 		add	r3, r3, #-1
 1715 00b6 98B2     		uxth	r0, r3
 1716 00b8 40F20001 		movw	r1, #:lower16:RingBuffer
 1717 00bc C0F20001 		movt	r1, #:upper16:RingBuffer
 1718 00c0 1346     		mov	r3, r2
 1719 00c2 4FEA8303 		lsl	r3, r3, #2
 1720 00c6 1344     		add	r3, r3, r2
 1721 00c8 4FEA8303 		lsl	r3, r3, #2
 1722 00cc 0B44     		add	r3, r3, r1
 1723 00ce 03F11003 		add	r3, r3, #16
 1724 00d2 0246     		mov	r2, r0	@ movhi
 1725 00d4 1A80     		strh	r2, [r3, #0]	@ movhi
 463:.\ring_buffer.c **** 						status = RBF_SUCCESS;
 1726              		.loc 1 463 0
 1727 00d6 4FF00003 		mov	r3, #0
 1728 00da FB74     		strb	r3, [r7, #19]
 464:.\ring_buffer.c **** 					}
 465:.\ring_buffer.c **** 					else
 466:.\ring_buffer.c **** 					{
 467:.\ring_buffer.c **** 						*size = 0;
 468:.\ring_buffer.c **** 						status = RBF_ERROR;	// this should never happen, buffer must be cleared
 469:.\ring_buffer.c **** 					}
 470:.\ring_buffer.c **** 				}
 471:.\ring_buffer.c **** 			}
 472:.\ring_buffer.c **** 			else
 473:.\ring_buffer.c **** 			{
 474:.\ring_buffer.c **** 				*size = 0;
 475:.\ring_buffer.c **** 				status = RBF_ERROR;	// this should never happen, buffer must be cleared
 1729              		.loc 1 475 0
 1730 00dc 18E0     		b	.L85
 1731              	.L93:
 1732              		.loc 1 467 0
 1733 00de 7B68     		ldr	r3, [r7, #4]
 1734 00e0 4FF00002 		mov	r2, #0
 1735 00e4 1A70     		strb	r2, [r3, #0]
 1736              		.loc 1 468 0
 1737 00e6 4FF0FF33 		mov	r3, #-1
 1738 00ea FB74     		strb	r3, [r7, #19]
 1739              		.loc 1 475 0
 1740 00ec 10E0     		b	.L85
ARM GAS  C:\Users\Martin\AppData\Local\Temp\ccuhJpPE.s 			page 40


 1741              	.L91:
 1742              		.loc 1 474 0
 1743 00ee 7B68     		ldr	r3, [r7, #4]
 1744 00f0 4FF00002 		mov	r2, #0
 1745 00f4 1A70     		strb	r2, [r3, #0]
 1746              		.loc 1 475 0
 1747 00f6 4FF0FF33 		mov	r3, #-1
 1748 00fa FB74     		strb	r3, [r7, #19]
 1749 00fc 08E0     		b	.L85
 1750              	.L86:
 476:.\ring_buffer.c **** 			}	
 477:.\ring_buffer.c **** 		}
 478:.\ring_buffer.c **** 		else
 479:.\ring_buffer.c **** 		{
 480:.\ring_buffer.c **** 			*size = 0;
 1751              		.loc 1 480 0
 1752 00fe 7B68     		ldr	r3, [r7, #4]
 1753 0100 4FF00002 		mov	r2, #0
 1754 0104 1A70     		strb	r2, [r3, #0]
 481:.\ring_buffer.c **** 			status = RBF_EMPTY;
 1755              		.loc 1 481 0
 1756 0106 6FF00303 		mvn	r3, #3
 1757 010a FB74     		strb	r3, [r7, #19]
 1758 010c 00E0     		b	.L85
 1759              	.L96:
 1760              		.loc 1 475 0
 1761 010e 00BF     		nop
 1762              	.L85:
 482:.\ring_buffer.c **** 		}
 483:.\ring_buffer.c **** 	}
 484:.\ring_buffer.c **** 	
 485:.\ring_buffer.c **** 	
 486:.\ring_buffer.c **** 	return status;
 1763              		.loc 1 486 0
 1764 0110 FB7C     		ldrb	r3, [r7, #19]	@ zero_extendqisi2
 487:.\ring_buffer.c **** }
 1765              		.loc 1 487 0
 1766 0112 1846     		mov	r0, r3
 1767 0114 07F11807 		add	r7, r7, #24
 1768 0118 BD46     		mov	sp, r7
 1769 011a 80BD     		pop	{r7, pc}
 1770              		.cfi_endproc
 1771              	.LFE39:
 1772              		.size	RBF_ucTailMsgOut, .-RBF_ucTailMsgOut
 1773              		.section	.text.RBF_ucGetMsgCount,"ax",%progbits
 1774              		.align	2
 1775              		.global	RBF_ucGetMsgCount
 1776              		.thumb
 1777              		.thumb_func
 1778              		.type	RBF_ucGetMsgCount, %function
 1779              	RBF_ucGetMsgCount:
 1780              	.LFB40:
 488:.\ring_buffer.c **** /*****************************************************************/
 489:.\ring_buffer.c **** uint8_t RBF_ucGetMsgCount(uint8_t ucIndex)
 490:.\ring_buffer.c **** {
 1781              		.loc 1 490 0
 1782              		.cfi_startproc
ARM GAS  C:\Users\Martin\AppData\Local\Temp\ccuhJpPE.s 			page 41


 1783              		@ args = 0, pretend = 0, frame = 8
 1784              		@ frame_needed = 1, uses_anonymous_args = 0
 1785              		@ link register save eliminated.
 1786 0000 80B4     		push	{r7}
 1787              	.LCFI32:
 1788              		.cfi_def_cfa_offset 4
 1789 0002 83B0     		sub	sp, sp, #12
 1790              	.LCFI33:
 1791              		.cfi_def_cfa_offset 16
 1792 0004 00AF     		add	r7, sp, #0
 1793              		.cfi_offset 7, -4
 1794              	.LCFI34:
 1795              		.cfi_def_cfa_register 7
 1796 0006 0346     		mov	r3, r0
 1797 0008 FB71     		strb	r3, [r7, #7]
 491:.\ring_buffer.c **** 	return RingBuffer[ucIndex].msgcount;
 1798              		.loc 1 491 0
 1799 000a F979     		ldrb	r1, [r7, #7]	@ zero_extendqisi2
 1800 000c 40F20002 		movw	r2, #:lower16:RingBuffer
 1801 0010 C0F20002 		movt	r2, #:upper16:RingBuffer
 1802 0014 0B46     		mov	r3, r1
 1803 0016 4FEA8303 		lsl	r3, r3, #2
 1804 001a 0B44     		add	r3, r3, r1
 1805 001c 4FEA8303 		lsl	r3, r3, #2
 1806 0020 1344     		add	r3, r3, r2
 1807 0022 03F11003 		add	r3, r3, #16
 1808 0026 1B88     		ldrh	r3, [r3, #0]
 1809 0028 DBB2     		uxtb	r3, r3
 492:.\ring_buffer.c **** }	
 1810              		.loc 1 492 0
 1811 002a 1846     		mov	r0, r3
 1812 002c 07F10C07 		add	r7, r7, #12
 1813 0030 BD46     		mov	sp, r7
 1814 0032 80BC     		pop	{r7}
 1815 0034 7047     		bx	lr
 1816              		.cfi_endproc
 1817              	.LFE40:
 1818              		.size	RBF_ucGetMsgCount, .-RBF_ucGetMsgCount
 1819 0036 00BF     		.section	.text.RBF_ucGetByteCount,"ax",%progbits
 1820              		.align	2
 1821              		.global	RBF_ucGetByteCount
 1822              		.thumb
 1823              		.thumb_func
 1824              		.type	RBF_ucGetByteCount, %function
 1825              	RBF_ucGetByteCount:
 1826              	.LFB41:
 493:.\ring_buffer.c **** 
 494:.\ring_buffer.c **** /*****************************************************************/
 495:.\ring_buffer.c **** uint8_t RBF_ucGetByteCount(uint8_t ucIndex)
 496:.\ring_buffer.c **** {
 1827              		.loc 1 496 0
 1828              		.cfi_startproc
 1829              		@ args = 0, pretend = 0, frame = 16
 1830              		@ frame_needed = 1, uses_anonymous_args = 0
 1831              		@ link register save eliminated.
 1832 0000 80B4     		push	{r7}
 1833              	.LCFI35:
ARM GAS  C:\Users\Martin\AppData\Local\Temp\ccuhJpPE.s 			page 42


 1834              		.cfi_def_cfa_offset 4
 1835 0002 85B0     		sub	sp, sp, #20
 1836              	.LCFI36:
 1837              		.cfi_def_cfa_offset 24
 1838 0004 00AF     		add	r7, sp, #0
 1839              		.cfi_offset 7, -4
 1840              	.LCFI37:
 1841              		.cfi_def_cfa_register 7
 1842 0006 0346     		mov	r3, r0
 1843 0008 FB71     		strb	r3, [r7, #7]
 497:.\ring_buffer.c ****     uint8_t bytecount;
 498:.\ring_buffer.c ****     
 499:.\ring_buffer.c ****     if (RingBuffer[ucIndex].head == RingBuffer[ucIndex].tail)
 1844              		.loc 1 499 0
 1845 000a F979     		ldrb	r1, [r7, #7]	@ zero_extendqisi2
 1846 000c 40F20002 		movw	r2, #:lower16:RingBuffer
 1847 0010 C0F20002 		movt	r2, #:upper16:RingBuffer
 1848 0014 0B46     		mov	r3, r1
 1849 0016 4FEA8303 		lsl	r3, r3, #2
 1850 001a 0B44     		add	r3, r3, r1
 1851 001c 4FEA8303 		lsl	r3, r3, #2
 1852 0020 1344     		add	r3, r3, r2
 1853 0022 03F10803 		add	r3, r3, #8
 1854 0026 5888     		ldrh	r0, [r3, #2]
 1855 0028 F979     		ldrb	r1, [r7, #7]	@ zero_extendqisi2
 1856 002a 40F20002 		movw	r2, #:lower16:RingBuffer
 1857 002e C0F20002 		movt	r2, #:upper16:RingBuffer
 1858 0032 0B46     		mov	r3, r1
 1859 0034 4FEA8303 		lsl	r3, r3, #2
 1860 0038 0B44     		add	r3, r3, r1
 1861 003a 4FEA8303 		lsl	r3, r3, #2
 1862 003e 1344     		add	r3, r3, r2
 1863 0040 03F10803 		add	r3, r3, #8
 1864 0044 9B88     		ldrh	r3, [r3, #4]
 1865 0046 9842     		cmp	r0, r3
 1866 0048 03D1     		bne	.L100
 500:.\ring_buffer.c ****     {
 501:.\ring_buffer.c ****         bytecount = 0;
 1867              		.loc 1 501 0
 1868 004a 4FF00003 		mov	r3, #0
 1869 004e FB73     		strb	r3, [r7, #15]
 1870 0050 79E0     		b	.L101
 1871              	.L100:
 502:.\ring_buffer.c ****     }
 503:.\ring_buffer.c ****     else if (RingBuffer[ucIndex].head > RingBuffer[ucIndex].tail)
 1872              		.loc 1 503 0
 1873 0052 F979     		ldrb	r1, [r7, #7]	@ zero_extendqisi2
 1874 0054 40F20002 		movw	r2, #:lower16:RingBuffer
 1875 0058 C0F20002 		movt	r2, #:upper16:RingBuffer
 1876 005c 0B46     		mov	r3, r1
 1877 005e 4FEA8303 		lsl	r3, r3, #2
 1878 0062 0B44     		add	r3, r3, r1
 1879 0064 4FEA8303 		lsl	r3, r3, #2
 1880 0068 1344     		add	r3, r3, r2
 1881 006a 03F10803 		add	r3, r3, #8
 1882 006e 5888     		ldrh	r0, [r3, #2]
 1883 0070 F979     		ldrb	r1, [r7, #7]	@ zero_extendqisi2
ARM GAS  C:\Users\Martin\AppData\Local\Temp\ccuhJpPE.s 			page 43


 1884 0072 40F20002 		movw	r2, #:lower16:RingBuffer
 1885 0076 C0F20002 		movt	r2, #:upper16:RingBuffer
 1886 007a 0B46     		mov	r3, r1
 1887 007c 4FEA8303 		lsl	r3, r3, #2
 1888 0080 0B44     		add	r3, r3, r1
 1889 0082 4FEA8303 		lsl	r3, r3, #2
 1890 0086 1344     		add	r3, r3, r2
 1891 0088 03F10803 		add	r3, r3, #8
 1892 008c 9B88     		ldrh	r3, [r3, #4]
 1893 008e 9842     		cmp	r0, r3
 1894 0090 23D9     		bls	.L102
 504:.\ring_buffer.c ****     {
 505:.\ring_buffer.c ****         bytecount = RingBuffer[ucIndex].head - RingBuffer[ucIndex].tail;
 1895              		.loc 1 505 0
 1896 0092 F979     		ldrb	r1, [r7, #7]	@ zero_extendqisi2
 1897 0094 40F20002 		movw	r2, #:lower16:RingBuffer
 1898 0098 C0F20002 		movt	r2, #:upper16:RingBuffer
 1899 009c 0B46     		mov	r3, r1
 1900 009e 4FEA8303 		lsl	r3, r3, #2
 1901 00a2 0B44     		add	r3, r3, r1
 1902 00a4 4FEA8303 		lsl	r3, r3, #2
 1903 00a8 1344     		add	r3, r3, r2
 1904 00aa 03F10803 		add	r3, r3, #8
 1905 00ae 5B88     		ldrh	r3, [r3, #2]
 1906 00b0 D8B2     		uxtb	r0, r3
 1907 00b2 F979     		ldrb	r1, [r7, #7]	@ zero_extendqisi2
 1908 00b4 40F20002 		movw	r2, #:lower16:RingBuffer
 1909 00b8 C0F20002 		movt	r2, #:upper16:RingBuffer
 1910 00bc 0B46     		mov	r3, r1
 1911 00be 4FEA8303 		lsl	r3, r3, #2
 1912 00c2 0B44     		add	r3, r3, r1
 1913 00c4 4FEA8303 		lsl	r3, r3, #2
 1914 00c8 1344     		add	r3, r3, r2
 1915 00ca 03F10803 		add	r3, r3, #8
 1916 00ce 9B88     		ldrh	r3, [r3, #4]
 1917 00d0 DBB2     		uxtb	r3, r3
 1918 00d2 C3EB0003 		rsb	r3, r3, r0
 1919 00d6 FB73     		strb	r3, [r7, #15]
 1920 00d8 35E0     		b	.L101
 1921              	.L102:
 506:.\ring_buffer.c ****     }
 507:.\ring_buffer.c ****     else
 508:.\ring_buffer.c ****     {
 509:.\ring_buffer.c ****         bytecount = RingBuffer[ucIndex].head + (RingBuffer[ucIndex].size - RingBuffer[ucIndex].tail
 1922              		.loc 1 509 0
 1923 00da F979     		ldrb	r1, [r7, #7]	@ zero_extendqisi2
 1924 00dc 40F20002 		movw	r2, #:lower16:RingBuffer
 1925 00e0 C0F20002 		movt	r2, #:upper16:RingBuffer
 1926 00e4 0B46     		mov	r3, r1
 1927 00e6 4FEA8303 		lsl	r3, r3, #2
 1928 00ea 0B44     		add	r3, r3, r1
 1929 00ec 4FEA8303 		lsl	r3, r3, #2
 1930 00f0 1344     		add	r3, r3, r2
 1931 00f2 03F10803 		add	r3, r3, #8
 1932 00f6 5B88     		ldrh	r3, [r3, #2]
 1933 00f8 D8B2     		uxtb	r0, r3
 1934 00fa F979     		ldrb	r1, [r7, #7]	@ zero_extendqisi2
ARM GAS  C:\Users\Martin\AppData\Local\Temp\ccuhJpPE.s 			page 44


 1935 00fc 40F20002 		movw	r2, #:lower16:RingBuffer
 1936 0100 C0F20002 		movt	r2, #:upper16:RingBuffer
 1937 0104 0B46     		mov	r3, r1
 1938 0106 4FEA8303 		lsl	r3, r3, #2
 1939 010a 0B44     		add	r3, r3, r1
 1940 010c 4FEA8303 		lsl	r3, r3, #2
 1941 0110 1344     		add	r3, r3, r2
 1942 0112 03F10803 		add	r3, r3, #8
 1943 0116 1B88     		ldrh	r3, [r3, #0]
 1944 0118 5FFA83FC 		uxtb	ip, r3
 1945 011c F979     		ldrb	r1, [r7, #7]	@ zero_extendqisi2
 1946 011e 40F20002 		movw	r2, #:lower16:RingBuffer
 1947 0122 C0F20002 		movt	r2, #:upper16:RingBuffer
 1948 0126 0B46     		mov	r3, r1
 1949 0128 4FEA8303 		lsl	r3, r3, #2
 1950 012c 0B44     		add	r3, r3, r1
 1951 012e 4FEA8303 		lsl	r3, r3, #2
 1952 0132 1344     		add	r3, r3, r2
 1953 0134 03F10803 		add	r3, r3, #8
 1954 0138 9B88     		ldrh	r3, [r3, #4]
 1955 013a DBB2     		uxtb	r3, r3
 1956 013c C3EB0C03 		rsb	r3, r3, ip
 1957 0140 DBB2     		uxtb	r3, r3
 1958 0142 0344     		add	r3, r0, r3
 1959 0144 FB73     		strb	r3, [r7, #15]
 1960              	.L101:
 510:.\ring_buffer.c ****     }
 511:.\ring_buffer.c ****     
 512:.\ring_buffer.c ****      if (RingBuffer[ucIndex].zb == 1)
 1961              		.loc 1 512 0
 1962 0146 F979     		ldrb	r1, [r7, #7]	@ zero_extendqisi2
 1963 0148 40F20002 		movw	r2, #:lower16:RingBuffer
 1964 014c C0F20002 		movt	r2, #:upper16:RingBuffer
 1965 0150 0B46     		mov	r3, r1
 1966 0152 4FEA8303 		lsl	r3, r3, #2
 1967 0156 0B44     		add	r3, r3, r1
 1968 0158 4FEA8303 		lsl	r3, r3, #2
 1969 015c 1344     		add	r3, r3, r2
 1970 015e 03F10803 		add	r3, r3, #8
 1971 0162 9B79     		ldrb	r3, [r3, #6]	@ zero_extendqisi2
 1972 0164 012B     		cmp	r3, #1
 1973 0166 03D1     		bne	.L103
 513:.\ring_buffer.c ****     {
 514:.\ring_buffer.c ****         bytecount++;
 1974              		.loc 1 514 0
 1975 0168 FB7B     		ldrb	r3, [r7, #15]
 1976 016a 03F10103 		add	r3, r3, #1
 1977 016e FB73     		strb	r3, [r7, #15]
 1978              	.L103:
 515:.\ring_buffer.c ****     }
 516:.\ring_buffer.c ****     
 517:.\ring_buffer.c ****     return bytecount;
 1979              		.loc 1 517 0
 1980 0170 FB7B     		ldrb	r3, [r7, #15]	@ zero_extendqisi2
 518:.\ring_buffer.c **** }
 1981              		.loc 1 518 0
 1982 0172 1846     		mov	r0, r3
ARM GAS  C:\Users\Martin\AppData\Local\Temp\ccuhJpPE.s 			page 45


 1983 0174 07F11407 		add	r7, r7, #20
 1984 0178 BD46     		mov	sp, r7
 1985 017a 80BC     		pop	{r7}
 1986 017c 7047     		bx	lr
 1987              		.cfi_endproc
 1988              	.LFE41:
 1989              		.size	RBF_ucGetByteCount, .-RBF_ucGetByteCount
 1990 017e 00BF     		.section	.text.IncHead,"ax",%progbits
 1991              		.align	2
 1992              		.thumb
 1993              		.thumb_func
 1994              		.type	IncHead, %function
 1995              	IncHead:
 1996              	.LFB42:
 519:.\ring_buffer.c **** 
 520:.\ring_buffer.c **** /* ----------------------------------------------------------------- */
 521:.\ring_buffer.c **** /* --------------------- STATIC FUNCTIONS -------------------------- */ 
 522:.\ring_buffer.c **** /* ----------------------------------------------------------------- */
 523:.\ring_buffer.c **** /*****************************************************************/
 524:.\ring_buffer.c **** static uint8_t IncHead(uint8_t ucIdx)
 525:.\ring_buffer.c **** {
 1997              		.loc 1 525 0
 1998              		.cfi_startproc
 1999              		@ args = 0, pretend = 0, frame = 16
 2000              		@ frame_needed = 1, uses_anonymous_args = 0
 2001              		@ link register save eliminated.
 2002 0000 80B4     		push	{r7}
 2003              	.LCFI38:
 2004              		.cfi_def_cfa_offset 4
 2005 0002 85B0     		sub	sp, sp, #20
 2006              	.LCFI39:
 2007              		.cfi_def_cfa_offset 24
 2008 0004 00AF     		add	r7, sp, #0
 2009              		.cfi_offset 7, -4
 2010              	.LCFI40:
 2011              		.cfi_def_cfa_register 7
 2012 0006 0346     		mov	r3, r0
 2013 0008 FB71     		strb	r3, [r7, #7]
 526:.\ring_buffer.c ****     uint8_t status;
 527:.\ring_buffer.c ****     uint16_t tempHead = RingBuffer[ucIdx].head + 1;
 2014              		.loc 1 527 0
 2015 000a F979     		ldrb	r1, [r7, #7]	@ zero_extendqisi2
 2016 000c 40F20002 		movw	r2, #:lower16:RingBuffer
 2017 0010 C0F20002 		movt	r2, #:upper16:RingBuffer
 2018 0014 0B46     		mov	r3, r1
 2019 0016 4FEA8303 		lsl	r3, r3, #2
 2020 001a 0B44     		add	r3, r3, r1
 2021 001c 4FEA8303 		lsl	r3, r3, #2
 2022 0020 1344     		add	r3, r3, r2
 2023 0022 03F10803 		add	r3, r3, #8
 2024 0026 5B88     		ldrh	r3, [r3, #2]
 2025 0028 03F10103 		add	r3, r3, #1
 2026 002c FB81     		strh	r3, [r7, #14]	@ movhi
 528:.\ring_buffer.c ****     
 529:.\ring_buffer.c ****     if (tempHead > RingBuffer[ucIdx].size - 1)
 2027              		.loc 1 529 0
 2028 002e F889     		ldrh	r0, [r7, #14]
ARM GAS  C:\Users\Martin\AppData\Local\Temp\ccuhJpPE.s 			page 46


 2029 0030 F979     		ldrb	r1, [r7, #7]	@ zero_extendqisi2
 2030 0032 40F20002 		movw	r2, #:lower16:RingBuffer
 2031 0036 C0F20002 		movt	r2, #:upper16:RingBuffer
 2032 003a 0B46     		mov	r3, r1
 2033 003c 4FEA8303 		lsl	r3, r3, #2
 2034 0040 0B44     		add	r3, r3, r1
 2035 0042 4FEA8303 		lsl	r3, r3, #2
 2036 0046 1344     		add	r3, r3, r2
 2037 0048 03F10803 		add	r3, r3, #8
 2038 004c 1B88     		ldrh	r3, [r3, #0]
 2039 004e 03F1FF33 		add	r3, r3, #-1
 2040 0052 9842     		cmp	r0, r3
 2041 0054 02DD     		ble	.L106
 530:.\ring_buffer.c ****     {
 531:.\ring_buffer.c ****         tempHead = 0;
 2042              		.loc 1 531 0
 2043 0056 4FF00003 		mov	r3, #0
 2044 005a FB81     		strh	r3, [r7, #14]	@ movhi
 2045              	.L106:
 532:.\ring_buffer.c ****     }
 533:.\ring_buffer.c ****     
 534:.\ring_buffer.c ****     if ((tempHead == RingBuffer[ucIdx].tail) && (RingBuffer[ucIdx].tail == 1)) 
 2046              		.loc 1 534 0
 2047 005c F979     		ldrb	r1, [r7, #7]	@ zero_extendqisi2
 2048 005e 40F20002 		movw	r2, #:lower16:RingBuffer
 2049 0062 C0F20002 		movt	r2, #:upper16:RingBuffer
 2050 0066 0B46     		mov	r3, r1
 2051 0068 4FEA8303 		lsl	r3, r3, #2
 2052 006c 0B44     		add	r3, r3, r1
 2053 006e 4FEA8303 		lsl	r3, r3, #2
 2054 0072 1344     		add	r3, r3, r2
 2055 0074 03F10803 		add	r3, r3, #8
 2056 0078 9B88     		ldrh	r3, [r3, #4]
 2057 007a FA89     		ldrh	r2, [r7, #14]
 2058 007c 9A42     		cmp	r2, r3
 2059 007e 14D1     		bne	.L107
 2060 0080 F979     		ldrb	r1, [r7, #7]	@ zero_extendqisi2
 2061 0082 40F20002 		movw	r2, #:lower16:RingBuffer
 2062 0086 C0F20002 		movt	r2, #:upper16:RingBuffer
 2063 008a 0B46     		mov	r3, r1
 2064 008c 4FEA8303 		lsl	r3, r3, #2
 2065 0090 0B44     		add	r3, r3, r1
 2066 0092 4FEA8303 		lsl	r3, r3, #2
 2067 0096 1344     		add	r3, r3, r2
 2068 0098 03F10803 		add	r3, r3, #8
 2069 009c 9B88     		ldrh	r3, [r3, #4]
 2070 009e 012B     		cmp	r3, #1
 2071 00a0 03D1     		bne	.L107
 535:.\ring_buffer.c ****     {
 536:.\ring_buffer.c ****         status = RBF_FAIL;
 2072              		.loc 1 536 0
 2073 00a2 4FF00103 		mov	r3, #1
 2074 00a6 7B73     		strb	r3, [r7, #13]
 2075              		.loc 1 534 0
 2076 00a8 12E0     		b	.L108
 2077              	.L107:
 537:.\ring_buffer.c ****     }
ARM GAS  C:\Users\Martin\AppData\Local\Temp\ccuhJpPE.s 			page 47


 538:.\ring_buffer.c ****     else
 539:.\ring_buffer.c ****     {
 540:.\ring_buffer.c ****         RingBuffer[ucIdx].head = tempHead;
 2078              		.loc 1 540 0
 2079 00aa F979     		ldrb	r1, [r7, #7]	@ zero_extendqisi2
 2080 00ac 40F20002 		movw	r2, #:lower16:RingBuffer
 2081 00b0 C0F20002 		movt	r2, #:upper16:RingBuffer
 2082 00b4 0B46     		mov	r3, r1
 2083 00b6 4FEA8303 		lsl	r3, r3, #2
 2084 00ba 0B44     		add	r3, r3, r1
 2085 00bc 4FEA8303 		lsl	r3, r3, #2
 2086 00c0 1344     		add	r3, r3, r2
 2087 00c2 03F10803 		add	r3, r3, #8
 2088 00c6 FA89     		ldrh	r2, [r7, #14]	@ movhi
 2089 00c8 5A80     		strh	r2, [r3, #2]	@ movhi
 541:.\ring_buffer.c ****         status = RBF_SUCCESS;
 2090              		.loc 1 541 0
 2091 00ca 4FF00003 		mov	r3, #0
 2092 00ce 7B73     		strb	r3, [r7, #13]
 2093              	.L108:
 542:.\ring_buffer.c ****     }
 543:.\ring_buffer.c **** 
 544:.\ring_buffer.c ****     return status;
 2094              		.loc 1 544 0
 2095 00d0 7B7B     		ldrb	r3, [r7, #13]	@ zero_extendqisi2
 545:.\ring_buffer.c **** } 
 2096              		.loc 1 545 0
 2097 00d2 1846     		mov	r0, r3
 2098 00d4 07F11407 		add	r7, r7, #20
 2099 00d8 BD46     		mov	sp, r7
 2100 00da 80BC     		pop	{r7}
 2101 00dc 7047     		bx	lr
 2102              		.cfi_endproc
 2103              	.LFE42:
 2104              		.size	IncHead, .-IncHead
 2105 00de 00BF     		.section	.text.DecHead,"ax",%progbits
 2106              		.align	2
 2107              		.thumb
 2108              		.thumb_func
 2109              		.type	DecHead, %function
 2110              	DecHead:
 2111              	.LFB43:
 546:.\ring_buffer.c **** /*****************************************************************/
 547:.\ring_buffer.c **** static uint8_t DecHead(uint8_t ucIdx)
 548:.\ring_buffer.c **** {
 2112              		.loc 1 548 0
 2113              		.cfi_startproc
 2114              		@ args = 0, pretend = 0, frame = 16
 2115              		@ frame_needed = 1, uses_anonymous_args = 0
 2116              		@ link register save eliminated.
 2117 0000 80B4     		push	{r7}
 2118              	.LCFI41:
 2119              		.cfi_def_cfa_offset 4
 2120 0002 85B0     		sub	sp, sp, #20
 2121              	.LCFI42:
 2122              		.cfi_def_cfa_offset 24
 2123 0004 00AF     		add	r7, sp, #0
ARM GAS  C:\Users\Martin\AppData\Local\Temp\ccuhJpPE.s 			page 48


 2124              		.cfi_offset 7, -4
 2125              	.LCFI43:
 2126              		.cfi_def_cfa_register 7
 2127 0006 0346     		mov	r3, r0
 2128 0008 FB71     		strb	r3, [r7, #7]
 549:.\ring_buffer.c ****     uint8_t status;
 550:.\ring_buffer.c ****     
 551:.\ring_buffer.c ****     if(RingBuffer[ucIdx].head == RingBuffer[ucIdx].tail)
 2129              		.loc 1 551 0
 2130 000a F979     		ldrb	r1, [r7, #7]	@ zero_extendqisi2
 2131 000c 40F20002 		movw	r2, #:lower16:RingBuffer
 2132 0010 C0F20002 		movt	r2, #:upper16:RingBuffer
 2133 0014 0B46     		mov	r3, r1
 2134 0016 4FEA8303 		lsl	r3, r3, #2
 2135 001a 0B44     		add	r3, r3, r1
 2136 001c 4FEA8303 		lsl	r3, r3, #2
 2137 0020 1344     		add	r3, r3, r2
 2138 0022 03F10803 		add	r3, r3, #8
 2139 0026 5888     		ldrh	r0, [r3, #2]
 2140 0028 F979     		ldrb	r1, [r7, #7]	@ zero_extendqisi2
 2141 002a 40F20002 		movw	r2, #:lower16:RingBuffer
 2142 002e C0F20002 		movt	r2, #:upper16:RingBuffer
 2143 0032 0B46     		mov	r3, r1
 2144 0034 4FEA8303 		lsl	r3, r3, #2
 2145 0038 0B44     		add	r3, r3, r1
 2146 003a 4FEA8303 		lsl	r3, r3, #2
 2147 003e 1344     		add	r3, r3, r2
 2148 0040 03F10803 		add	r3, r3, #8
 2149 0044 9B88     		ldrh	r3, [r3, #4]
 2150 0046 9842     		cmp	r0, r3
 2151 0048 03D1     		bne	.L111
 552:.\ring_buffer.c ****     {
 553:.\ring_buffer.c ****         status = RBF_FAIL;
 2152              		.loc 1 553 0
 2153 004a 4FF00103 		mov	r3, #1
 2154 004e FB73     		strb	r3, [r7, #15]
 2155 0050 57E0     		b	.L112
 2156              	.L111:
 554:.\ring_buffer.c ****     }
 555:.\ring_buffer.c ****     else
 556:.\ring_buffer.c ****     {
 557:.\ring_buffer.c ****         if (RingBuffer[ucIdx].head == 0)
 2157              		.loc 1 557 0
 2158 0052 F979     		ldrb	r1, [r7, #7]	@ zero_extendqisi2
 2159 0054 40F20002 		movw	r2, #:lower16:RingBuffer
 2160 0058 C0F20002 		movt	r2, #:upper16:RingBuffer
 2161 005c 0B46     		mov	r3, r1
 2162 005e 4FEA8303 		lsl	r3, r3, #2
 2163 0062 0B44     		add	r3, r3, r1
 2164 0064 4FEA8303 		lsl	r3, r3, #2
 2165 0068 1344     		add	r3, r3, r2
 2166 006a 03F10803 		add	r3, r3, #8
 2167 006e 5B88     		ldrh	r3, [r3, #2]
 2168 0070 002B     		cmp	r3, #0
 2169 0072 22D1     		bne	.L113
 558:.\ring_buffer.c ****         {
 559:.\ring_buffer.c ****             RingBuffer[ucIdx].head = RingBuffer[ucIdx].size - 1;
ARM GAS  C:\Users\Martin\AppData\Local\Temp\ccuhJpPE.s 			page 49


 2170              		.loc 1 559 0
 2171 0074 F979     		ldrb	r1, [r7, #7]	@ zero_extendqisi2
 2172 0076 F879     		ldrb	r0, [r7, #7]	@ zero_extendqisi2
 2173 0078 40F20002 		movw	r2, #:lower16:RingBuffer
 2174 007c C0F20002 		movt	r2, #:upper16:RingBuffer
 2175 0080 0346     		mov	r3, r0
 2176 0082 4FEA8303 		lsl	r3, r3, #2
 2177 0086 0344     		add	r3, r3, r0
 2178 0088 4FEA8303 		lsl	r3, r3, #2
 2179 008c 1344     		add	r3, r3, r2
 2180 008e 03F10803 		add	r3, r3, #8
 2181 0092 1B88     		ldrh	r3, [r3, #0]
 2182 0094 03F1FF33 		add	r3, r3, #-1
 2183 0098 98B2     		uxth	r0, r3
 2184 009a 40F20002 		movw	r2, #:lower16:RingBuffer
 2185 009e C0F20002 		movt	r2, #:upper16:RingBuffer
 2186 00a2 0B46     		mov	r3, r1
 2187 00a4 4FEA8303 		lsl	r3, r3, #2
 2188 00a8 0B44     		add	r3, r3, r1
 2189 00aa 4FEA8303 		lsl	r3, r3, #2
 2190 00ae 1344     		add	r3, r3, r2
 2191 00b0 03F10803 		add	r3, r3, #8
 2192 00b4 0246     		mov	r2, r0	@ movhi
 2193 00b6 5A80     		strh	r2, [r3, #2]	@ movhi
 2194 00b8 20E0     		b	.L114
 2195              	.L113:
 560:.\ring_buffer.c ****         }
 561:.\ring_buffer.c ****         else
 562:.\ring_buffer.c ****         {
 563:.\ring_buffer.c ****             RingBuffer[ucIdx].head--;
 2196              		.loc 1 563 0
 2197 00ba FA79     		ldrb	r2, [r7, #7]	@ zero_extendqisi2
 2198 00bc 40F20001 		movw	r1, #:lower16:RingBuffer
 2199 00c0 C0F20001 		movt	r1, #:upper16:RingBuffer
 2200 00c4 1346     		mov	r3, r2
 2201 00c6 4FEA8303 		lsl	r3, r3, #2
 2202 00ca 1344     		add	r3, r3, r2
 2203 00cc 4FEA8303 		lsl	r3, r3, #2
 2204 00d0 0B44     		add	r3, r3, r1
 2205 00d2 03F10803 		add	r3, r3, #8
 2206 00d6 5B88     		ldrh	r3, [r3, #2]
 2207 00d8 03F1FF33 		add	r3, r3, #-1
 2208 00dc 98B2     		uxth	r0, r3
 2209 00de 40F20001 		movw	r1, #:lower16:RingBuffer
 2210 00e2 C0F20001 		movt	r1, #:upper16:RingBuffer
 2211 00e6 1346     		mov	r3, r2
 2212 00e8 4FEA8303 		lsl	r3, r3, #2
 2213 00ec 1344     		add	r3, r3, r2
 2214 00ee 4FEA8303 		lsl	r3, r3, #2
 2215 00f2 0B44     		add	r3, r3, r1
 2216 00f4 03F10803 		add	r3, r3, #8
 2217 00f8 0246     		mov	r2, r0	@ movhi
 2218 00fa 5A80     		strh	r2, [r3, #2]	@ movhi
 2219              	.L114:
 564:.\ring_buffer.c ****         }
 565:.\ring_buffer.c ****         
 566:.\ring_buffer.c ****         status = RBF_SUCCESS;
ARM GAS  C:\Users\Martin\AppData\Local\Temp\ccuhJpPE.s 			page 50


 2220              		.loc 1 566 0
 2221 00fc 4FF00003 		mov	r3, #0
 2222 0100 FB73     		strb	r3, [r7, #15]
 2223              	.L112:
 567:.\ring_buffer.c ****     }
 568:.\ring_buffer.c ****     
 569:.\ring_buffer.c ****         
 570:.\ring_buffer.c ****     return status;
 2224              		.loc 1 570 0
 2225 0102 FB7B     		ldrb	r3, [r7, #15]	@ zero_extendqisi2
 571:.\ring_buffer.c **** }
 2226              		.loc 1 571 0
 2227 0104 1846     		mov	r0, r3
 2228 0106 07F11407 		add	r7, r7, #20
 2229 010a BD46     		mov	sp, r7
 2230 010c 80BC     		pop	{r7}
 2231 010e 7047     		bx	lr
 2232              		.cfi_endproc
 2233              	.LFE43:
 2234              		.size	DecHead, .-DecHead
 2235              		.section	.text.IncTail,"ax",%progbits
 2236              		.align	2
 2237              		.thumb
 2238              		.thumb_func
 2239              		.type	IncTail, %function
 2240              	IncTail:
 2241              	.LFB44:
 572:.\ring_buffer.c **** /*****************************************************************/
 573:.\ring_buffer.c **** static uint8_t IncTail(uint8_t ucIdx)
 574:.\ring_buffer.c **** {
 2242              		.loc 1 574 0
 2243              		.cfi_startproc
 2244              		@ args = 0, pretend = 0, frame = 16
 2245              		@ frame_needed = 1, uses_anonymous_args = 0
 2246              		@ link register save eliminated.
 2247 0000 80B4     		push	{r7}
 2248              	.LCFI44:
 2249              		.cfi_def_cfa_offset 4
 2250 0002 85B0     		sub	sp, sp, #20
 2251              	.LCFI45:
 2252              		.cfi_def_cfa_offset 24
 2253 0004 00AF     		add	r7, sp, #0
 2254              		.cfi_offset 7, -4
 2255              	.LCFI46:
 2256              		.cfi_def_cfa_register 7
 2257 0006 0346     		mov	r3, r0
 2258 0008 FB71     		strb	r3, [r7, #7]
 575:.\ring_buffer.c ****     uint8_t status = RBF_FAIL;
 2259              		.loc 1 575 0
 2260 000a 4FF00103 		mov	r3, #1
 2261 000e 7B73     		strb	r3, [r7, #13]
 576:.\ring_buffer.c ****     uint16_t tempTail = RingBuffer[ucIdx].tail + 1;
 2262              		.loc 1 576 0
 2263 0010 F979     		ldrb	r1, [r7, #7]	@ zero_extendqisi2
 2264 0012 40F20002 		movw	r2, #:lower16:RingBuffer
 2265 0016 C0F20002 		movt	r2, #:upper16:RingBuffer
 2266 001a 0B46     		mov	r3, r1
ARM GAS  C:\Users\Martin\AppData\Local\Temp\ccuhJpPE.s 			page 51


 2267 001c 4FEA8303 		lsl	r3, r3, #2
 2268 0020 0B44     		add	r3, r3, r1
 2269 0022 4FEA8303 		lsl	r3, r3, #2
 2270 0026 1344     		add	r3, r3, r2
 2271 0028 03F10803 		add	r3, r3, #8
 2272 002c 9B88     		ldrh	r3, [r3, #4]
 2273 002e 03F10103 		add	r3, r3, #1
 2274 0032 FB81     		strh	r3, [r7, #14]	@ movhi
 577:.\ring_buffer.c ****     
 578:.\ring_buffer.c ****     if (RingBuffer[ucIdx].tail != RingBuffer[ucIdx].head)
 2275              		.loc 1 578 0
 2276 0034 F979     		ldrb	r1, [r7, #7]	@ zero_extendqisi2
 2277 0036 40F20002 		movw	r2, #:lower16:RingBuffer
 2278 003a C0F20002 		movt	r2, #:upper16:RingBuffer
 2279 003e 0B46     		mov	r3, r1
 2280 0040 4FEA8303 		lsl	r3, r3, #2
 2281 0044 0B44     		add	r3, r3, r1
 2282 0046 4FEA8303 		lsl	r3, r3, #2
 2283 004a 1344     		add	r3, r3, r2
 2284 004c 03F10803 		add	r3, r3, #8
 2285 0050 9888     		ldrh	r0, [r3, #4]
 2286 0052 F979     		ldrb	r1, [r7, #7]	@ zero_extendqisi2
 2287 0054 40F20002 		movw	r2, #:lower16:RingBuffer
 2288 0058 C0F20002 		movt	r2, #:upper16:RingBuffer
 2289 005c 0B46     		mov	r3, r1
 2290 005e 4FEA8303 		lsl	r3, r3, #2
 2291 0062 0B44     		add	r3, r3, r1
 2292 0064 4FEA8303 		lsl	r3, r3, #2
 2293 0068 1344     		add	r3, r3, r2
 2294 006a 03F10803 		add	r3, r3, #8
 2295 006e 5B88     		ldrh	r3, [r3, #2]
 2296 0070 9842     		cmp	r0, r3
 2297 0072 29D0     		beq	.L117
 579:.\ring_buffer.c ****     {
 580:.\ring_buffer.c ****         if (tempTail > RingBuffer[ucIdx].size - 1)
 2298              		.loc 1 580 0
 2299 0074 F889     		ldrh	r0, [r7, #14]
 2300 0076 F979     		ldrb	r1, [r7, #7]	@ zero_extendqisi2
 2301 0078 40F20002 		movw	r2, #:lower16:RingBuffer
 2302 007c C0F20002 		movt	r2, #:upper16:RingBuffer
 2303 0080 0B46     		mov	r3, r1
 2304 0082 4FEA8303 		lsl	r3, r3, #2
 2305 0086 0B44     		add	r3, r3, r1
 2306 0088 4FEA8303 		lsl	r3, r3, #2
 2307 008c 1344     		add	r3, r3, r2
 2308 008e 03F10803 		add	r3, r3, #8
 2309 0092 1B88     		ldrh	r3, [r3, #0]
 2310 0094 03F1FF33 		add	r3, r3, #-1
 2311 0098 9842     		cmp	r0, r3
 2312 009a 02DD     		ble	.L118
 581:.\ring_buffer.c ****         {
 582:.\ring_buffer.c ****             tempTail = 0;
 2313              		.loc 1 582 0
 2314 009c 4FF00003 		mov	r3, #0
 2315 00a0 FB81     		strh	r3, [r7, #14]	@ movhi
 2316              	.L118:
 583:.\ring_buffer.c ****         }
ARM GAS  C:\Users\Martin\AppData\Local\Temp\ccuhJpPE.s 			page 52


 584:.\ring_buffer.c ****         RingBuffer[ucIdx].tail = tempTail;
 2317              		.loc 1 584 0
 2318 00a2 F979     		ldrb	r1, [r7, #7]	@ zero_extendqisi2
 2319 00a4 40F20002 		movw	r2, #:lower16:RingBuffer
 2320 00a8 C0F20002 		movt	r2, #:upper16:RingBuffer
 2321 00ac 0B46     		mov	r3, r1
 2322 00ae 4FEA8303 		lsl	r3, r3, #2
 2323 00b2 0B44     		add	r3, r3, r1
 2324 00b4 4FEA8303 		lsl	r3, r3, #2
 2325 00b8 1344     		add	r3, r3, r2
 2326 00ba 03F10803 		add	r3, r3, #8
 2327 00be FA89     		ldrh	r2, [r7, #14]	@ movhi
 2328 00c0 9A80     		strh	r2, [r3, #4]	@ movhi
 585:.\ring_buffer.c ****         status = RBF_SUCCESS;
 2329              		.loc 1 585 0
 2330 00c2 4FF00003 		mov	r3, #0
 2331 00c6 7B73     		strb	r3, [r7, #13]
 2332              	.L117:
 586:.\ring_buffer.c ****         
 587:.\ring_buffer.c ****         /*
 588:.\ring_buffer.c ****         if (tempTail != (RingBuffer[ucIdx].head + 1))
 589:.\ring_buffer.c ****         {
 590:.\ring_buffer.c ****             RingBuffer[ucIdx].tail = tempTail;
 591:.\ring_buffer.c ****             status = RBF_SUCCESS;
 592:.\ring_buffer.c ****         }
 593:.\ring_buffer.c ****         */
 594:.\ring_buffer.c ****     }
 595:.\ring_buffer.c ****         
 596:.\ring_buffer.c ****     return status;
 2333              		.loc 1 596 0
 2334 00c8 7B7B     		ldrb	r3, [r7, #13]	@ zero_extendqisi2
 597:.\ring_buffer.c **** } 
 2335              		.loc 1 597 0
 2336 00ca 1846     		mov	r0, r3
 2337 00cc 07F11407 		add	r7, r7, #20
 2338 00d0 BD46     		mov	sp, r7
 2339 00d2 80BC     		pop	{r7}
 2340 00d4 7047     		bx	lr
 2341              		.cfi_endproc
 2342              	.LFE44:
 2343              		.size	IncTail, .-IncTail
 2344 00d6 00BF     		.data
 2345              		.align	2
 2346              		.type	stest.3537, %object
 2347              		.size	stest.3537, 4
 2348              	stest.3537:
 2349 0000 28000000 		.word	40
 2350              		.text
 2351              	.Letext0:
 2352              		.section	.debug_loc,"",%progbits
 2353              	.Ldebug_loc0:
 2354              	.LLST0:
 2355 0000 00000000 		.4byte	.LFB29
 2356 0004 02000000 		.4byte	.LCFI0
 2357 0008 0100     		.2byte	0x1
 2358 000a 5D       		.byte	0x5d
 2359 000b 02000000 		.4byte	.LCFI0
ARM GAS  C:\Users\Martin\AppData\Local\Temp\ccuhJpPE.s 			page 53


 2360 000f 04000000 		.4byte	.LCFI1
 2361 0013 0200     		.2byte	0x2
 2362 0015 7D       		.byte	0x7d
 2363 0016 08       		.sleb128 8
 2364 0017 04000000 		.4byte	.LCFI1
 2365 001b 20000000 		.4byte	.LFE29
 2366 001f 0200     		.2byte	0x2
 2367 0021 77       		.byte	0x77
 2368 0022 08       		.sleb128 8
 2369 0023 00000000 		.4byte	0x0
 2370 0027 00000000 		.4byte	0x0
 2371              	.LLST1:
 2372 002b 00000000 		.4byte	.LFB30
 2373 002f 02000000 		.4byte	.LCFI2
 2374 0033 0100     		.2byte	0x1
 2375 0035 5D       		.byte	0x5d
 2376 0036 02000000 		.4byte	.LCFI2
 2377 003a 04000000 		.4byte	.LCFI3
 2378 003e 0200     		.2byte	0x2
 2379 0040 7D       		.byte	0x7d
 2380 0041 08       		.sleb128 8
 2381 0042 04000000 		.4byte	.LCFI3
 2382 0046 06000000 		.4byte	.LCFI4
 2383 004a 0200     		.2byte	0x2
 2384 004c 7D       		.byte	0x7d
 2385 004d 18       		.sleb128 24
 2386 004e 06000000 		.4byte	.LCFI4
 2387 0052 36010000 		.4byte	.LFE30
 2388 0056 0200     		.2byte	0x2
 2389 0058 77       		.byte	0x77
 2390 0059 18       		.sleb128 24
 2391 005a 00000000 		.4byte	0x0
 2392 005e 00000000 		.4byte	0x0
 2393              	.LLST2:
 2394 0062 00000000 		.4byte	.LFB31
 2395 0066 02000000 		.4byte	.LCFI5
 2396 006a 0100     		.2byte	0x1
 2397 006c 5D       		.byte	0x5d
 2398 006d 02000000 		.4byte	.LCFI5
 2399 0071 04000000 		.4byte	.LCFI6
 2400 0075 0200     		.2byte	0x2
 2401 0077 7D       		.byte	0x7d
 2402 0078 08       		.sleb128 8
 2403 0079 04000000 		.4byte	.LCFI6
 2404 007d 06000000 		.4byte	.LCFI7
 2405 0081 0200     		.2byte	0x2
 2406 0083 7D       		.byte	0x7d
 2407 0084 18       		.sleb128 24
 2408 0085 06000000 		.4byte	.LCFI7
 2409 0089 8C010000 		.4byte	.LFE31
 2410 008d 0200     		.2byte	0x2
 2411 008f 77       		.byte	0x77
 2412 0090 18       		.sleb128 24
 2413 0091 00000000 		.4byte	0x0
 2414 0095 00000000 		.4byte	0x0
 2415              	.LLST3:
 2416 0099 00000000 		.4byte	.LFB32
ARM GAS  C:\Users\Martin\AppData\Local\Temp\ccuhJpPE.s 			page 54


 2417 009d 02000000 		.4byte	.LCFI8
 2418 00a1 0100     		.2byte	0x1
 2419 00a3 5D       		.byte	0x5d
 2420 00a4 02000000 		.4byte	.LCFI8
 2421 00a8 04000000 		.4byte	.LCFI9
 2422 00ac 0200     		.2byte	0x2
 2423 00ae 7D       		.byte	0x7d
 2424 00af 08       		.sleb128 8
 2425 00b0 04000000 		.4byte	.LCFI9
 2426 00b4 06000000 		.4byte	.LCFI10
 2427 00b8 0200     		.2byte	0x2
 2428 00ba 7D       		.byte	0x7d
 2429 00bb 18       		.sleb128 24
 2430 00bc 06000000 		.4byte	.LCFI10
 2431 00c0 5A010000 		.4byte	.LFE32
 2432 00c4 0200     		.2byte	0x2
 2433 00c6 77       		.byte	0x77
 2434 00c7 18       		.sleb128 24
 2435 00c8 00000000 		.4byte	0x0
 2436 00cc 00000000 		.4byte	0x0
 2437              	.LLST4:
 2438 00d0 00000000 		.4byte	.LFB33
 2439 00d4 02000000 		.4byte	.LCFI11
 2440 00d8 0100     		.2byte	0x1
 2441 00da 5D       		.byte	0x5d
 2442 00db 02000000 		.4byte	.LCFI11
 2443 00df 04000000 		.4byte	.LCFI12
 2444 00e3 0200     		.2byte	0x2
 2445 00e5 7D       		.byte	0x7d
 2446 00e6 08       		.sleb128 8
 2447 00e7 04000000 		.4byte	.LCFI12
 2448 00eb 06000000 		.4byte	.LCFI13
 2449 00ef 0200     		.2byte	0x2
 2450 00f1 7D       		.byte	0x7d
 2451 00f2 18       		.sleb128 24
 2452 00f3 06000000 		.4byte	.LCFI13
 2453 00f7 08010000 		.4byte	.LFE33
 2454 00fb 0200     		.2byte	0x2
 2455 00fd 77       		.byte	0x77
 2456 00fe 18       		.sleb128 24
 2457 00ff 00000000 		.4byte	0x0
 2458 0103 00000000 		.4byte	0x0
 2459              	.LLST5:
 2460 0107 00000000 		.4byte	.LFB34
 2461 010b 02000000 		.4byte	.LCFI14
 2462 010f 0100     		.2byte	0x1
 2463 0111 5D       		.byte	0x5d
 2464 0112 02000000 		.4byte	.LCFI14
 2465 0116 04000000 		.4byte	.LCFI15
 2466 011a 0200     		.2byte	0x2
 2467 011c 7D       		.byte	0x7d
 2468 011d 08       		.sleb128 8
 2469 011e 04000000 		.4byte	.LCFI15
 2470 0122 06000000 		.4byte	.LCFI16
 2471 0126 0200     		.2byte	0x2
 2472 0128 7D       		.byte	0x7d
 2473 0129 18       		.sleb128 24
ARM GAS  C:\Users\Martin\AppData\Local\Temp\ccuhJpPE.s 			page 55


 2474 012a 06000000 		.4byte	.LCFI16
 2475 012e 9C010000 		.4byte	.LFE34
 2476 0132 0200     		.2byte	0x2
 2477 0134 77       		.byte	0x77
 2478 0135 18       		.sleb128 24
 2479 0136 00000000 		.4byte	0x0
 2480 013a 00000000 		.4byte	0x0
 2481              	.LLST6:
 2482 013e 00000000 		.4byte	.LFB35
 2483 0142 02000000 		.4byte	.LCFI17
 2484 0146 0100     		.2byte	0x1
 2485 0148 5D       		.byte	0x5d
 2486 0149 02000000 		.4byte	.LCFI17
 2487 014d 04000000 		.4byte	.LCFI18
 2488 0151 0200     		.2byte	0x2
 2489 0153 7D       		.byte	0x7d
 2490 0154 08       		.sleb128 8
 2491 0155 04000000 		.4byte	.LCFI18
 2492 0159 06000000 		.4byte	.LCFI19
 2493 015d 0200     		.2byte	0x2
 2494 015f 7D       		.byte	0x7d
 2495 0160 18       		.sleb128 24
 2496 0161 06000000 		.4byte	.LCFI19
 2497 0165 9C010000 		.4byte	.LFE35
 2498 0169 0200     		.2byte	0x2
 2499 016b 77       		.byte	0x77
 2500 016c 18       		.sleb128 24
 2501 016d 00000000 		.4byte	0x0
 2502 0171 00000000 		.4byte	0x0
 2503              	.LLST7:
 2504 0175 00000000 		.4byte	.LFB36
 2505 0179 02000000 		.4byte	.LCFI20
 2506 017d 0100     		.2byte	0x1
 2507 017f 5D       		.byte	0x5d
 2508 0180 02000000 		.4byte	.LCFI20
 2509 0184 04000000 		.4byte	.LCFI21
 2510 0188 0200     		.2byte	0x2
 2511 018a 7D       		.byte	0x7d
 2512 018b 04       		.sleb128 4
 2513 018c 04000000 		.4byte	.LCFI21
 2514 0190 06000000 		.4byte	.LCFI22
 2515 0194 0200     		.2byte	0x2
 2516 0196 7D       		.byte	0x7d
 2517 0197 18       		.sleb128 24
 2518 0198 06000000 		.4byte	.LCFI22
 2519 019c 42010000 		.4byte	.LFE36
 2520 01a0 0200     		.2byte	0x2
 2521 01a2 77       		.byte	0x77
 2522 01a3 18       		.sleb128 24
 2523 01a4 00000000 		.4byte	0x0
 2524 01a8 00000000 		.4byte	0x0
 2525              	.LLST8:
 2526 01ac 00000000 		.4byte	.LFB37
 2527 01b0 02000000 		.4byte	.LCFI23
 2528 01b4 0100     		.2byte	0x1
 2529 01b6 5D       		.byte	0x5d
 2530 01b7 02000000 		.4byte	.LCFI23
ARM GAS  C:\Users\Martin\AppData\Local\Temp\ccuhJpPE.s 			page 56


 2531 01bb 04000000 		.4byte	.LCFI24
 2532 01bf 0200     		.2byte	0x2
 2533 01c1 7D       		.byte	0x7d
 2534 01c2 08       		.sleb128 8
 2535 01c3 04000000 		.4byte	.LCFI24
 2536 01c7 06000000 		.4byte	.LCFI25
 2537 01cb 0200     		.2byte	0x2
 2538 01cd 7D       		.byte	0x7d
 2539 01ce 28       		.sleb128 40
 2540 01cf 06000000 		.4byte	.LCFI25
 2541 01d3 6A010000 		.4byte	.LFE37
 2542 01d7 0200     		.2byte	0x2
 2543 01d9 77       		.byte	0x77
 2544 01da 28       		.sleb128 40
 2545 01db 00000000 		.4byte	0x0
 2546 01df 00000000 		.4byte	0x0
 2547              	.LLST9:
 2548 01e3 00000000 		.4byte	.LFB38
 2549 01e7 02000000 		.4byte	.LCFI26
 2550 01eb 0100     		.2byte	0x1
 2551 01ed 5D       		.byte	0x5d
 2552 01ee 02000000 		.4byte	.LCFI26
 2553 01f2 04000000 		.4byte	.LCFI27
 2554 01f6 0200     		.2byte	0x2
 2555 01f8 7D       		.byte	0x7d
 2556 01f9 08       		.sleb128 8
 2557 01fa 04000000 		.4byte	.LCFI27
 2558 01fe 06000000 		.4byte	.LCFI28
 2559 0202 0200     		.2byte	0x2
 2560 0204 7D       		.byte	0x7d
 2561 0205 20       		.sleb128 32
 2562 0206 06000000 		.4byte	.LCFI28
 2563 020a 2A010000 		.4byte	.LFE38
 2564 020e 0200     		.2byte	0x2
 2565 0210 77       		.byte	0x77
 2566 0211 20       		.sleb128 32
 2567 0212 00000000 		.4byte	0x0
 2568 0216 00000000 		.4byte	0x0
 2569              	.LLST10:
 2570 021a 00000000 		.4byte	.LFB39
 2571 021e 02000000 		.4byte	.LCFI29
 2572 0222 0100     		.2byte	0x1
 2573 0224 5D       		.byte	0x5d
 2574 0225 02000000 		.4byte	.LCFI29
 2575 0229 04000000 		.4byte	.LCFI30
 2576 022d 0200     		.2byte	0x2
 2577 022f 7D       		.byte	0x7d
 2578 0230 08       		.sleb128 8
 2579 0231 04000000 		.4byte	.LCFI30
 2580 0235 06000000 		.4byte	.LCFI31
 2581 0239 0200     		.2byte	0x2
 2582 023b 7D       		.byte	0x7d
 2583 023c 20       		.sleb128 32
 2584 023d 06000000 		.4byte	.LCFI31
 2585 0241 1C010000 		.4byte	.LFE39
 2586 0245 0200     		.2byte	0x2
 2587 0247 77       		.byte	0x77
ARM GAS  C:\Users\Martin\AppData\Local\Temp\ccuhJpPE.s 			page 57


 2588 0248 20       		.sleb128 32
 2589 0249 00000000 		.4byte	0x0
 2590 024d 00000000 		.4byte	0x0
 2591              	.LLST11:
 2592 0251 00000000 		.4byte	.LFB40
 2593 0255 02000000 		.4byte	.LCFI32
 2594 0259 0100     		.2byte	0x1
 2595 025b 5D       		.byte	0x5d
 2596 025c 02000000 		.4byte	.LCFI32
 2597 0260 04000000 		.4byte	.LCFI33
 2598 0264 0200     		.2byte	0x2
 2599 0266 7D       		.byte	0x7d
 2600 0267 04       		.sleb128 4
 2601 0268 04000000 		.4byte	.LCFI33
 2602 026c 06000000 		.4byte	.LCFI34
 2603 0270 0200     		.2byte	0x2
 2604 0272 7D       		.byte	0x7d
 2605 0273 10       		.sleb128 16
 2606 0274 06000000 		.4byte	.LCFI34
 2607 0278 36000000 		.4byte	.LFE40
 2608 027c 0200     		.2byte	0x2
 2609 027e 77       		.byte	0x77
 2610 027f 10       		.sleb128 16
 2611 0280 00000000 		.4byte	0x0
 2612 0284 00000000 		.4byte	0x0
 2613              	.LLST12:
 2614 0288 00000000 		.4byte	.LFB41
 2615 028c 02000000 		.4byte	.LCFI35
 2616 0290 0100     		.2byte	0x1
 2617 0292 5D       		.byte	0x5d
 2618 0293 02000000 		.4byte	.LCFI35
 2619 0297 04000000 		.4byte	.LCFI36
 2620 029b 0200     		.2byte	0x2
 2621 029d 7D       		.byte	0x7d
 2622 029e 04       		.sleb128 4
 2623 029f 04000000 		.4byte	.LCFI36
 2624 02a3 06000000 		.4byte	.LCFI37
 2625 02a7 0200     		.2byte	0x2
 2626 02a9 7D       		.byte	0x7d
 2627 02aa 18       		.sleb128 24
 2628 02ab 06000000 		.4byte	.LCFI37
 2629 02af 7E010000 		.4byte	.LFE41
 2630 02b3 0200     		.2byte	0x2
 2631 02b5 77       		.byte	0x77
 2632 02b6 18       		.sleb128 24
 2633 02b7 00000000 		.4byte	0x0
 2634 02bb 00000000 		.4byte	0x0
 2635              	.LLST13:
 2636 02bf 00000000 		.4byte	.LFB42
 2637 02c3 02000000 		.4byte	.LCFI38
 2638 02c7 0100     		.2byte	0x1
 2639 02c9 5D       		.byte	0x5d
 2640 02ca 02000000 		.4byte	.LCFI38
 2641 02ce 04000000 		.4byte	.LCFI39
 2642 02d2 0200     		.2byte	0x2
 2643 02d4 7D       		.byte	0x7d
 2644 02d5 04       		.sleb128 4
ARM GAS  C:\Users\Martin\AppData\Local\Temp\ccuhJpPE.s 			page 58


 2645 02d6 04000000 		.4byte	.LCFI39
 2646 02da 06000000 		.4byte	.LCFI40
 2647 02de 0200     		.2byte	0x2
 2648 02e0 7D       		.byte	0x7d
 2649 02e1 18       		.sleb128 24
 2650 02e2 06000000 		.4byte	.LCFI40
 2651 02e6 DE000000 		.4byte	.LFE42
 2652 02ea 0200     		.2byte	0x2
 2653 02ec 77       		.byte	0x77
 2654 02ed 18       		.sleb128 24
 2655 02ee 00000000 		.4byte	0x0
 2656 02f2 00000000 		.4byte	0x0
 2657              	.LLST14:
 2658 02f6 00000000 		.4byte	.LFB43
 2659 02fa 02000000 		.4byte	.LCFI41
 2660 02fe 0100     		.2byte	0x1
 2661 0300 5D       		.byte	0x5d
 2662 0301 02000000 		.4byte	.LCFI41
 2663 0305 04000000 		.4byte	.LCFI42
 2664 0309 0200     		.2byte	0x2
 2665 030b 7D       		.byte	0x7d
 2666 030c 04       		.sleb128 4
 2667 030d 04000000 		.4byte	.LCFI42
 2668 0311 06000000 		.4byte	.LCFI43
 2669 0315 0200     		.2byte	0x2
 2670 0317 7D       		.byte	0x7d
 2671 0318 18       		.sleb128 24
 2672 0319 06000000 		.4byte	.LCFI43
 2673 031d 10010000 		.4byte	.LFE43
 2674 0321 0200     		.2byte	0x2
 2675 0323 77       		.byte	0x77
 2676 0324 18       		.sleb128 24
 2677 0325 00000000 		.4byte	0x0
 2678 0329 00000000 		.4byte	0x0
 2679              	.LLST15:
 2680 032d 00000000 		.4byte	.LFB44
 2681 0331 02000000 		.4byte	.LCFI44
 2682 0335 0100     		.2byte	0x1
 2683 0337 5D       		.byte	0x5d
 2684 0338 02000000 		.4byte	.LCFI44
 2685 033c 04000000 		.4byte	.LCFI45
 2686 0340 0200     		.2byte	0x2
 2687 0342 7D       		.byte	0x7d
 2688 0343 04       		.sleb128 4
 2689 0344 04000000 		.4byte	.LCFI45
 2690 0348 06000000 		.4byte	.LCFI46
 2691 034c 0200     		.2byte	0x2
 2692 034e 7D       		.byte	0x7d
 2693 034f 18       		.sleb128 24
 2694 0350 06000000 		.4byte	.LCFI46
 2695 0354 D6000000 		.4byte	.LFE44
 2696 0358 0200     		.2byte	0x2
 2697 035a 77       		.byte	0x77
 2698 035b 18       		.sleb128 24
 2699 035c 00000000 		.4byte	0x0
 2700 0360 00000000 		.4byte	0x0
 2701              		.file 2 "c:\\program files (x86)\\cypress\\psoc creator\\2.2\\psoc creator\\import\\gnu_cs\\arm\\4
ARM GAS  C:\Users\Martin\AppData\Local\Temp\ccuhJpPE.s 			page 59


 2702              		.file 3 "./Generated_Source/PSoC5/cytypes.h"
 2703              		.file 4 ".\\/types.h"
 2704              		.file 5 ".\\/ring_buffer.h"
 2705              		.file 6 "./Generated_Source/PSoC5/core_cm3.h"
 2706              		.section	.debug_info
 2707 0000 1F060000 		.4byte	0x61f
 2708 0004 0200     		.2byte	0x2
 2709 0006 00000000 		.4byte	.Ldebug_abbrev0
 2710 000a 04       		.byte	0x4
 2711 000b 01       		.uleb128 0x1
 2712 000c DD020000 		.4byte	.LASF54
 2713 0010 01       		.byte	0x1
 2714 0011 5D020000 		.4byte	.LASF55
 2715 0015 C0010000 		.4byte	.LASF56
 2716 0019 00000000 		.4byte	0x0
 2717 001d 00000000 		.4byte	0x0
 2718 0021 00000000 		.4byte	.Ldebug_ranges0+0x0
 2719 0025 00000000 		.4byte	.Ldebug_line0
 2720 0029 02       		.uleb128 0x2
 2721 002a 01       		.byte	0x1
 2722 002b 06       		.byte	0x6
 2723 002c 87010000 		.4byte	.LASF0
 2724 0030 03       		.uleb128 0x3
 2725 0031 C6000000 		.4byte	.LASF3
 2726 0035 02       		.byte	0x2
 2727 0036 2A       		.byte	0x2a
 2728 0037 3B000000 		.4byte	0x3b
 2729 003b 02       		.uleb128 0x2
 2730 003c 01       		.byte	0x1
 2731 003d 08       		.byte	0x8
 2732 003e 60010000 		.4byte	.LASF1
 2733 0042 02       		.uleb128 0x2
 2734 0043 02       		.byte	0x2
 2735 0044 05       		.byte	0x5
 2736 0045 44000000 		.4byte	.LASF2
 2737 0049 03       		.uleb128 0x3
 2738 004a B7010000 		.4byte	.LASF4
 2739 004e 02       		.byte	0x2
 2740 004f 36       		.byte	0x36
 2741 0050 54000000 		.4byte	0x54
 2742 0054 02       		.uleb128 0x2
 2743 0055 02       		.byte	0x2
 2744 0056 07       		.byte	0x7
 2745 0057 2D020000 		.4byte	.LASF5
 2746 005b 02       		.uleb128 0x2
 2747 005c 04       		.byte	0x4
 2748 005d 05       		.byte	0x5
 2749 005e 24010000 		.4byte	.LASF6
 2750 0062 02       		.uleb128 0x2
 2751 0063 04       		.byte	0x4
 2752 0064 07       		.byte	0x7
 2753 0065 80020000 		.4byte	.LASF7
 2754 0069 02       		.uleb128 0x2
 2755 006a 08       		.byte	0x8
 2756 006b 05       		.byte	0x5
 2757 006c 07010000 		.4byte	.LASF8
 2758 0070 02       		.uleb128 0x2
ARM GAS  C:\Users\Martin\AppData\Local\Temp\ccuhJpPE.s 			page 60


 2759 0071 08       		.byte	0x8
 2760 0072 07       		.byte	0x7
 2761 0073 93010000 		.4byte	.LASF9
 2762 0077 04       		.uleb128 0x4
 2763 0078 04       		.byte	0x4
 2764 0079 05       		.byte	0x5
 2765 007a 696E7400 		.ascii	"int\000"
 2766 007e 02       		.uleb128 0x2
 2767 007f 04       		.byte	0x4
 2768 0080 07       		.byte	0x7
 2769 0081 AA010000 		.4byte	.LASF10
 2770 0085 03       		.uleb128 0x3
 2771 0086 D9000000 		.4byte	.LASF11
 2772 008a 03       		.byte	0x3
 2773 008b 4C       		.byte	0x4c
 2774 008c 3B000000 		.4byte	0x3b
 2775 0090 02       		.uleb128 0x2
 2776 0091 04       		.byte	0x4
 2777 0092 04       		.byte	0x4
 2778 0093 FC000000 		.4byte	.LASF12
 2779 0097 02       		.uleb128 0x2
 2780 0098 08       		.byte	0x8
 2781 0099 04       		.byte	0x4
 2782 009a 9B020000 		.4byte	.LASF13
 2783 009e 02       		.uleb128 0x2
 2784 009f 01       		.byte	0x1
 2785 00a0 08       		.byte	0x8
 2786 00a1 4F020000 		.4byte	.LASF14
 2787 00a5 05       		.uleb128 0x5
 2788 00a6 04       		.byte	0x4
 2789 00a7 07       		.byte	0x7
 2790 00a8 03       		.uleb128 0x3
 2791 00a9 1D010000 		.4byte	.LASF15
 2792 00ad 04       		.byte	0x4
 2793 00ae 0F       		.byte	0xf
 2794 00af 85000000 		.4byte	0x85
 2795 00b3 06       		.uleb128 0x6
 2796 00b4 6E010000 		.4byte	.LASF57
 2797 00b8 14       		.byte	0x14
 2798 00b9 05       		.byte	0x5
 2799 00ba 1D       		.byte	0x1d
 2800 00bb 21010000 		.4byte	0x121
 2801 00bf 07       		.uleb128 0x7
 2802 00c0 69647800 		.ascii	"idx\000"
 2803 00c4 05       		.byte	0x5
 2804 00c5 1E       		.byte	0x1e
 2805 00c6 30000000 		.4byte	0x30
 2806 00ca 02       		.byte	0x2
 2807 00cb 23       		.byte	0x23
 2808 00cc 00       		.uleb128 0x0
 2809 00cd 08       		.uleb128 0x8
 2810 00ce A7000000 		.4byte	.LASF16
 2811 00d2 05       		.byte	0x5
 2812 00d3 1F       		.byte	0x1f
 2813 00d4 21010000 		.4byte	0x121
 2814 00d8 02       		.byte	0x2
 2815 00d9 23       		.byte	0x23
ARM GAS  C:\Users\Martin\AppData\Local\Temp\ccuhJpPE.s 			page 61


 2816 00da 04       		.uleb128 0x4
 2817 00db 08       		.uleb128 0x8
 2818 00dc AC020000 		.4byte	.LASF17
 2819 00e0 05       		.byte	0x5
 2820 00e1 20       		.byte	0x20
 2821 00e2 49000000 		.4byte	0x49
 2822 00e6 02       		.byte	0x2
 2823 00e7 23       		.byte	0x23
 2824 00e8 08       		.uleb128 0x8
 2825 00e9 08       		.uleb128 0x8
 2826 00ea A2000000 		.4byte	.LASF18
 2827 00ee 05       		.byte	0x5
 2828 00ef 21       		.byte	0x21
 2829 00f0 49000000 		.4byte	0x49
 2830 00f4 02       		.byte	0x2
 2831 00f5 23       		.byte	0x23
 2832 00f6 0A       		.uleb128 0xa
 2833 00f7 08       		.uleb128 0x8
 2834 00f8 5B010000 		.4byte	.LASF19
 2835 00fc 05       		.byte	0x5
 2836 00fd 22       		.byte	0x22
 2837 00fe 49000000 		.4byte	0x49
 2838 0102 02       		.byte	0x2
 2839 0103 23       		.byte	0x23
 2840 0104 0C       		.uleb128 0xc
 2841 0105 07       		.uleb128 0x7
 2842 0106 7A6200   		.ascii	"zb\000"
 2843 0109 05       		.byte	0x5
 2844 010a 23       		.byte	0x23
 2845 010b 30000000 		.4byte	0x30
 2846 010f 02       		.byte	0x2
 2847 0110 23       		.byte	0x23
 2848 0111 0E       		.uleb128 0xe
 2849 0112 08       		.uleb128 0x8
 2850 0113 D4020000 		.4byte	.LASF20
 2851 0117 05       		.byte	0x5
 2852 0118 24       		.byte	0x24
 2853 0119 49000000 		.4byte	0x49
 2854 011d 02       		.byte	0x2
 2855 011e 23       		.byte	0x23
 2856 011f 10       		.uleb128 0x10
 2857 0120 00       		.byte	0x0
 2858 0121 09       		.uleb128 0x9
 2859 0122 04       		.byte	0x4
 2860 0123 30000000 		.4byte	0x30
 2861 0127 03       		.uleb128 0x3
 2862 0128 3D010000 		.4byte	.LASF21
 2863 012c 05       		.byte	0x5
 2864 012d 25       		.byte	0x25
 2865 012e B3000000 		.4byte	0xb3
 2866 0132 0A       		.uleb128 0xa
 2867 0133 01       		.byte	0x1
 2868 0134 75020000 		.4byte	.LASF22
 2869 0138 01       		.byte	0x1
 2870 0139 23       		.byte	0x23
 2871 013a 01       		.byte	0x1
 2872 013b A8000000 		.4byte	0xa8
ARM GAS  C:\Users\Martin\AppData\Local\Temp\ccuhJpPE.s 			page 62


 2873 013f 00000000 		.4byte	.LFB29
 2874 0143 20000000 		.4byte	.LFE29
 2875 0147 00000000 		.4byte	.LLST0
 2876 014b 61010000 		.4byte	0x161
 2877 014f 0B       		.uleb128 0xb
 2878 0150 37010000 		.4byte	.LASF24
 2879 0154 01       		.byte	0x1
 2880 0155 25       		.byte	0x25
 2881 0156 77000000 		.4byte	0x77
 2882 015a 05       		.byte	0x5
 2883 015b 03       		.byte	0x3
 2884 015c 00000000 		.4byte	stest.3537
 2885 0160 00       		.byte	0x0
 2886 0161 0A       		.uleb128 0xa
 2887 0162 01       		.byte	0x1
 2888 0163 7E000000 		.4byte	.LASF23
 2889 0167 01       		.byte	0x1
 2890 0168 2E       		.byte	0x2e
 2891 0169 01       		.byte	0x1
 2892 016a 30000000 		.4byte	0x30
 2893 016e 00000000 		.4byte	.LFB30
 2894 0172 36010000 		.4byte	.LFE30
 2895 0176 2B000000 		.4byte	.LLST1
 2896 017a 9B010000 		.4byte	0x19b
 2897 017e 0C       		.uleb128 0xc
 2898 017f DF000000 		.4byte	.LASF27
 2899 0183 01       		.byte	0x1
 2900 0184 2E       		.byte	0x2e
 2901 0185 30000000 		.4byte	0x30
 2902 0189 02       		.byte	0x2
 2903 018a 91       		.byte	0x91
 2904 018b 6F       		.sleb128 -17
 2905 018c 0B       		.uleb128 0xb
 2906 018d 40020000 		.4byte	.LASF25
 2907 0191 01       		.byte	0x1
 2908 0192 30       		.byte	0x30
 2909 0193 A8000000 		.4byte	0xa8
 2910 0197 02       		.byte	0x2
 2911 0198 91       		.byte	0x91
 2912 0199 77       		.sleb128 -9
 2913 019a 00       		.byte	0x0
 2914 019b 0A       		.uleb128 0xa
 2915 019c 01       		.byte	0x1
 2916 019d E7000000 		.4byte	.LASF26
 2917 01a1 01       		.byte	0x1
 2918 01a2 44       		.byte	0x44
 2919 01a3 01       		.byte	0x1
 2920 01a4 30000000 		.4byte	0x30
 2921 01a8 00000000 		.4byte	.LFB31
 2922 01ac 8C010000 		.4byte	.LFE31
 2923 01b0 62000000 		.4byte	.LLST2
 2924 01b4 E3010000 		.4byte	0x1e3
 2925 01b8 0C       		.uleb128 0xc
 2926 01b9 47020000 		.4byte	.LASF28
 2927 01bd 01       		.byte	0x1
 2928 01be 44       		.byte	0x44
 2929 01bf 21010000 		.4byte	0x121
ARM GAS  C:\Users\Martin\AppData\Local\Temp\ccuhJpPE.s 			page 63


 2930 01c3 02       		.byte	0x2
 2931 01c4 91       		.byte	0x91
 2932 01c5 6C       		.sleb128 -20
 2933 01c6 0C       		.uleb128 0xc
 2934 01c7 77000000 		.4byte	.LASF29
 2935 01cb 01       		.byte	0x1
 2936 01cc 44       		.byte	0x44
 2937 01cd 49000000 		.4byte	0x49
 2938 01d1 02       		.byte	0x2
 2939 01d2 91       		.byte	0x91
 2940 01d3 6A       		.sleb128 -22
 2941 01d4 0B       		.uleb128 0xb
 2942 01d5 DF000000 		.4byte	.LASF27
 2943 01d9 01       		.byte	0x1
 2944 01da 46       		.byte	0x46
 2945 01db 30000000 		.4byte	0x30
 2946 01df 02       		.byte	0x2
 2947 01e0 91       		.byte	0x91
 2948 01e1 77       		.sleb128 -9
 2949 01e2 00       		.byte	0x0
 2950 01e3 0A       		.uleb128 0xa
 2951 01e4 01       		.byte	0x1
 2952 01e5 AF000000 		.4byte	.LASF30
 2953 01e9 01       		.byte	0x1
 2954 01ea 6C       		.byte	0x6c
 2955 01eb 01       		.byte	0x1
 2956 01ec 30000000 		.4byte	0x30
 2957 01f0 00000000 		.4byte	.LFB32
 2958 01f4 5A010000 		.4byte	.LFE32
 2959 01f8 99000000 		.4byte	.LLST3
 2960 01fc 1D020000 		.4byte	0x21d
 2961 0200 0C       		.uleb128 0xc
 2962 0201 DF000000 		.4byte	.LASF27
 2963 0205 01       		.byte	0x1
 2964 0206 6C       		.byte	0x6c
 2965 0207 30000000 		.4byte	0x30
 2966 020b 02       		.byte	0x2
 2967 020c 91       		.byte	0x91
 2968 020d 6F       		.sleb128 -17
 2969 020e 0B       		.uleb128 0xb
 2970 020f 40020000 		.4byte	.LASF25
 2971 0213 01       		.byte	0x1
 2972 0214 6E       		.byte	0x6e
 2973 0215 A8000000 		.4byte	0xa8
 2974 0219 02       		.byte	0x2
 2975 021a 91       		.byte	0x91
 2976 021b 77       		.sleb128 -9
 2977 021c 00       		.byte	0x0
 2978 021d 0A       		.uleb128 0xa
 2979 021e 01       		.byte	0x1
 2980 021f 4E010000 		.4byte	.LASF31
 2981 0223 01       		.byte	0x1
 2982 0224 85       		.byte	0x85
 2983 0225 01       		.byte	0x1
 2984 0226 30000000 		.4byte	0x30
 2985 022a 00000000 		.4byte	.LFB33
 2986 022e 08010000 		.4byte	.LFE33
ARM GAS  C:\Users\Martin\AppData\Local\Temp\ccuhJpPE.s 			page 64


 2987 0232 D0000000 		.4byte	.LLST4
 2988 0236 65020000 		.4byte	0x265
 2989 023a 0C       		.uleb128 0xc
 2990 023b DF000000 		.4byte	.LASF27
 2991 023f 01       		.byte	0x1
 2992 0240 85       		.byte	0x85
 2993 0241 30000000 		.4byte	0x30
 2994 0245 02       		.byte	0x2
 2995 0246 91       		.byte	0x91
 2996 0247 6F       		.sleb128 -17
 2997 0248 0C       		.uleb128 0xc
 2998 0249 49010000 		.4byte	.LASF32
 2999 024d 01       		.byte	0x1
 3000 024e 85       		.byte	0x85
 3001 024f 30000000 		.4byte	0x30
 3002 0253 02       		.byte	0x2
 3003 0254 91       		.byte	0x91
 3004 0255 6E       		.sleb128 -18
 3005 0256 0B       		.uleb128 0xb
 3006 0257 40020000 		.4byte	.LASF25
 3007 025b 01       		.byte	0x1
 3008 025c 87       		.byte	0x87
 3009 025d A8000000 		.4byte	0xa8
 3010 0261 02       		.byte	0x2
 3011 0262 91       		.byte	0x91
 3012 0263 77       		.sleb128 -9
 3013 0264 00       		.byte	0x0
 3014 0265 0A       		.uleb128 0xa
 3015 0266 01       		.byte	0x1
 3016 0267 4E000000 		.4byte	.LASF33
 3017 026b 01       		.byte	0x1
 3018 026c A4       		.byte	0xa4
 3019 026d 01       		.byte	0x1
 3020 026e 30000000 		.4byte	0x30
 3021 0272 00000000 		.4byte	.LFB34
 3022 0276 9C010000 		.4byte	.LFE34
 3023 027a 07010000 		.4byte	.LLST5
 3024 027e AD020000 		.4byte	0x2ad
 3025 0282 0C       		.uleb128 0xc
 3026 0283 DF000000 		.4byte	.LASF27
 3027 0287 01       		.byte	0x1
 3028 0288 A4       		.byte	0xa4
 3029 0289 30000000 		.4byte	0x30
 3030 028d 02       		.byte	0x2
 3031 028e 91       		.byte	0x91
 3032 028f 6F       		.sleb128 -17
 3033 0290 0C       		.uleb128 0xc
 3034 0291 49010000 		.4byte	.LASF32
 3035 0295 01       		.byte	0x1
 3036 0296 A4       		.byte	0xa4
 3037 0297 21010000 		.4byte	0x121
 3038 029b 02       		.byte	0x2
 3039 029c 91       		.byte	0x91
 3040 029d 68       		.sleb128 -24
 3041 029e 0B       		.uleb128 0xb
 3042 029f 40020000 		.4byte	.LASF25
 3043 02a3 01       		.byte	0x1
ARM GAS  C:\Users\Martin\AppData\Local\Temp\ccuhJpPE.s 			page 65


 3044 02a4 A6       		.byte	0xa6
 3045 02a5 A8000000 		.4byte	0xa8
 3046 02a9 02       		.byte	0x2
 3047 02aa 91       		.byte	0x91
 3048 02ab 77       		.sleb128 -9
 3049 02ac 00       		.byte	0x0
 3050 02ad 0A       		.uleb128 0xa
 3051 02ae 01       		.byte	0x1
 3052 02af 90000000 		.4byte	.LASF34
 3053 02b3 01       		.byte	0x1
 3054 02b4 D1       		.byte	0xd1
 3055 02b5 01       		.byte	0x1
 3056 02b6 30000000 		.4byte	0x30
 3057 02ba 00000000 		.4byte	.LFB35
 3058 02be 9C010000 		.4byte	.LFE35
 3059 02c2 3E010000 		.4byte	.LLST6
 3060 02c6 F5020000 		.4byte	0x2f5
 3061 02ca 0C       		.uleb128 0xc
 3062 02cb DF000000 		.4byte	.LASF27
 3063 02cf 01       		.byte	0x1
 3064 02d0 D1       		.byte	0xd1
 3065 02d1 30000000 		.4byte	0x30
 3066 02d5 02       		.byte	0x2
 3067 02d6 91       		.byte	0x91
 3068 02d7 6F       		.sleb128 -17
 3069 02d8 0C       		.uleb128 0xc
 3070 02d9 49010000 		.4byte	.LASF32
 3071 02dd 01       		.byte	0x1
 3072 02de D1       		.byte	0xd1
 3073 02df 21010000 		.4byte	0x121
 3074 02e3 02       		.byte	0x2
 3075 02e4 91       		.byte	0x91
 3076 02e5 68       		.sleb128 -24
 3077 02e6 0B       		.uleb128 0xb
 3078 02e7 40020000 		.4byte	.LASF25
 3079 02eb 01       		.byte	0x1
 3080 02ec D3       		.byte	0xd3
 3081 02ed A8000000 		.4byte	0xa8
 3082 02f1 02       		.byte	0x2
 3083 02f2 91       		.byte	0x91
 3084 02f3 77       		.sleb128 -9
 3085 02f4 00       		.byte	0x0
 3086 02f5 0A       		.uleb128 0xa
 3087 02f6 01       		.byte	0x1
 3088 02f7 60000000 		.4byte	.LASF35
 3089 02fb 01       		.byte	0x1
 3090 02fc FD       		.byte	0xfd
 3091 02fd 01       		.byte	0x1
 3092 02fe 30000000 		.4byte	0x30
 3093 0302 00000000 		.4byte	.LFB36
 3094 0306 42010000 		.4byte	.LFE36
 3095 030a 75010000 		.4byte	.LLST7
 3096 030e 3D030000 		.4byte	0x33d
 3097 0312 0C       		.uleb128 0xc
 3098 0313 DF000000 		.4byte	.LASF27
 3099 0317 01       		.byte	0x1
 3100 0318 FD       		.byte	0xfd
ARM GAS  C:\Users\Martin\AppData\Local\Temp\ccuhJpPE.s 			page 66


 3101 0319 30000000 		.4byte	0x30
 3102 031d 02       		.byte	0x2
 3103 031e 91       		.byte	0x91
 3104 031f 6F       		.sleb128 -17
 3105 0320 0C       		.uleb128 0xc
 3106 0321 1A000000 		.4byte	.LASF36
 3107 0325 01       		.byte	0x1
 3108 0326 FD       		.byte	0xfd
 3109 0327 30000000 		.4byte	0x30
 3110 032b 02       		.byte	0x2
 3111 032c 91       		.byte	0x91
 3112 032d 6E       		.sleb128 -18
 3113 032e 0B       		.uleb128 0xb
 3114 032f 00000000 		.4byte	.LASF37
 3115 0333 01       		.byte	0x1
 3116 0334 FF       		.byte	0xff
 3117 0335 30000000 		.4byte	0x30
 3118 0339 02       		.byte	0x2
 3119 033a 91       		.byte	0x91
 3120 033b 77       		.sleb128 -9
 3121 033c 00       		.byte	0x0
 3122 033d 0D       		.uleb128 0xd
 3123 033e 01       		.byte	0x1
 3124 033f 7B010000 		.4byte	.LASF38
 3125 0343 01       		.byte	0x1
 3126 0344 1901     		.2byte	0x119
 3127 0346 01       		.byte	0x1
 3128 0347 30000000 		.4byte	0x30
 3129 034b 00000000 		.4byte	.LFB37
 3130 034f 6A010000 		.4byte	.LFE37
 3131 0353 AC010000 		.4byte	.LLST8
 3132 0357 C3030000 		.4byte	0x3c3
 3133 035b 0E       		.uleb128 0xe
 3134 035c DF000000 		.4byte	.LASF27
 3135 0360 01       		.byte	0x1
 3136 0361 1901     		.2byte	0x119
 3137 0363 30000000 		.4byte	0x30
 3138 0367 02       		.byte	0x2
 3139 0368 91       		.byte	0x91
 3140 0369 67       		.sleb128 -25
 3141 036a 0F       		.uleb128 0xf
 3142 036b 6D736700 		.ascii	"msg\000"
 3143 036f 01       		.byte	0x1
 3144 0370 1901     		.2byte	0x119
 3145 0372 21010000 		.4byte	0x121
 3146 0376 02       		.byte	0x2
 3147 0377 91       		.byte	0x91
 3148 0378 60       		.sleb128 -32
 3149 0379 0E       		.uleb128 0xe
 3150 037a AC020000 		.4byte	.LASF17
 3151 037e 01       		.byte	0x1
 3152 037f 1901     		.2byte	0x119
 3153 0381 30000000 		.4byte	0x30
 3154 0385 02       		.byte	0x2
 3155 0386 91       		.byte	0x91
 3156 0387 5F       		.sleb128 -33
 3157 0388 10       		.uleb128 0x10
ARM GAS  C:\Users\Martin\AppData\Local\Temp\ccuhJpPE.s 			page 67


 3158 0389 40020000 		.4byte	.LASF25
 3159 038d 01       		.byte	0x1
 3160 038e 1B01     		.2byte	0x11b
 3161 0390 A8000000 		.4byte	0xa8
 3162 0394 02       		.byte	0x2
 3163 0395 91       		.byte	0x91
 3164 0396 6F       		.sleb128 -17
 3165 0397 11       		.uleb128 0x11
 3166 0398 6900     		.ascii	"i\000"
 3167 039a 01       		.byte	0x1
 3168 039b 1C01     		.2byte	0x11c
 3169 039d 77000000 		.4byte	0x77
 3170 03a1 02       		.byte	0x2
 3171 03a2 91       		.byte	0x91
 3172 03a3 70       		.sleb128 -16
 3173 03a4 10       		.uleb128 0x10
 3174 03a5 02010000 		.4byte	.LASF39
 3175 03a9 01       		.byte	0x1
 3176 03aa 1D01     		.2byte	0x11d
 3177 03ac 30000000 		.4byte	0x30
 3178 03b0 02       		.byte	0x2
 3179 03b1 91       		.byte	0x91
 3180 03b2 6E       		.sleb128 -18
 3181 03b3 10       		.uleb128 0x10
 3182 03b4 A2020000 		.4byte	.LASF40
 3183 03b8 01       		.byte	0x1
 3184 03b9 1E01     		.2byte	0x11e
 3185 03bb 49000000 		.4byte	0x49
 3186 03bf 02       		.byte	0x2
 3187 03c0 91       		.byte	0x91
 3188 03c1 76       		.sleb128 -10
 3189 03c2 00       		.byte	0x0
 3190 03c3 0D       		.uleb128 0xd
 3191 03c4 01       		.byte	0x1
 3192 03c5 24000000 		.4byte	.LASF41
 3193 03c9 01       		.byte	0x1
 3194 03ca 6901     		.2byte	0x169
 3195 03cc 01       		.byte	0x1
 3196 03cd 30000000 		.4byte	0x30
 3197 03d1 00000000 		.4byte	.LFB38
 3198 03d5 2A010000 		.4byte	.LFE38
 3199 03d9 E3010000 		.4byte	.LLST9
 3200 03dd 3A040000 		.4byte	0x43a
 3201 03e1 0E       		.uleb128 0xe
 3202 03e2 DF000000 		.4byte	.LASF27
 3203 03e6 01       		.byte	0x1
 3204 03e7 6901     		.2byte	0x169
 3205 03e9 30000000 		.4byte	0x30
 3206 03ed 02       		.byte	0x2
 3207 03ee 91       		.byte	0x91
 3208 03ef 6F       		.sleb128 -17
 3209 03f0 0E       		.uleb128 0xe
 3210 03f1 35000000 		.4byte	.LASF42
 3211 03f5 01       		.byte	0x1
 3212 03f6 6901     		.2byte	0x169
 3213 03f8 21010000 		.4byte	0x121
 3214 03fc 02       		.byte	0x2
ARM GAS  C:\Users\Martin\AppData\Local\Temp\ccuhJpPE.s 			page 68


 3215 03fd 91       		.byte	0x91
 3216 03fe 68       		.sleb128 -24
 3217 03ff 0E       		.uleb128 0xe
 3218 0400 AC020000 		.4byte	.LASF17
 3219 0404 01       		.byte	0x1
 3220 0405 6901     		.2byte	0x169
 3221 0407 21010000 		.4byte	0x121
 3222 040b 02       		.byte	0x2
 3223 040c 91       		.byte	0x91
 3224 040d 64       		.sleb128 -28
 3225 040e 10       		.uleb128 0x10
 3226 040f 40020000 		.4byte	.LASF25
 3227 0413 01       		.byte	0x1
 3228 0414 6B01     		.2byte	0x16b
 3229 0416 A8000000 		.4byte	0xa8
 3230 041a 02       		.byte	0x2
 3231 041b 91       		.byte	0x91
 3232 041c 73       		.sleb128 -13
 3233 041d 11       		.uleb128 0x11
 3234 041e 6900     		.ascii	"i\000"
 3235 0420 01       		.byte	0x1
 3236 0421 6C01     		.2byte	0x16c
 3237 0423 77000000 		.4byte	0x77
 3238 0427 02       		.byte	0x2
 3239 0428 91       		.byte	0x91
 3240 0429 74       		.sleb128 -12
 3241 042a 10       		.uleb128 0x10
 3242 042b 02010000 		.4byte	.LASF39
 3243 042f 01       		.byte	0x1
 3244 0430 6D01     		.2byte	0x16d
 3245 0432 30000000 		.4byte	0x30
 3246 0436 02       		.byte	0x2
 3247 0437 91       		.byte	0x91
 3248 0438 72       		.sleb128 -14
 3249 0439 00       		.byte	0x0
 3250 043a 0D       		.uleb128 0xd
 3251 043b 01       		.byte	0x1
 3252 043c B1020000 		.4byte	.LASF43
 3253 0440 01       		.byte	0x1
 3254 0441 AD01     		.2byte	0x1ad
 3255 0443 01       		.byte	0x1
 3256 0444 30000000 		.4byte	0x30
 3257 0448 00000000 		.4byte	.LFB39
 3258 044c 1C010000 		.4byte	.LFE39
 3259 0450 1A020000 		.4byte	.LLST10
 3260 0454 B1040000 		.4byte	0x4b1
 3261 0458 0E       		.uleb128 0xe
 3262 0459 DF000000 		.4byte	.LASF27
 3263 045d 01       		.byte	0x1
 3264 045e AD01     		.2byte	0x1ad
 3265 0460 30000000 		.4byte	0x30
 3266 0464 02       		.byte	0x2
 3267 0465 91       		.byte	0x91
 3268 0466 6F       		.sleb128 -17
 3269 0467 0E       		.uleb128 0xe
 3270 0468 35000000 		.4byte	.LASF42
 3271 046c 01       		.byte	0x1
ARM GAS  C:\Users\Martin\AppData\Local\Temp\ccuhJpPE.s 			page 69


 3272 046d AD01     		.2byte	0x1ad
 3273 046f 21010000 		.4byte	0x121
 3274 0473 02       		.byte	0x2
 3275 0474 91       		.byte	0x91
 3276 0475 68       		.sleb128 -24
 3277 0476 0E       		.uleb128 0xe
 3278 0477 AC020000 		.4byte	.LASF17
 3279 047b 01       		.byte	0x1
 3280 047c AD01     		.2byte	0x1ad
 3281 047e 21010000 		.4byte	0x121
 3282 0482 02       		.byte	0x2
 3283 0483 91       		.byte	0x91
 3284 0484 64       		.sleb128 -28
 3285 0485 10       		.uleb128 0x10
 3286 0486 40020000 		.4byte	.LASF25
 3287 048a 01       		.byte	0x1
 3288 048b AF01     		.2byte	0x1af
 3289 048d A8000000 		.4byte	0xa8
 3290 0491 02       		.byte	0x2
 3291 0492 91       		.byte	0x91
 3292 0493 73       		.sleb128 -13
 3293 0494 11       		.uleb128 0x11
 3294 0495 6900     		.ascii	"i\000"
 3295 0497 01       		.byte	0x1
 3296 0498 B001     		.2byte	0x1b0
 3297 049a 77000000 		.4byte	0x77
 3298 049e 02       		.byte	0x2
 3299 049f 91       		.byte	0x91
 3300 04a0 74       		.sleb128 -12
 3301 04a1 10       		.uleb128 0x10
 3302 04a2 02010000 		.4byte	.LASF39
 3303 04a6 01       		.byte	0x1
 3304 04a7 B101     		.2byte	0x1b1
 3305 04a9 30000000 		.4byte	0x30
 3306 04ad 02       		.byte	0x2
 3307 04ae 91       		.byte	0x91
 3308 04af 72       		.sleb128 -14
 3309 04b0 00       		.byte	0x0
 3310 04b1 0D       		.uleb128 0xd
 3311 04b2 01       		.byte	0x1
 3312 04b3 C2020000 		.4byte	.LASF44
 3313 04b7 01       		.byte	0x1
 3314 04b8 E901     		.2byte	0x1e9
 3315 04ba 01       		.byte	0x1
 3316 04bb 30000000 		.4byte	0x30
 3317 04bf 00000000 		.4byte	.LFB40
 3318 04c3 36000000 		.4byte	.LFE40
 3319 04c7 51020000 		.4byte	.LLST11
 3320 04cb DF040000 		.4byte	0x4df
 3321 04cf 0E       		.uleb128 0xe
 3322 04d0 DF000000 		.4byte	.LASF27
 3323 04d4 01       		.byte	0x1
 3324 04d5 E901     		.2byte	0x1e9
 3325 04d7 30000000 		.4byte	0x30
 3326 04db 02       		.byte	0x2
 3327 04dc 91       		.byte	0x91
 3328 04dd 77       		.sleb128 -9
ARM GAS  C:\Users\Martin\AppData\Local\Temp\ccuhJpPE.s 			page 70


 3329 04de 00       		.byte	0x0
 3330 04df 0D       		.uleb128 0xd
 3331 04e0 01       		.byte	0x1
 3332 04e1 07000000 		.4byte	.LASF45
 3333 04e5 01       		.byte	0x1
 3334 04e6 EF01     		.2byte	0x1ef
 3335 04e8 01       		.byte	0x1
 3336 04e9 30000000 		.4byte	0x30
 3337 04ed 00000000 		.4byte	.LFB41
 3338 04f1 7E010000 		.4byte	.LFE41
 3339 04f5 88020000 		.4byte	.LLST12
 3340 04f9 1C050000 		.4byte	0x51c
 3341 04fd 0E       		.uleb128 0xe
 3342 04fe DF000000 		.4byte	.LASF27
 3343 0502 01       		.byte	0x1
 3344 0503 EF01     		.2byte	0x1ef
 3345 0505 30000000 		.4byte	0x30
 3346 0509 02       		.byte	0x2
 3347 050a 91       		.byte	0x91
 3348 050b 6F       		.sleb128 -17
 3349 050c 10       		.uleb128 0x10
 3350 050d 2D010000 		.4byte	.LASF46
 3351 0511 01       		.byte	0x1
 3352 0512 F101     		.2byte	0x1f1
 3353 0514 30000000 		.4byte	0x30
 3354 0518 02       		.byte	0x2
 3355 0519 91       		.byte	0x91
 3356 051a 77       		.sleb128 -9
 3357 051b 00       		.byte	0x0
 3358 051c 12       		.uleb128 0x12
 3359 051d 15010000 		.4byte	.LASF49
 3360 0521 01       		.byte	0x1
 3361 0522 0C02     		.2byte	0x20c
 3362 0524 01       		.byte	0x1
 3363 0525 30000000 		.4byte	0x30
 3364 0529 00000000 		.4byte	.LFB42
 3365 052d DE000000 		.4byte	.LFE42
 3366 0531 BF020000 		.4byte	.LLST13
 3367 0535 67050000 		.4byte	0x567
 3368 0539 0E       		.uleb128 0xe
 3369 053a F6020000 		.4byte	.LASF47
 3370 053e 01       		.byte	0x1
 3371 053f 0C02     		.2byte	0x20c
 3372 0541 30000000 		.4byte	0x30
 3373 0545 02       		.byte	0x2
 3374 0546 91       		.byte	0x91
 3375 0547 6F       		.sleb128 -17
 3376 0548 10       		.uleb128 0x10
 3377 0549 40020000 		.4byte	.LASF25
 3378 054d 01       		.byte	0x1
 3379 054e 0E02     		.2byte	0x20e
 3380 0550 30000000 		.4byte	0x30
 3381 0554 02       		.byte	0x2
 3382 0555 91       		.byte	0x91
 3383 0556 75       		.sleb128 -11
 3384 0557 10       		.uleb128 0x10
 3385 0558 54020000 		.4byte	.LASF48
ARM GAS  C:\Users\Martin\AppData\Local\Temp\ccuhJpPE.s 			page 71


 3386 055c 01       		.byte	0x1
 3387 055d 0F02     		.2byte	0x20f
 3388 055f 49000000 		.4byte	0x49
 3389 0563 02       		.byte	0x2
 3390 0564 91       		.byte	0x91
 3391 0565 76       		.sleb128 -10
 3392 0566 00       		.byte	0x0
 3393 0567 12       		.uleb128 0x12
 3394 0568 6D020000 		.4byte	.LASF50
 3395 056c 01       		.byte	0x1
 3396 056d 2302     		.2byte	0x223
 3397 056f 01       		.byte	0x1
 3398 0570 30000000 		.4byte	0x30
 3399 0574 00000000 		.4byte	.LFB43
 3400 0578 10010000 		.4byte	.LFE43
 3401 057c F6020000 		.4byte	.LLST14
 3402 0580 A3050000 		.4byte	0x5a3
 3403 0584 0E       		.uleb128 0xe
 3404 0585 F6020000 		.4byte	.LASF47
 3405 0589 01       		.byte	0x1
 3406 058a 2302     		.2byte	0x223
 3407 058c 30000000 		.4byte	0x30
 3408 0590 02       		.byte	0x2
 3409 0591 91       		.byte	0x91
 3410 0592 6F       		.sleb128 -17
 3411 0593 10       		.uleb128 0x10
 3412 0594 40020000 		.4byte	.LASF25
 3413 0598 01       		.byte	0x1
 3414 0599 2502     		.2byte	0x225
 3415 059b 30000000 		.4byte	0x30
 3416 059f 02       		.byte	0x2
 3417 05a0 91       		.byte	0x91
 3418 05a1 77       		.sleb128 -9
 3419 05a2 00       		.byte	0x0
 3420 05a3 12       		.uleb128 0x12
 3421 05a4 3C000000 		.4byte	.LASF51
 3422 05a8 01       		.byte	0x1
 3423 05a9 3D02     		.2byte	0x23d
 3424 05ab 01       		.byte	0x1
 3425 05ac 30000000 		.4byte	0x30
 3426 05b0 00000000 		.4byte	.LFB44
 3427 05b4 D6000000 		.4byte	.LFE44
 3428 05b8 2D030000 		.4byte	.LLST15
 3429 05bc EE050000 		.4byte	0x5ee
 3430 05c0 0E       		.uleb128 0xe
 3431 05c1 F6020000 		.4byte	.LASF47
 3432 05c5 01       		.byte	0x1
 3433 05c6 3D02     		.2byte	0x23d
 3434 05c8 30000000 		.4byte	0x30
 3435 05cc 02       		.byte	0x2
 3436 05cd 91       		.byte	0x91
 3437 05ce 6F       		.sleb128 -17
 3438 05cf 10       		.uleb128 0x10
 3439 05d0 40020000 		.4byte	.LASF25
 3440 05d4 01       		.byte	0x1
 3441 05d5 3F02     		.2byte	0x23f
 3442 05d7 30000000 		.4byte	0x30
ARM GAS  C:\Users\Martin\AppData\Local\Temp\ccuhJpPE.s 			page 72


 3443 05db 02       		.byte	0x2
 3444 05dc 91       		.byte	0x91
 3445 05dd 75       		.sleb128 -11
 3446 05de 10       		.uleb128 0x10
 3447 05df 92020000 		.4byte	.LASF52
 3448 05e3 01       		.byte	0x1
 3449 05e4 4002     		.2byte	0x240
 3450 05e6 49000000 		.4byte	0x49
 3451 05ea 02       		.byte	0x2
 3452 05eb 91       		.byte	0x91
 3453 05ec 76       		.sleb128 -10
 3454 05ed 00       		.byte	0x0
 3455 05ee 13       		.uleb128 0x13
 3456 05ef 27010000 		.4byte	0x127
 3457 05f3 FE050000 		.4byte	0x5fe
 3458 05f7 14       		.uleb128 0x14
 3459 05f8 A5000000 		.4byte	0xa5
 3460 05fc 01       		.byte	0x1
 3461 05fd 00       		.byte	0x0
 3462 05fe 0B       		.uleb128 0xb
 3463 05ff CE000000 		.4byte	.LASF53
 3464 0603 01       		.byte	0x1
 3465 0604 15       		.byte	0x15
 3466 0605 EE050000 		.4byte	0x5ee
 3467 0609 05       		.byte	0x5
 3468 060a 03       		.byte	0x3
 3469 060b 00000000 		.4byte	RingBuffer
 3470 060f 15       		.uleb128 0x15
 3471 0610 E9020000 		.4byte	.LASF58
 3472 0614 06       		.byte	0x6
 3473 0615 CE06     		.2byte	0x6ce
 3474 0617 1D060000 		.4byte	0x61d
 3475 061b 01       		.byte	0x1
 3476 061c 01       		.byte	0x1
 3477 061d 16       		.uleb128 0x16
 3478 061e 77000000 		.4byte	0x77
 3479 0622 00       		.byte	0x0
 3480              		.section	.debug_abbrev
 3481 0000 01       		.uleb128 0x1
 3482 0001 11       		.uleb128 0x11
 3483 0002 01       		.byte	0x1
 3484 0003 25       		.uleb128 0x25
 3485 0004 0E       		.uleb128 0xe
 3486 0005 13       		.uleb128 0x13
 3487 0006 0B       		.uleb128 0xb
 3488 0007 03       		.uleb128 0x3
 3489 0008 0E       		.uleb128 0xe
 3490 0009 1B       		.uleb128 0x1b
 3491 000a 0E       		.uleb128 0xe
 3492 000b 11       		.uleb128 0x11
 3493 000c 01       		.uleb128 0x1
 3494 000d 52       		.uleb128 0x52
 3495 000e 01       		.uleb128 0x1
 3496 000f 55       		.uleb128 0x55
 3497 0010 06       		.uleb128 0x6
 3498 0011 10       		.uleb128 0x10
 3499 0012 06       		.uleb128 0x6
ARM GAS  C:\Users\Martin\AppData\Local\Temp\ccuhJpPE.s 			page 73


 3500 0013 00       		.byte	0x0
 3501 0014 00       		.byte	0x0
 3502 0015 02       		.uleb128 0x2
 3503 0016 24       		.uleb128 0x24
 3504 0017 00       		.byte	0x0
 3505 0018 0B       		.uleb128 0xb
 3506 0019 0B       		.uleb128 0xb
 3507 001a 3E       		.uleb128 0x3e
 3508 001b 0B       		.uleb128 0xb
 3509 001c 03       		.uleb128 0x3
 3510 001d 0E       		.uleb128 0xe
 3511 001e 00       		.byte	0x0
 3512 001f 00       		.byte	0x0
 3513 0020 03       		.uleb128 0x3
 3514 0021 16       		.uleb128 0x16
 3515 0022 00       		.byte	0x0
 3516 0023 03       		.uleb128 0x3
 3517 0024 0E       		.uleb128 0xe
 3518 0025 3A       		.uleb128 0x3a
 3519 0026 0B       		.uleb128 0xb
 3520 0027 3B       		.uleb128 0x3b
 3521 0028 0B       		.uleb128 0xb
 3522 0029 49       		.uleb128 0x49
 3523 002a 13       		.uleb128 0x13
 3524 002b 00       		.byte	0x0
 3525 002c 00       		.byte	0x0
 3526 002d 04       		.uleb128 0x4
 3527 002e 24       		.uleb128 0x24
 3528 002f 00       		.byte	0x0
 3529 0030 0B       		.uleb128 0xb
 3530 0031 0B       		.uleb128 0xb
 3531 0032 3E       		.uleb128 0x3e
 3532 0033 0B       		.uleb128 0xb
 3533 0034 03       		.uleb128 0x3
 3534 0035 08       		.uleb128 0x8
 3535 0036 00       		.byte	0x0
 3536 0037 00       		.byte	0x0
 3537 0038 05       		.uleb128 0x5
 3538 0039 24       		.uleb128 0x24
 3539 003a 00       		.byte	0x0
 3540 003b 0B       		.uleb128 0xb
 3541 003c 0B       		.uleb128 0xb
 3542 003d 3E       		.uleb128 0x3e
 3543 003e 0B       		.uleb128 0xb
 3544 003f 00       		.byte	0x0
 3545 0040 00       		.byte	0x0
 3546 0041 06       		.uleb128 0x6
 3547 0042 13       		.uleb128 0x13
 3548 0043 01       		.byte	0x1
 3549 0044 03       		.uleb128 0x3
 3550 0045 0E       		.uleb128 0xe
 3551 0046 0B       		.uleb128 0xb
 3552 0047 0B       		.uleb128 0xb
 3553 0048 3A       		.uleb128 0x3a
 3554 0049 0B       		.uleb128 0xb
 3555 004a 3B       		.uleb128 0x3b
 3556 004b 0B       		.uleb128 0xb
ARM GAS  C:\Users\Martin\AppData\Local\Temp\ccuhJpPE.s 			page 74


 3557 004c 01       		.uleb128 0x1
 3558 004d 13       		.uleb128 0x13
 3559 004e 00       		.byte	0x0
 3560 004f 00       		.byte	0x0
 3561 0050 07       		.uleb128 0x7
 3562 0051 0D       		.uleb128 0xd
 3563 0052 00       		.byte	0x0
 3564 0053 03       		.uleb128 0x3
 3565 0054 08       		.uleb128 0x8
 3566 0055 3A       		.uleb128 0x3a
 3567 0056 0B       		.uleb128 0xb
 3568 0057 3B       		.uleb128 0x3b
 3569 0058 0B       		.uleb128 0xb
 3570 0059 49       		.uleb128 0x49
 3571 005a 13       		.uleb128 0x13
 3572 005b 38       		.uleb128 0x38
 3573 005c 0A       		.uleb128 0xa
 3574 005d 00       		.byte	0x0
 3575 005e 00       		.byte	0x0
 3576 005f 08       		.uleb128 0x8
 3577 0060 0D       		.uleb128 0xd
 3578 0061 00       		.byte	0x0
 3579 0062 03       		.uleb128 0x3
 3580 0063 0E       		.uleb128 0xe
 3581 0064 3A       		.uleb128 0x3a
 3582 0065 0B       		.uleb128 0xb
 3583 0066 3B       		.uleb128 0x3b
 3584 0067 0B       		.uleb128 0xb
 3585 0068 49       		.uleb128 0x49
 3586 0069 13       		.uleb128 0x13
 3587 006a 38       		.uleb128 0x38
 3588 006b 0A       		.uleb128 0xa
 3589 006c 00       		.byte	0x0
 3590 006d 00       		.byte	0x0
 3591 006e 09       		.uleb128 0x9
 3592 006f 0F       		.uleb128 0xf
 3593 0070 00       		.byte	0x0
 3594 0071 0B       		.uleb128 0xb
 3595 0072 0B       		.uleb128 0xb
 3596 0073 49       		.uleb128 0x49
 3597 0074 13       		.uleb128 0x13
 3598 0075 00       		.byte	0x0
 3599 0076 00       		.byte	0x0
 3600 0077 0A       		.uleb128 0xa
 3601 0078 2E       		.uleb128 0x2e
 3602 0079 01       		.byte	0x1
 3603 007a 3F       		.uleb128 0x3f
 3604 007b 0C       		.uleb128 0xc
 3605 007c 03       		.uleb128 0x3
 3606 007d 0E       		.uleb128 0xe
 3607 007e 3A       		.uleb128 0x3a
 3608 007f 0B       		.uleb128 0xb
 3609 0080 3B       		.uleb128 0x3b
 3610 0081 0B       		.uleb128 0xb
 3611 0082 27       		.uleb128 0x27
 3612 0083 0C       		.uleb128 0xc
 3613 0084 49       		.uleb128 0x49
ARM GAS  C:\Users\Martin\AppData\Local\Temp\ccuhJpPE.s 			page 75


 3614 0085 13       		.uleb128 0x13
 3615 0086 11       		.uleb128 0x11
 3616 0087 01       		.uleb128 0x1
 3617 0088 12       		.uleb128 0x12
 3618 0089 01       		.uleb128 0x1
 3619 008a 40       		.uleb128 0x40
 3620 008b 06       		.uleb128 0x6
 3621 008c 01       		.uleb128 0x1
 3622 008d 13       		.uleb128 0x13
 3623 008e 00       		.byte	0x0
 3624 008f 00       		.byte	0x0
 3625 0090 0B       		.uleb128 0xb
 3626 0091 34       		.uleb128 0x34
 3627 0092 00       		.byte	0x0
 3628 0093 03       		.uleb128 0x3
 3629 0094 0E       		.uleb128 0xe
 3630 0095 3A       		.uleb128 0x3a
 3631 0096 0B       		.uleb128 0xb
 3632 0097 3B       		.uleb128 0x3b
 3633 0098 0B       		.uleb128 0xb
 3634 0099 49       		.uleb128 0x49
 3635 009a 13       		.uleb128 0x13
 3636 009b 02       		.uleb128 0x2
 3637 009c 0A       		.uleb128 0xa
 3638 009d 00       		.byte	0x0
 3639 009e 00       		.byte	0x0
 3640 009f 0C       		.uleb128 0xc
 3641 00a0 05       		.uleb128 0x5
 3642 00a1 00       		.byte	0x0
 3643 00a2 03       		.uleb128 0x3
 3644 00a3 0E       		.uleb128 0xe
 3645 00a4 3A       		.uleb128 0x3a
 3646 00a5 0B       		.uleb128 0xb
 3647 00a6 3B       		.uleb128 0x3b
 3648 00a7 0B       		.uleb128 0xb
 3649 00a8 49       		.uleb128 0x49
 3650 00a9 13       		.uleb128 0x13
 3651 00aa 02       		.uleb128 0x2
 3652 00ab 0A       		.uleb128 0xa
 3653 00ac 00       		.byte	0x0
 3654 00ad 00       		.byte	0x0
 3655 00ae 0D       		.uleb128 0xd
 3656 00af 2E       		.uleb128 0x2e
 3657 00b0 01       		.byte	0x1
 3658 00b1 3F       		.uleb128 0x3f
 3659 00b2 0C       		.uleb128 0xc
 3660 00b3 03       		.uleb128 0x3
 3661 00b4 0E       		.uleb128 0xe
 3662 00b5 3A       		.uleb128 0x3a
 3663 00b6 0B       		.uleb128 0xb
 3664 00b7 3B       		.uleb128 0x3b
 3665 00b8 05       		.uleb128 0x5
 3666 00b9 27       		.uleb128 0x27
 3667 00ba 0C       		.uleb128 0xc
 3668 00bb 49       		.uleb128 0x49
 3669 00bc 13       		.uleb128 0x13
 3670 00bd 11       		.uleb128 0x11
ARM GAS  C:\Users\Martin\AppData\Local\Temp\ccuhJpPE.s 			page 76


 3671 00be 01       		.uleb128 0x1
 3672 00bf 12       		.uleb128 0x12
 3673 00c0 01       		.uleb128 0x1
 3674 00c1 40       		.uleb128 0x40
 3675 00c2 06       		.uleb128 0x6
 3676 00c3 01       		.uleb128 0x1
 3677 00c4 13       		.uleb128 0x13
 3678 00c5 00       		.byte	0x0
 3679 00c6 00       		.byte	0x0
 3680 00c7 0E       		.uleb128 0xe
 3681 00c8 05       		.uleb128 0x5
 3682 00c9 00       		.byte	0x0
 3683 00ca 03       		.uleb128 0x3
 3684 00cb 0E       		.uleb128 0xe
 3685 00cc 3A       		.uleb128 0x3a
 3686 00cd 0B       		.uleb128 0xb
 3687 00ce 3B       		.uleb128 0x3b
 3688 00cf 05       		.uleb128 0x5
 3689 00d0 49       		.uleb128 0x49
 3690 00d1 13       		.uleb128 0x13
 3691 00d2 02       		.uleb128 0x2
 3692 00d3 0A       		.uleb128 0xa
 3693 00d4 00       		.byte	0x0
 3694 00d5 00       		.byte	0x0
 3695 00d6 0F       		.uleb128 0xf
 3696 00d7 05       		.uleb128 0x5
 3697 00d8 00       		.byte	0x0
 3698 00d9 03       		.uleb128 0x3
 3699 00da 08       		.uleb128 0x8
 3700 00db 3A       		.uleb128 0x3a
 3701 00dc 0B       		.uleb128 0xb
 3702 00dd 3B       		.uleb128 0x3b
 3703 00de 05       		.uleb128 0x5
 3704 00df 49       		.uleb128 0x49
 3705 00e0 13       		.uleb128 0x13
 3706 00e1 02       		.uleb128 0x2
 3707 00e2 0A       		.uleb128 0xa
 3708 00e3 00       		.byte	0x0
 3709 00e4 00       		.byte	0x0
 3710 00e5 10       		.uleb128 0x10
 3711 00e6 34       		.uleb128 0x34
 3712 00e7 00       		.byte	0x0
 3713 00e8 03       		.uleb128 0x3
 3714 00e9 0E       		.uleb128 0xe
 3715 00ea 3A       		.uleb128 0x3a
 3716 00eb 0B       		.uleb128 0xb
 3717 00ec 3B       		.uleb128 0x3b
 3718 00ed 05       		.uleb128 0x5
 3719 00ee 49       		.uleb128 0x49
 3720 00ef 13       		.uleb128 0x13
 3721 00f0 02       		.uleb128 0x2
 3722 00f1 0A       		.uleb128 0xa
 3723 00f2 00       		.byte	0x0
 3724 00f3 00       		.byte	0x0
 3725 00f4 11       		.uleb128 0x11
 3726 00f5 34       		.uleb128 0x34
 3727 00f6 00       		.byte	0x0
ARM GAS  C:\Users\Martin\AppData\Local\Temp\ccuhJpPE.s 			page 77


 3728 00f7 03       		.uleb128 0x3
 3729 00f8 08       		.uleb128 0x8
 3730 00f9 3A       		.uleb128 0x3a
 3731 00fa 0B       		.uleb128 0xb
 3732 00fb 3B       		.uleb128 0x3b
 3733 00fc 05       		.uleb128 0x5
 3734 00fd 49       		.uleb128 0x49
 3735 00fe 13       		.uleb128 0x13
 3736 00ff 02       		.uleb128 0x2
 3737 0100 0A       		.uleb128 0xa
 3738 0101 00       		.byte	0x0
 3739 0102 00       		.byte	0x0
 3740 0103 12       		.uleb128 0x12
 3741 0104 2E       		.uleb128 0x2e
 3742 0105 01       		.byte	0x1
 3743 0106 03       		.uleb128 0x3
 3744 0107 0E       		.uleb128 0xe
 3745 0108 3A       		.uleb128 0x3a
 3746 0109 0B       		.uleb128 0xb
 3747 010a 3B       		.uleb128 0x3b
 3748 010b 05       		.uleb128 0x5
 3749 010c 27       		.uleb128 0x27
 3750 010d 0C       		.uleb128 0xc
 3751 010e 49       		.uleb128 0x49
 3752 010f 13       		.uleb128 0x13
 3753 0110 11       		.uleb128 0x11
 3754 0111 01       		.uleb128 0x1
 3755 0112 12       		.uleb128 0x12
 3756 0113 01       		.uleb128 0x1
 3757 0114 40       		.uleb128 0x40
 3758 0115 06       		.uleb128 0x6
 3759 0116 01       		.uleb128 0x1
 3760 0117 13       		.uleb128 0x13
 3761 0118 00       		.byte	0x0
 3762 0119 00       		.byte	0x0
 3763 011a 13       		.uleb128 0x13
 3764 011b 01       		.uleb128 0x1
 3765 011c 01       		.byte	0x1
 3766 011d 49       		.uleb128 0x49
 3767 011e 13       		.uleb128 0x13
 3768 011f 01       		.uleb128 0x1
 3769 0120 13       		.uleb128 0x13
 3770 0121 00       		.byte	0x0
 3771 0122 00       		.byte	0x0
 3772 0123 14       		.uleb128 0x14
 3773 0124 21       		.uleb128 0x21
 3774 0125 00       		.byte	0x0
 3775 0126 49       		.uleb128 0x49
 3776 0127 13       		.uleb128 0x13
 3777 0128 2F       		.uleb128 0x2f
 3778 0129 0B       		.uleb128 0xb
 3779 012a 00       		.byte	0x0
 3780 012b 00       		.byte	0x0
 3781 012c 15       		.uleb128 0x15
 3782 012d 34       		.uleb128 0x34
 3783 012e 00       		.byte	0x0
 3784 012f 03       		.uleb128 0x3
ARM GAS  C:\Users\Martin\AppData\Local\Temp\ccuhJpPE.s 			page 78


 3785 0130 0E       		.uleb128 0xe
 3786 0131 3A       		.uleb128 0x3a
 3787 0132 0B       		.uleb128 0xb
 3788 0133 3B       		.uleb128 0x3b
 3789 0134 05       		.uleb128 0x5
 3790 0135 49       		.uleb128 0x49
 3791 0136 13       		.uleb128 0x13
 3792 0137 3F       		.uleb128 0x3f
 3793 0138 0C       		.uleb128 0xc
 3794 0139 3C       		.uleb128 0x3c
 3795 013a 0C       		.uleb128 0xc
 3796 013b 00       		.byte	0x0
 3797 013c 00       		.byte	0x0
 3798 013d 16       		.uleb128 0x16
 3799 013e 35       		.uleb128 0x35
 3800 013f 00       		.byte	0x0
 3801 0140 49       		.uleb128 0x49
 3802 0141 13       		.uleb128 0x13
 3803 0142 00       		.byte	0x0
 3804 0143 00       		.byte	0x0
 3805 0144 00       		.byte	0x0
 3806              		.section	.debug_pubnames,"",%progbits
 3807 0000 26010000 		.4byte	0x126
 3808 0004 0200     		.2byte	0x2
 3809 0006 00000000 		.4byte	.Ldebug_info0
 3810 000a 23060000 		.4byte	0x623
 3811 000e 32010000 		.4byte	0x132
 3812 0012 5242465F 		.ascii	"RBF_ucInit\000"
 3812      7563496E 
 3812      697400
 3813 001d 61010000 		.4byte	0x161
 3814 0021 5242465F 		.ascii	"RBF_ucClearBuffer\000"
 3814      7563436C 
 3814      65617242 
 3814      75666665 
 3814      7200
 3815 0033 9B010000 		.4byte	0x19b
 3816 0037 5242465F 		.ascii	"RBF_ucRegisterBuffer\000"
 3816      75635265 
 3816      67697374 
 3816      65724275 
 3816      66666572 
 3817 004c E3010000 		.4byte	0x1e3
 3818 0050 5242465F 		.ascii	"RBF_ucUnregisterBuffer\000"
 3818      7563556E 
 3818      72656769 
 3818      73746572 
 3818      42756666 
 3819 0067 1D020000 		.4byte	0x21d
 3820 006b 5242465F 		.ascii	"RBF_ucByteIn\000"
 3820      75634279 
 3820      7465496E 
 3820      00
 3821 0078 65020000 		.4byte	0x265
 3822 007c 5242465F 		.ascii	"RBF_ucHeadByteOut\000"
 3822      75634865 
 3822      61644279 
ARM GAS  C:\Users\Martin\AppData\Local\Temp\ccuhJpPE.s 			page 79


 3822      74654F75 
 3822      7400
 3823 008e AD020000 		.4byte	0x2ad
 3824 0092 5242465F 		.ascii	"RBF_ucTailByteOut\000"
 3824      75635461 
 3824      696C4279 
 3824      74654F75 
 3824      7400
 3825 00a4 F5020000 		.4byte	0x2f5
 3826 00a8 5242465F 		.ascii	"RBF_ucReadOnlyFromTail\000"
 3826      75635265 
 3826      61644F6E 
 3826      6C794672 
 3826      6F6D5461 
 3827 00bf 3D030000 		.4byte	0x33d
 3828 00c3 5242465F 		.ascii	"RBF_ucMsgIn\000"
 3828      75634D73 
 3828      67496E00 
 3829 00cf C3030000 		.4byte	0x3c3
 3830 00d3 5242465F 		.ascii	"RBF_ucHeadMsgOut\000"
 3830      75634865 
 3830      61644D73 
 3830      674F7574 
 3830      00
 3831 00e4 3A040000 		.4byte	0x43a
 3832 00e8 5242465F 		.ascii	"RBF_ucTailMsgOut\000"
 3832      75635461 
 3832      696C4D73 
 3832      674F7574 
 3832      00
 3833 00f9 B1040000 		.4byte	0x4b1
 3834 00fd 5242465F 		.ascii	"RBF_ucGetMsgCount\000"
 3834      75634765 
 3834      744D7367 
 3834      436F756E 
 3834      7400
 3835 010f DF040000 		.4byte	0x4df
 3836 0113 5242465F 		.ascii	"RBF_ucGetByteCount\000"
 3836      75634765 
 3836      74427974 
 3836      65436F75 
 3836      6E7400
 3837 0126 00000000 		.4byte	0x0
 3838              		.section	.debug_aranges,"",%progbits
 3839 0000 94000000 		.4byte	0x94
 3840 0004 0200     		.2byte	0x2
 3841 0006 00000000 		.4byte	.Ldebug_info0
 3842 000a 04       		.byte	0x4
 3843 000b 00       		.byte	0x0
 3844 000c 0000     		.2byte	0x0
 3845 000e 0000     		.2byte	0x0
 3846 0010 00000000 		.4byte	.LFB29
 3847 0014 20000000 		.4byte	.LFE29-.LFB29
 3848 0018 00000000 		.4byte	.LFB30
 3849 001c 36010000 		.4byte	.LFE30-.LFB30
 3850 0020 00000000 		.4byte	.LFB31
 3851 0024 8C010000 		.4byte	.LFE31-.LFB31
ARM GAS  C:\Users\Martin\AppData\Local\Temp\ccuhJpPE.s 			page 80


 3852 0028 00000000 		.4byte	.LFB32
 3853 002c 5A010000 		.4byte	.LFE32-.LFB32
 3854 0030 00000000 		.4byte	.LFB33
 3855 0034 08010000 		.4byte	.LFE33-.LFB33
 3856 0038 00000000 		.4byte	.LFB34
 3857 003c 9C010000 		.4byte	.LFE34-.LFB34
 3858 0040 00000000 		.4byte	.LFB35
 3859 0044 9C010000 		.4byte	.LFE35-.LFB35
 3860 0048 00000000 		.4byte	.LFB36
 3861 004c 42010000 		.4byte	.LFE36-.LFB36
 3862 0050 00000000 		.4byte	.LFB37
 3863 0054 6A010000 		.4byte	.LFE37-.LFB37
 3864 0058 00000000 		.4byte	.LFB38
 3865 005c 2A010000 		.4byte	.LFE38-.LFB38
 3866 0060 00000000 		.4byte	.LFB39
 3867 0064 1C010000 		.4byte	.LFE39-.LFB39
 3868 0068 00000000 		.4byte	.LFB40
 3869 006c 36000000 		.4byte	.LFE40-.LFB40
 3870 0070 00000000 		.4byte	.LFB41
 3871 0074 7E010000 		.4byte	.LFE41-.LFB41
 3872 0078 00000000 		.4byte	.LFB42
 3873 007c DE000000 		.4byte	.LFE42-.LFB42
 3874 0080 00000000 		.4byte	.LFB43
 3875 0084 10010000 		.4byte	.LFE43-.LFB43
 3876 0088 00000000 		.4byte	.LFB44
 3877 008c D6000000 		.4byte	.LFE44-.LFB44
 3878 0090 00000000 		.4byte	0x0
 3879 0094 00000000 		.4byte	0x0
 3880              		.section	.debug_ranges,"",%progbits
 3881              	.Ldebug_ranges0:
 3882 0000 00000000 		.4byte	.Ltext0
 3883 0004 00000000 		.4byte	.Letext0
 3884 0008 00000000 		.4byte	.LFB29
 3885 000c 20000000 		.4byte	.LFE29
 3886 0010 00000000 		.4byte	.LFB30
 3887 0014 36010000 		.4byte	.LFE30
 3888 0018 00000000 		.4byte	.LFB31
 3889 001c 8C010000 		.4byte	.LFE31
 3890 0020 00000000 		.4byte	.LFB32
 3891 0024 5A010000 		.4byte	.LFE32
 3892 0028 00000000 		.4byte	.LFB33
 3893 002c 08010000 		.4byte	.LFE33
 3894 0030 00000000 		.4byte	.LFB34
 3895 0034 9C010000 		.4byte	.LFE34
 3896 0038 00000000 		.4byte	.LFB35
 3897 003c 9C010000 		.4byte	.LFE35
 3898 0040 00000000 		.4byte	.LFB36
 3899 0044 42010000 		.4byte	.LFE36
 3900 0048 00000000 		.4byte	.LFB37
 3901 004c 6A010000 		.4byte	.LFE37
 3902 0050 00000000 		.4byte	.LFB38
 3903 0054 2A010000 		.4byte	.LFE38
 3904 0058 00000000 		.4byte	.LFB39
 3905 005c 1C010000 		.4byte	.LFE39
 3906 0060 00000000 		.4byte	.LFB40
 3907 0064 36000000 		.4byte	.LFE40
 3908 0068 00000000 		.4byte	.LFB41
ARM GAS  C:\Users\Martin\AppData\Local\Temp\ccuhJpPE.s 			page 81


 3909 006c 7E010000 		.4byte	.LFE41
 3910 0070 00000000 		.4byte	.LFB42
 3911 0074 DE000000 		.4byte	.LFE42
 3912 0078 00000000 		.4byte	.LFB43
 3913 007c 10010000 		.4byte	.LFE43
 3914 0080 00000000 		.4byte	.LFB44
 3915 0084 D6000000 		.4byte	.LFE44
 3916 0088 00000000 		.4byte	0x0
 3917 008c 00000000 		.4byte	0x0
 3918              		.section	.debug_str,"MS",%progbits,1
 3919              	.LASF37:
 3920 0000 75634279 		.ascii	"ucByte\000"
 3920      746500
 3921              	.LASF45:
 3922 0007 5242465F 		.ascii	"RBF_ucGetByteCount\000"
 3922      75634765 
 3922      74427974 
 3922      65436F75 
 3922      6E7400
 3923              	.LASF36:
 3924 001a 75634E75 		.ascii	"ucNumByte\000"
 3924      6D427974 
 3924      6500
 3925              	.LASF41:
 3926 0024 5242465F 		.ascii	"RBF_ucHeadMsgOut\000"
 3926      75634865 
 3926      61644D73 
 3926      674F7574 
 3926      00
 3927              	.LASF42:
 3928 0035 74617267 		.ascii	"target\000"
 3928      657400
 3929              	.LASF51:
 3930 003c 496E6354 		.ascii	"IncTail\000"
 3930      61696C00 
 3931              	.LASF2:
 3932 0044 73686F72 		.ascii	"short int\000"
 3932      7420696E 
 3932      7400
 3933              	.LASF33:
 3934 004e 5242465F 		.ascii	"RBF_ucHeadByteOut\000"
 3934      75634865 
 3934      61644279 
 3934      74654F75 
 3934      7400
 3935              	.LASF35:
 3936 0060 5242465F 		.ascii	"RBF_ucReadOnlyFromTail\000"
 3936      75635265 
 3936      61644F6E 
 3936      6C794672 
 3936      6F6D5461 
 3937              	.LASF29:
 3938 0077 75695369 		.ascii	"uiSize\000"
 3938      7A6500
 3939              	.LASF23:
 3940 007e 5242465F 		.ascii	"RBF_ucClearBuffer\000"
 3940      7563436C 
ARM GAS  C:\Users\Martin\AppData\Local\Temp\ccuhJpPE.s 			page 82


 3940      65617242 
 3940      75666665 
 3940      7200
 3941              	.LASF34:
 3942 0090 5242465F 		.ascii	"RBF_ucTailByteOut\000"
 3942      75635461 
 3942      696C4279 
 3942      74654F75 
 3942      7400
 3943              	.LASF18:
 3944 00a2 68656164 		.ascii	"head\000"
 3944      00
 3945              	.LASF16:
 3946 00a7 61646472 		.ascii	"address\000"
 3946      65737300 
 3947              	.LASF30:
 3948 00af 5242465F 		.ascii	"RBF_ucUnregisterBuffer\000"
 3948      7563556E 
 3948      72656769 
 3948      73746572 
 3948      42756666 
 3949              	.LASF3:
 3950 00c6 75696E74 		.ascii	"uint8_t\000"
 3950      385F7400 
 3951              	.LASF53:
 3952 00ce 52696E67 		.ascii	"RingBuffer\000"
 3952      42756666 
 3952      657200
 3953              	.LASF11:
 3954 00d9 75696E74 		.ascii	"uint8\000"
 3954      3800
 3955              	.LASF27:
 3956 00df 7563496E 		.ascii	"ucIndex\000"
 3956      64657800 
 3957              	.LASF26:
 3958 00e7 5242465F 		.ascii	"RBF_ucRegisterBuffer\000"
 3958      75635265 
 3958      67697374 
 3958      65724275 
 3958      66666572 
 3959              	.LASF12:
 3960 00fc 666C6F61 		.ascii	"float\000"
 3960      7400
 3961              	.LASF39:
 3962 0102 74656D70 		.ascii	"temp\000"
 3962      00
 3963              	.LASF8:
 3964 0107 6C6F6E67 		.ascii	"long long int\000"
 3964      206C6F6E 
 3964      6720696E 
 3964      7400
 3965              	.LASF49:
 3966 0115 496E6348 		.ascii	"IncHead\000"
 3966      65616400 
 3967              	.LASF15:
 3968 011d 53544154 		.ascii	"STATUS\000"
 3968      555300
ARM GAS  C:\Users\Martin\AppData\Local\Temp\ccuhJpPE.s 			page 83


 3969              	.LASF6:
 3970 0124 6C6F6E67 		.ascii	"long int\000"
 3970      20696E74 
 3970      00
 3971              	.LASF46:
 3972 012d 62797465 		.ascii	"bytecount\000"
 3972      636F756E 
 3972      7400
 3973              	.LASF24:
 3974 0137 73746573 		.ascii	"stest\000"
 3974      7400
 3975              	.LASF21:
 3976 013d 52494E47 		.ascii	"RING_BUFFER\000"
 3976      5F425546 
 3976      46455200 
 3977              	.LASF32:
 3978 0149 62797465 		.ascii	"byte\000"
 3978      00
 3979              	.LASF31:
 3980 014e 5242465F 		.ascii	"RBF_ucByteIn\000"
 3980      75634279 
 3980      7465496E 
 3980      00
 3981              	.LASF19:
 3982 015b 7461696C 		.ascii	"tail\000"
 3982      00
 3983              	.LASF1:
 3984 0160 756E7369 		.ascii	"unsigned char\000"
 3984      676E6564 
 3984      20636861 
 3984      7200
 3985              	.LASF57:
 3986 016e 5F72696E 		.ascii	"_ring_buffer\000"
 3986      675F6275 
 3986      66666572 
 3986      00
 3987              	.LASF38:
 3988 017b 5242465F 		.ascii	"RBF_ucMsgIn\000"
 3988      75634D73 
 3988      67496E00 
 3989              	.LASF0:
 3990 0187 7369676E 		.ascii	"signed char\000"
 3990      65642063 
 3990      68617200 
 3991              	.LASF9:
 3992 0193 6C6F6E67 		.ascii	"long long unsigned int\000"
 3992      206C6F6E 
 3992      6720756E 
 3992      7369676E 
 3992      65642069 
 3993              	.LASF10:
 3994 01aa 756E7369 		.ascii	"unsigned int\000"
 3994      676E6564 
 3994      20696E74 
 3994      00
 3995              	.LASF4:
 3996 01b7 75696E74 		.ascii	"uint16_t\000"
ARM GAS  C:\Users\Martin\AppData\Local\Temp\ccuhJpPE.s 			page 84


 3996      31365F74 
 3996      00
 3997              	.LASF56:
 3998 01c0 583A5C47 		.ascii	"X:\\GitHub_roboticscode\\roboticscode\\psoc\\psoc_c"
 3998      69744875 
 3998      625F726F 
 3998      626F7469 
 3998      6373636F 
 3999 01ef 72656174 		.ascii	"reator_2.2\\DrivePlatform3\\DrivePlatform3\\DrivePl"
 3999      6F725F32 
 3999      2E325C44 
 3999      72697665 
 3999      506C6174 
 4000 021f 6174666F 		.ascii	"atform3.cydsn\000"
 4000      726D332E 
 4000      63796473 
 4000      6E00
 4001              	.LASF5:
 4002 022d 73686F72 		.ascii	"short unsigned int\000"
 4002      7420756E 
 4002      7369676E 
 4002      65642069 
 4002      6E7400
 4003              	.LASF25:
 4004 0240 73746174 		.ascii	"status\000"
 4004      757300
 4005              	.LASF28:
 4006 0247 70756341 		.ascii	"pucAddr\000"
 4006      64647200 
 4007              	.LASF14:
 4008 024f 63686172 		.ascii	"char\000"
 4008      00
 4009              	.LASF48:
 4010 0254 74656D70 		.ascii	"tempHead\000"
 4010      48656164 
 4010      00
 4011              	.LASF55:
 4012 025d 2E5C7269 		.ascii	".\\ring_buffer.c\000"
 4012      6E675F62 
 4012      75666665 
 4012      722E6300 
 4013              	.LASF50:
 4014 026d 44656348 		.ascii	"DecHead\000"
 4014      65616400 
 4015              	.LASF22:
 4016 0275 5242465F 		.ascii	"RBF_ucInit\000"
 4016      7563496E 
 4016      697400
 4017              	.LASF7:
 4018 0280 6C6F6E67 		.ascii	"long unsigned int\000"
 4018      20756E73 
 4018      69676E65 
 4018      6420696E 
 4018      7400
 4019              	.LASF52:
 4020 0292 74656D70 		.ascii	"tempTail\000"
 4020      5461696C 
ARM GAS  C:\Users\Martin\AppData\Local\Temp\ccuhJpPE.s 			page 85


 4020      00
 4021              	.LASF13:
 4022 029b 646F7562 		.ascii	"double\000"
 4022      6C6500
 4023              	.LASF40:
 4024 02a2 75694279 		.ascii	"uiByteCnt\000"
 4024      7465436E 
 4024      7400
 4025              	.LASF17:
 4026 02ac 73697A65 		.ascii	"size\000"
 4026      00
 4027              	.LASF43:
 4028 02b1 5242465F 		.ascii	"RBF_ucTailMsgOut\000"
 4028      75635461 
 4028      696C4D73 
 4028      674F7574 
 4028      00
 4029              	.LASF44:
 4030 02c2 5242465F 		.ascii	"RBF_ucGetMsgCount\000"
 4030      75634765 
 4030      744D7367 
 4030      436F756E 
 4030      7400
 4031              	.LASF20:
 4032 02d4 6D736763 		.ascii	"msgcount\000"
 4032      6F756E74 
 4032      00
 4033              	.LASF54:
 4034 02dd 474E5520 		.ascii	"GNU C 4.4.1\000"
 4034      4320342E 
 4034      342E3100 
 4035              	.LASF58:
 4036 02e9 49544D5F 		.ascii	"ITM_RxBuffer\000"
 4036      52784275 
 4036      66666572 
 4036      00
 4037              	.LASF47:
 4038 02f6 75634964 		.ascii	"ucIdx\000"
 4038      7800
 4039              		.ident	"GCC: (Sourcery G++ Lite 2010q1-188) 4.4.1"
