ARM GAS  C:\Users\Martin\AppData\Local\Temp\ccx4hZ4j.s 			page 1


   1              		.syntax unified
   2              		.cpu cortex-m3
   3              		.fpu softvfp
   4              		.eabi_attribute 20, 1
   5              		.eabi_attribute 21, 1
   6              		.eabi_attribute 23, 3
   7              		.eabi_attribute 24, 1
   8              		.eabi_attribute 25, 1
   9              		.eabi_attribute 26, 1
  10              		.eabi_attribute 30, 6
  11              		.eabi_attribute 18, 4
  12              		.thumb
  13              		.file	"scheduler.c"
  20 0000 B3010000 		.text
  20      02001E01 
  20      00000201 
  20      FB0E0D00 
  20      01010101 
  21              	.Ltext0:
  22              		.cfi_sections	.debug_frame
  23              		.bss
  24              		.align	2
  25              	SCH_TaskIndex:
  26 0000 00000000 		.space	4
  27              		.data
  28              		.align	2
  29              		.type	SCH_Task, %object
  30              		.size	SCH_Task, 224
  31              	SCH_Task:
  32 0000 45525200 		.ascii	"ERR\000"
  33 0004 00000000 		.space	4
  34 0008 02       		.byte	2
  35 0009 00       		.byte	0
  36 000a 0000     		.space	2
  37 000c 00000000 		.word	ERR_Init
  38 0010 00000000 		.word	ERR_HandleTask
  39 0014 00       		.byte	0
  40 0015 00000000 		.space	7
  40      000000
  41 001c 52424600 		.ascii	"RBF\000"
  42 0020 00000000 		.space	4
  43 0024 02       		.byte	2
  44 0025 01       		.byte	1
  45 0026 0000     		.space	2
  46 0028 00000000 		.word	RBF_ucInit
  47 002c 00000000 		.word	0
  48 0030 00       		.byte	0
  49 0031 00000000 		.space	7
  49      000000
  50 0038 48414C00 		.ascii	"HAL\000"
  51 003c 00000000 		.space	4
ARM GAS  C:\Users\Martin\AppData\Local\Temp\ccx4hZ4j.s 			page 2


  52 0040 02       		.byte	2
  53 0041 01       		.byte	1
  54 0042 0000     		.space	2
  55 0044 00000000 		.word	HAL_Init
  56 0048 00000000 		.word	0
  57 004c 00       		.byte	0
  58 004d 00000000 		.space	7
  58      000000
  59 0054 544D5200 		.ascii	"TMR\000"
  60 0058 00000000 		.space	4
  61 005c 02       		.byte	2
  62 005d 01       		.byte	1
  63 005e 0000     		.space	2
  64 0060 00000000 		.word	TMR_Init
  65 0064 00000000 		.word	TMR_HandleTask
  66 0068 00       		.byte	0
  67 0069 00000000 		.space	7
  67      000000
  68 0070 42504C00 		.ascii	"BPL\000"
  69 0074 00000000 		.space	4
  70 0078 02       		.byte	2
  71 0079 02       		.byte	2
  72 007a 0000     		.space	2
  73 007c 00000000 		.word	BPL_Init
  74 0080 00000000 		.word	BPL_HandleTask
  75 0084 48414C00 		.ascii	"HAL\000"
  76 0088 00000000 		.space	4
  77 008c 42414C00 		.ascii	"BAL\000"
  78 0090 00000000 		.space	4
  79 0094 02       		.byte	2
  80 0095 02       		.byte	2
  81 0096 0000     		.space	2
  82 0098 00000000 		.word	BAL_Init
  83 009c 00000000 		.word	BAL_HandleTask
  84 00a0 42504C00 		.ascii	"BPL\000"
  85 00a4 00000000 		.space	4
  86 00a8 4D4F5600 		.ascii	"MOV\000"
  87 00ac 00000000 		.space	4
  88 00b0 02       		.byte	2
  89 00b1 02       		.byte	2
  90 00b2 0000     		.space	2
  91 00b4 00000000 		.word	MOV_Init
  92 00b8 00000000 		.word	MOV_HandleTask
  93 00bc 4D4F5600 		.ascii	"MOV\000"
  94 00c0 00000000 		.space	4
  95 00c4 54535400 		.ascii	"TST\000"
  96 00c8 00000000 		.space	4
  97 00cc 02       		.byte	2
  98 00cd 02       		.byte	2
  99 00ce 0000     		.space	2
 100 00d0 00000000 		.word	TST_Init
 101 00d4 00000000 		.word	TST_HandleTask
 102 00d8 544D5200 		.ascii	"TMR\000"
 103 00dc 00000000 		.space	4
 104              		.section	.text.SCH_GetTaskIndex,"ax",%progbits
 105              		.align	2
 106              		.thumb
ARM GAS  C:\Users\Martin\AppData\Local\Temp\ccx4hZ4j.s 			page 3


 107              		.thumb_func
 108              		.type	SCH_GetTaskIndex, %function
 109              	SCH_GetTaskIndex:
 110              	.LFB29:
 111              		.file 1 ".\\scheduler.c"
   1:.\scheduler.c **** /* Copyright (C) <2014> <Martin Schalk>
   2:.\scheduler.c ****  * All rights reserved.
   3:.\scheduler.c ****  *
   4:.\scheduler.c ****  * This software may be modified and distributed under the terms
   5:.\scheduler.c ****  * of the BSD license.  See the LICENSE file for details.
   6:.\scheduler.c ****  */
   7:.\scheduler.c **** 
   8:.\scheduler.c **** #include <project.h>
   9:.\scheduler.c **** #include "scheduler.h"
  10:.\scheduler.c **** 
  11:.\scheduler.c **** #include "hal.h"
  12:.\scheduler.c **** #include "tmr.h"
  13:.\scheduler.c **** #include "bpl.h"
  14:.\scheduler.c **** #include "bal.h"
  15:.\scheduler.c **** #include "error.h"
  16:.\scheduler.c **** #include "ring_buffer.h"
  17:.\scheduler.c **** #include "test.h"
  18:.\scheduler.c **** #include "move.h"
  19:.\scheduler.c **** 
  20:.\scheduler.c **** static int          SCH_TaskIndex = 0;
  21:.\scheduler.c **** static SCH_TASK 	SCH_Task[] =
  22:.\scheduler.c **** {
  23:.\scheduler.c **** /*   NAME   STATUS          PRIO    INIT        HANDLER             DEPENDENCY */
  24:.\scheduler.c **** /*   ------------------------------------------------------------------------- */
  25:.\scheduler.c **** #ifdef ERROR_MODULE_ENABLE
  26:.\scheduler.c ****     {"ERR", SCH_TASK_NEW,   0,      ERR_Init,   ERR_HandleTask,     {DEP_NONE}},
  27:.\scheduler.c **** #endif
  28:.\scheduler.c ****     {"RBF", SCH_TASK_NEW,   1,      RBF_ucInit, NULL,               {DEP_NONE}},
  29:.\scheduler.c ****     {"HAL", SCH_TASK_NEW,   1,      HAL_Init,   NULL,               {DEP_NONE}},
  30:.\scheduler.c ****     {"TMR", SCH_TASK_NEW,   1,      TMR_Init,   TMR_HandleTask,     {DEP_NONE}},
  31:.\scheduler.c ****     {"BPL", SCH_TASK_NEW,   2,      BPL_Init,   BPL_HandleTask,     "HAL"},
  32:.\scheduler.c ****     {"BAL", SCH_TASK_NEW,   2,      BAL_Init,   BAL_HandleTask,     "BPL"},
  33:.\scheduler.c ****     {"MOV", SCH_TASK_NEW,   2,      MOV_Init,   MOV_HandleTask,     "MOV"},
  34:.\scheduler.c ****     {"TST", SCH_TASK_NEW,   2,      TST_Init,   TST_HandleTask,     "TMR"},
  35:.\scheduler.c **** };
  36:.\scheduler.c **** /* currently only one dependency possible */
  37:.\scheduler.c **** 
  38:.\scheduler.c **** 
  39:.\scheduler.c **** /*****************************************************************/
  40:.\scheduler.c **** static uchar SCH_GetTaskIndex(uchar* taskName)
  41:.\scheduler.c **** {
 112              		.loc 1 41 0
 113              		.cfi_startproc
 114              		@ args = 0, pretend = 0, frame = 16
 115              		@ frame_needed = 1, uses_anonymous_args = 0
 116 0000 80B5     		push	{r7, lr}
 117              	.LCFI0:
 118              		.cfi_def_cfa_offset 8
 119 0002 84B0     		sub	sp, sp, #16
 120              	.LCFI1:
 121              		.cfi_def_cfa_offset 24
 122 0004 00AF     		add	r7, sp, #0
ARM GAS  C:\Users\Martin\AppData\Local\Temp\ccx4hZ4j.s 			page 4


 123              		.cfi_offset 14, -4
 124              		.cfi_offset 7, -8
 125              	.LCFI2:
 126              		.cfi_def_cfa_register 7
 127 0006 7860     		str	r0, [r7, #4]
  42:.\scheduler.c ****     int i;
  43:.\scheduler.c ****     uchar idx = (uchar)(-1);
 128              		.loc 1 43 0
 129 0008 4FF0FF33 		mov	r3, #-1
 130 000c FB73     		strb	r3, [r7, #15]
  44:.\scheduler.c ****     
  45:.\scheduler.c ****     for (i=0; i<SIZE_OF_ARRAY(SCH_Task); i++)
 131              		.loc 1 45 0
 132 000e 4FF00003 		mov	r3, #0
 133 0012 BB60     		str	r3, [r7, #8]
 134 0014 1DE0     		b	.L2
 135              	.L4:
  46:.\scheduler.c ****     {
  47:.\scheduler.c ****         if (0 == strcmp((char*)SCH_Task[SCH_TaskIndex].name, (char*)taskName))
 136              		.loc 1 47 0
 137 0016 40F20003 		movw	r3, #:lower16:SCH_TaskIndex
 138 001a C0F20003 		movt	r3, #:upper16:SCH_TaskIndex
 139 001e 1A68     		ldr	r2, [r3, #0]
 140 0020 1346     		mov	r3, r2
 141 0022 4FEAC303 		lsl	r3, r3, #3
 142 0026 C2EB0303 		rsb	r3, r2, r3
 143 002a 4FEA8302 		lsl	r2, r3, #2
 144 002e 40F20003 		movw	r3, #:lower16:SCH_Task
 145 0032 C0F20003 		movt	r3, #:upper16:SCH_Task
 146 0036 1344     		add	r3, r2, r3
 147 0038 1846     		mov	r0, r3
 148 003a 7968     		ldr	r1, [r7, #4]
 149 003c FFF7FEFF 		bl	strcmp
 150 0040 0346     		mov	r3, r0
 151 0042 002B     		cmp	r3, #0
 152 0044 01D1     		bne	.L3
  48:.\scheduler.c ****             idx = i;
 153              		.loc 1 48 0
 154 0046 BB68     		ldr	r3, [r7, #8]
 155 0048 FB73     		strb	r3, [r7, #15]
 156              	.L3:
 157              		.loc 1 45 0
 158 004a BB68     		ldr	r3, [r7, #8]
 159 004c 03F10103 		add	r3, r3, #1
 160 0050 BB60     		str	r3, [r7, #8]
 161              	.L2:
 162 0052 BB68     		ldr	r3, [r7, #8]
 163 0054 072B     		cmp	r3, #7
 164 0056 DED9     		bls	.L4
  49:.\scheduler.c ****     }
  50:.\scheduler.c ****     
  51:.\scheduler.c ****     return idx;
 165              		.loc 1 51 0
 166 0058 FB7B     		ldrb	r3, [r7, #15]	@ zero_extendqisi2
  52:.\scheduler.c **** }
 167              		.loc 1 52 0
 168 005a 1846     		mov	r0, r3
ARM GAS  C:\Users\Martin\AppData\Local\Temp\ccx4hZ4j.s 			page 5


 169 005c 07F11007 		add	r7, r7, #16
 170 0060 BD46     		mov	sp, r7
 171 0062 80BD     		pop	{r7, pc}
 172              		.cfi_endproc
 173              	.LFE29:
 174              		.size	SCH_GetTaskIndex, .-SCH_GetTaskIndex
 175              		.section	.text.SCH_TaskHandler,"ax",%progbits
 176              		.align	2
 177              		.global	SCH_TaskHandler
 178              		.thumb
 179              		.thumb_func
 180              		.type	SCH_TaskHandler, %function
 181              	SCH_TaskHandler:
 182              	.LFB30:
  53:.\scheduler.c **** 
  54:.\scheduler.c **** 
  55:.\scheduler.c **** /*****************************************************************/
  56:.\scheduler.c **** void SCH_TaskHandler(void)
  57:.\scheduler.c **** {
 183              		.loc 1 57 0
 184              		.cfi_startproc
 185              		@ args = 0, pretend = 0, frame = 8
 186              		@ frame_needed = 1, uses_anonymous_args = 0
 187 0000 80B5     		push	{r7, lr}
 188              	.LCFI3:
 189              		.cfi_def_cfa_offset 8
 190 0002 82B0     		sub	sp, sp, #8
 191              	.LCFI4:
 192              		.cfi_def_cfa_offset 16
 193 0004 00AF     		add	r7, sp, #0
 194              		.cfi_offset 14, -4
 195              		.cfi_offset 7, -8
 196              	.LCFI5:
 197              		.cfi_def_cfa_register 7
  58:.\scheduler.c ****     STATUS status;
  59:.\scheduler.c ****     uchar depTaskIndex;
  60:.\scheduler.c ****     BOOL taskInitFlag = FALSE;
 198              		.loc 1 60 0
 199 0006 4FF00003 		mov	r3, #0
 200 000a FB71     		strb	r3, [r7, #7]
  61:.\scheduler.c **** 
  62:.\scheduler.c ****     //priority not handled yet
  63:.\scheduler.c **** 
  64:.\scheduler.c ****     switch(SCH_Task[SCH_TaskIndex].status)
 201              		.loc 1 64 0
 202 000c 40F20003 		movw	r3, #:lower16:SCH_TaskIndex
 203 0010 C0F20003 		movt	r3, #:upper16:SCH_TaskIndex
 204 0014 1968     		ldr	r1, [r3, #0]
 205 0016 40F20002 		movw	r2, #:lower16:SCH_Task
 206 001a C0F20002 		movt	r2, #:upper16:SCH_Task
 207 001e 0B46     		mov	r3, r1
 208 0020 4FEAC303 		lsl	r3, r3, #3
 209 0024 C1EB0303 		rsb	r3, r1, r3
 210 0028 4FEA8303 		lsl	r3, r3, #2
 211 002c 1344     		add	r3, r3, r2
 212 002e 03F10803 		add	r3, r3, #8
 213 0032 1B78     		ldrb	r3, [r3, #0]	@ zero_extendqisi2
ARM GAS  C:\Users\Martin\AppData\Local\Temp\ccx4hZ4j.s 			page 6


 214 0034 A3F10203 		sub	r3, r3, #2
 215 0038 0E2B     		cmp	r3, #14
 216 003a 00F24581 		bhi	.L7
 217 003e 01A2     		adr	r2, .L12
 218 0040 52F823F0 		ldr	pc, [r2, r3, lsl #2]
 219              		.align	2
 220              	.L12:
 221 0044 81000000 		.word	.L8+1
 222 0048 C9020000 		.word	.L7+1
 223 004c DD010000 		.word	.L9+1
 224 0050 C9020000 		.word	.L7+1
 225 0054 C9020000 		.word	.L7+1
 226 0058 C9020000 		.word	.L7+1
 227 005c 0B020000 		.word	.L10+1
 228 0060 C9020000 		.word	.L7+1
 229 0064 C9020000 		.word	.L7+1
 230 0068 C9020000 		.word	.L7+1
 231 006c C9020000 		.word	.L7+1
 232 0070 C9020000 		.word	.L7+1
 233 0074 C9020000 		.word	.L7+1
 234 0078 C9020000 		.word	.L7+1
 235 007c 95020000 		.word	.L11+1
 236              	.L8:
  65:.\scheduler.c ****     {                               
  66:.\scheduler.c ****         case SCH_TASK_NEW:          /* check if current task has a dependency */
  67:.\scheduler.c ****                                     if (DEP_NONE != (SCH_Task[SCH_TaskIndex].dependency)[0])
 237              		.loc 1 67 0
 238 0080 40F20003 		movw	r3, #:lower16:SCH_TaskIndex
 239 0084 C0F20003 		movt	r3, #:upper16:SCH_TaskIndex
 240 0088 1968     		ldr	r1, [r3, #0]
 241 008a 40F20002 		movw	r2, #:lower16:SCH_Task
 242 008e C0F20002 		movt	r2, #:upper16:SCH_Task
 243 0092 0B46     		mov	r3, r1
 244 0094 4FEAC303 		lsl	r3, r3, #3
 245 0098 C1EB0303 		rsb	r3, r1, r3
 246 009c 4FEA8303 		lsl	r3, r3, #2
 247 00a0 1344     		add	r3, r3, r2
 248 00a2 03F11003 		add	r3, r3, #16
 249 00a6 1B79     		ldrb	r3, [r3, #4]	@ zero_extendqisi2
 250 00a8 002B     		cmp	r3, #0
 251 00aa 2FD0     		beq	.L13
  68:.\scheduler.c ****                                     {
  69:.\scheduler.c ****                                         /* get task index of dependent task and check task status *
  70:.\scheduler.c ****                                         depTaskIndex = SCH_GetTaskIndex(SCH_Task[SCH_TaskIndex].dep
 252              		.loc 1 70 0
 253 00ac 40F20003 		movw	r3, #:lower16:SCH_TaskIndex
 254 00b0 C0F20003 		movt	r3, #:upper16:SCH_TaskIndex
 255 00b4 1A68     		ldr	r2, [r3, #0]
 256 00b6 1346     		mov	r3, r2
 257 00b8 4FEAC303 		lsl	r3, r3, #3
 258 00bc C2EB0303 		rsb	r3, r2, r3
 259 00c0 4FEA8303 		lsl	r3, r3, #2
 260 00c4 03F11002 		add	r2, r3, #16
 261 00c8 40F20003 		movw	r3, #:lower16:SCH_Task
 262 00cc C0F20003 		movt	r3, #:upper16:SCH_Task
 263 00d0 1344     		add	r3, r2, r3
 264 00d2 03F10403 		add	r3, r3, #4
ARM GAS  C:\Users\Martin\AppData\Local\Temp\ccx4hZ4j.s 			page 7


 265 00d6 1846     		mov	r0, r3
 266 00d8 FFF7FEFF 		bl	SCH_GetTaskIndex
 267 00dc 0346     		mov	r3, r0
 268 00de BB71     		strb	r3, [r7, #6]
  71:.\scheduler.c ****                                         
  72:.\scheduler.c ****                                         /* check if dependent task is initialzed */
  73:.\scheduler.c ****                                         if (SCH_Task[depTaskIndex].status != SCH_TASK_NEW)
 269              		.loc 1 73 0
 270 00e0 B979     		ldrb	r1, [r7, #6]	@ zero_extendqisi2
 271 00e2 40F20002 		movw	r2, #:lower16:SCH_Task
 272 00e6 C0F20002 		movt	r2, #:upper16:SCH_Task
 273 00ea 0B46     		mov	r3, r1
 274 00ec 4FEAC303 		lsl	r3, r3, #3
 275 00f0 C1EB0303 		rsb	r3, r1, r3
 276 00f4 4FEA8303 		lsl	r3, r3, #2
 277 00f8 1344     		add	r3, r3, r2
 278 00fa 03F10803 		add	r3, r3, #8
 279 00fe 1B78     		ldrb	r3, [r3, #0]	@ zero_extendqisi2
 280 0100 022B     		cmp	r3, #2
 281 0102 07D0     		beq	.L23
  74:.\scheduler.c ****                                         {
  75:.\scheduler.c ****                                             /* current task can be initialized */
  76:.\scheduler.c ****                                             taskInitFlag = TRUE;
 282              		.loc 1 76 0
 283 0104 4FF00103 		mov	r3, #1
 284 0108 FB71     		strb	r3, [r7, #7]
 285 010a 04E0     		b	.L15
 286              	.L13:
  77:.\scheduler.c ****                                         }
  78:.\scheduler.c ****                                         else
  79:.\scheduler.c ****                                         {
  80:.\scheduler.c ****                                             /* do nothing */
  81:.\scheduler.c ****                                         }
  82:.\scheduler.c ****                                     }
  83:.\scheduler.c ****                                     else
  84:.\scheduler.c ****                                     {
  85:.\scheduler.c ****                                         /* current task can be initialized */
  86:.\scheduler.c ****                                         taskInitFlag = TRUE;
 287              		.loc 1 86 0
 288 010c 4FF00103 		mov	r3, #1
 289 0110 FB71     		strb	r3, [r7, #7]
 290 0112 00E0     		b	.L15
 291              	.L23:
 292              		.loc 1 76 0
 293 0114 00BF     		nop
 294              	.L15:
  87:.\scheduler.c ****                                     }
  88:.\scheduler.c ****                                     
  89:.\scheduler.c ****                                     
  90:.\scheduler.c ****                                     
  91:.\scheduler.c ****                                     
  92:.\scheduler.c ****                                     if (taskInitFlag == TRUE)
 295              		.loc 1 92 0
 296 0116 FB79     		ldrb	r3, [r7, #7]	@ zero_extendqisi2
 297 0118 012B     		cmp	r3, #1
 298 011a 40F0D280 		bne	.L24
  93:.\scheduler.c ****                                     {
ARM GAS  C:\Users\Martin\AppData\Local\Temp\ccx4hZ4j.s 			page 8


  94:.\scheduler.c ****                                         /* call init function of current task */
  95:.\scheduler.c ****                                         if (NULL != SCH_Task[SCH_TaskIndex].init)
 299              		.loc 1 95 0
 300 011e 40F20003 		movw	r3, #:lower16:SCH_TaskIndex
 301 0122 C0F20003 		movt	r3, #:upper16:SCH_TaskIndex
 302 0126 1968     		ldr	r1, [r3, #0]
 303 0128 40F20002 		movw	r2, #:lower16:SCH_Task
 304 012c C0F20002 		movt	r2, #:upper16:SCH_Task
 305 0130 0B46     		mov	r3, r1
 306 0132 4FEAC303 		lsl	r3, r3, #3
 307 0136 C1EB0303 		rsb	r3, r1, r3
 308 013a 4FEA8303 		lsl	r3, r3, #2
 309 013e 1344     		add	r3, r3, r2
 310 0140 03F10C03 		add	r3, r3, #12
 311 0144 1B68     		ldr	r3, [r3, #0]
 312 0146 002B     		cmp	r3, #0
 313 0148 31D0     		beq	.L17
  96:.\scheduler.c ****                                         {
  97:.\scheduler.c ****                                             status = SCH_Task[SCH_TaskIndex].init();
 314              		.loc 1 97 0
 315 014a 40F20003 		movw	r3, #:lower16:SCH_TaskIndex
 316 014e C0F20003 		movt	r3, #:upper16:SCH_TaskIndex
 317 0152 1968     		ldr	r1, [r3, #0]
 318 0154 40F20002 		movw	r2, #:lower16:SCH_Task
 319 0158 C0F20002 		movt	r2, #:upper16:SCH_Task
 320 015c 0B46     		mov	r3, r1
 321 015e 4FEAC303 		lsl	r3, r3, #3
 322 0162 C1EB0303 		rsb	r3, r1, r3
 323 0166 4FEA8303 		lsl	r3, r3, #2
 324 016a 1344     		add	r3, r3, r2
 325 016c 03F10C03 		add	r3, r3, #12
 326 0170 1B68     		ldr	r3, [r3, #0]
 327 0172 9847     		blx	r3
 328 0174 0346     		mov	r3, r0
 329 0176 7B71     		strb	r3, [r7, #5]
  98:.\scheduler.c ****                                             if (status == SUCCESS)
 330              		.loc 1 98 0
 331 0178 7B79     		ldrb	r3, [r7, #5]	@ zero_extendqisi2
 332 017a 002B     		cmp	r3, #0
 333 017c 40F0A380 		bne	.L25
  99:.\scheduler.c ****                                             {
 100:.\scheduler.c ****                                                 SCH_Task[SCH_TaskIndex].status = SCH_TASK_READY;
 334              		.loc 1 100 0
 335 0180 40F20003 		movw	r3, #:lower16:SCH_TaskIndex
 336 0184 C0F20003 		movt	r3, #:upper16:SCH_TaskIndex
 337 0188 1968     		ldr	r1, [r3, #0]
 338 018a 40F20002 		movw	r2, #:lower16:SCH_Task
 339 018e C0F20002 		movt	r2, #:upper16:SCH_Task
 340 0192 0B46     		mov	r3, r1
 341 0194 4FEAC303 		lsl	r3, r3, #3
 342 0198 C1EB0303 		rsb	r3, r1, r3
 343 019c 4FEA8303 		lsl	r3, r3, #2
 344 01a0 1344     		add	r3, r3, r2
 345 01a2 03F10803 		add	r3, r3, #8
 346 01a6 4FF00402 		mov	r2, #4
 347 01aa 1A70     		strb	r2, [r3, #0]
 101:.\scheduler.c ****                                             }
ARM GAS  C:\Users\Martin\AppData\Local\Temp\ccx4hZ4j.s 			page 9


 102:.\scheduler.c ****                                         }
 103:.\scheduler.c ****                                         else
 104:.\scheduler.c ****                                         {
 105:.\scheduler.c ****                                             SCH_Task[SCH_TaskIndex].status = SCH_TASK_READY;
 106:.\scheduler.c ****                                         }
 107:.\scheduler.c ****                                     }
 108:.\scheduler.c ****                                     
 109:.\scheduler.c **** 
 110:.\scheduler.c ****                                     break;
 348              		.loc 1 110 0
 349 01ac 8CE0     		b	.L7
 350              	.L17:
 351              		.loc 1 105 0
 352 01ae 40F20003 		movw	r3, #:lower16:SCH_TaskIndex
 353 01b2 C0F20003 		movt	r3, #:upper16:SCH_TaskIndex
 354 01b6 1968     		ldr	r1, [r3, #0]
 355 01b8 40F20002 		movw	r2, #:lower16:SCH_Task
 356 01bc C0F20002 		movt	r2, #:upper16:SCH_Task
 357 01c0 0B46     		mov	r3, r1
 358 01c2 4FEAC303 		lsl	r3, r3, #3
 359 01c6 C1EB0303 		rsb	r3, r1, r3
 360 01ca 4FEA8303 		lsl	r3, r3, #2
 361 01ce 1344     		add	r3, r3, r2
 362 01d0 03F10803 		add	r3, r3, #8
 363 01d4 4FF00402 		mov	r2, #4
 364 01d8 1A70     		strb	r2, [r3, #0]
 365              		.loc 1 110 0
 366 01da 75E0     		b	.L7
 367              	.L9:
 111:.\scheduler.c **** 
 112:.\scheduler.c ****         case SCH_TASK_READY:        SCH_Task[SCH_TaskIndex].status = SCH_TASK_RUNNING;
 368              		.loc 1 112 0
 369 01dc 40F20003 		movw	r3, #:lower16:SCH_TaskIndex
 370 01e0 C0F20003 		movt	r3, #:upper16:SCH_TaskIndex
 371 01e4 1968     		ldr	r1, [r3, #0]
 372 01e6 40F20002 		movw	r2, #:lower16:SCH_Task
 373 01ea C0F20002 		movt	r2, #:upper16:SCH_Task
 374 01ee 0B46     		mov	r3, r1
 375 01f0 4FEAC303 		lsl	r3, r3, #3
 376 01f4 C1EB0303 		rsb	r3, r1, r3
 377 01f8 4FEA8303 		lsl	r3, r3, #2
 378 01fc 1344     		add	r3, r3, r2
 379 01fe 03F10803 		add	r3, r3, #8
 380 0202 4FF00802 		mov	r2, #8
 381 0206 1A70     		strb	r2, [r3, #0]
 113:.\scheduler.c ****                                     break;
 382              		.loc 1 113 0
 383 0208 5EE0     		b	.L7
 384              	.L10:
 114:.\scheduler.c ****                                
 115:.\scheduler.c ****         case SCH_TASK_RUNNING:      if (NULL != SCH_Task[SCH_TaskIndex].func)
 385              		.loc 1 115 0
 386 020a 40F20003 		movw	r3, #:lower16:SCH_TaskIndex
 387 020e C0F20003 		movt	r3, #:upper16:SCH_TaskIndex
 388 0212 1968     		ldr	r1, [r3, #0]
 389 0214 40F20002 		movw	r2, #:lower16:SCH_Task
 390 0218 C0F20002 		movt	r2, #:upper16:SCH_Task
ARM GAS  C:\Users\Martin\AppData\Local\Temp\ccx4hZ4j.s 			page 10


 391 021c 0B46     		mov	r3, r1
 392 021e 4FEAC303 		lsl	r3, r3, #3
 393 0222 C1EB0303 		rsb	r3, r1, r3
 394 0226 4FEA8303 		lsl	r3, r3, #2
 395 022a 1344     		add	r3, r3, r2
 396 022c 03F11003 		add	r3, r3, #16
 397 0230 1B68     		ldr	r3, [r3, #0]
 398 0232 002B     		cmp	r3, #0
 399 0234 17D0     		beq	.L19
 116:.\scheduler.c ****                                     {
 117:.\scheduler.c ****                                         status = SCH_Task[SCH_TaskIndex].func();
 400              		.loc 1 117 0
 401 0236 40F20003 		movw	r3, #:lower16:SCH_TaskIndex
 402 023a C0F20003 		movt	r3, #:upper16:SCH_TaskIndex
 403 023e 1968     		ldr	r1, [r3, #0]
 404 0240 40F20002 		movw	r2, #:lower16:SCH_Task
 405 0244 C0F20002 		movt	r2, #:upper16:SCH_Task
 406 0248 0B46     		mov	r3, r1
 407 024a 4FEAC303 		lsl	r3, r3, #3
 408 024e C1EB0303 		rsb	r3, r1, r3
 409 0252 4FEA8303 		lsl	r3, r3, #2
 410 0256 1344     		add	r3, r3, r2
 411 0258 03F11003 		add	r3, r3, #16
 412 025c 1B68     		ldr	r3, [r3, #0]
 413 025e 9847     		blx	r3
 414 0260 0346     		mov	r3, r0
 415 0262 7B71     		strb	r3, [r7, #5]
 118:.\scheduler.c ****                                     }
 119:.\scheduler.c ****                                     else
 120:.\scheduler.c ****                                     {
 121:.\scheduler.c ****                                         SCH_Task[SCH_TaskIndex].status = SCH_TASK_TERMINATED;
 122:.\scheduler.c ****                                     }
 123:.\scheduler.c ****                                     break;
 416              		.loc 1 123 0
 417 0264 30E0     		b	.L7
 418              	.L19:
 419              		.loc 1 121 0
 420 0266 40F20003 		movw	r3, #:lower16:SCH_TaskIndex
 421 026a C0F20003 		movt	r3, #:upper16:SCH_TaskIndex
 422 026e 1968     		ldr	r1, [r3, #0]
 423 0270 40F20002 		movw	r2, #:lower16:SCH_Task
 424 0274 C0F20002 		movt	r2, #:upper16:SCH_Task
 425 0278 0B46     		mov	r3, r1
 426 027a 4FEAC303 		lsl	r3, r3, #3
 427 027e C1EB0303 		rsb	r3, r1, r3
 428 0282 4FEA8303 		lsl	r3, r3, #2
 429 0286 1344     		add	r3, r3, r2
 430 0288 03F10803 		add	r3, r3, #8
 431 028c 4FF02002 		mov	r2, #32
 432 0290 1A70     		strb	r2, [r3, #0]
 433              		.loc 1 123 0
 434 0292 19E0     		b	.L7
 435              	.L11:
 124:.\scheduler.c **** 
 125:.\scheduler.c ****         case SCH_TASK_WAITING:      SCH_Task[SCH_TaskIndex].status = SCH_TASK_RUNNING;
 436              		.loc 1 125 0
 437 0294 40F20003 		movw	r3, #:lower16:SCH_TaskIndex
ARM GAS  C:\Users\Martin\AppData\Local\Temp\ccx4hZ4j.s 			page 11


 438 0298 C0F20003 		movt	r3, #:upper16:SCH_TaskIndex
 439 029c 1968     		ldr	r1, [r3, #0]
 440 029e 40F20002 		movw	r2, #:lower16:SCH_Task
 441 02a2 C0F20002 		movt	r2, #:upper16:SCH_Task
 442 02a6 0B46     		mov	r3, r1
 443 02a8 4FEAC303 		lsl	r3, r3, #3
 444 02ac C1EB0303 		rsb	r3, r1, r3
 445 02b0 4FEA8303 		lsl	r3, r3, #2
 446 02b4 1344     		add	r3, r3, r2
 447 02b6 03F10803 		add	r3, r3, #8
 448 02ba 4FF00802 		mov	r2, #8
 449 02be 1A70     		strb	r2, [r3, #0]
 450 02c0 02E0     		b	.L7
 451              	.L24:
 452              		.loc 1 110 0
 453 02c2 00BF     		nop
 454 02c4 00E0     		b	.L7
 455              	.L25:
 456 02c6 00BF     		nop
 457              	.L7:
 126:.\scheduler.c ****                                     break;
 127:.\scheduler.c ****                                     
 128:.\scheduler.c ****         case SCH_TASK_TERMINATED:
 129:.\scheduler.c ****         default:                    break;
 130:.\scheduler.c ****     }
 131:.\scheduler.c ****     
 132:.\scheduler.c **** 
 133:.\scheduler.c ****     
 134:.\scheduler.c ****     SCH_TaskIndex++;
 458              		.loc 1 134 0
 459 02c8 40F20003 		movw	r3, #:lower16:SCH_TaskIndex
 460 02cc C0F20003 		movt	r3, #:upper16:SCH_TaskIndex
 461 02d0 1B68     		ldr	r3, [r3, #0]
 462 02d2 03F10102 		add	r2, r3, #1
 463 02d6 40F20003 		movw	r3, #:lower16:SCH_TaskIndex
 464 02da C0F20003 		movt	r3, #:upper16:SCH_TaskIndex
 465 02de 1A60     		str	r2, [r3, #0]
 135:.\scheduler.c ****     
 136:.\scheduler.c ****     if (SCH_TaskIndex > SIZE_OF_ARRAY(SCH_Task))
 466              		.loc 1 136 0
 467 02e0 40F20003 		movw	r3, #:lower16:SCH_TaskIndex
 468 02e4 C0F20003 		movt	r3, #:upper16:SCH_TaskIndex
 469 02e8 1B68     		ldr	r3, [r3, #0]
 470 02ea 082B     		cmp	r3, #8
 471 02ec 06D9     		bls	.L22
 137:.\scheduler.c ****         SCH_TaskIndex = 0;
 472              		.loc 1 137 0
 473 02ee 40F20003 		movw	r3, #:lower16:SCH_TaskIndex
 474 02f2 C0F20003 		movt	r3, #:upper16:SCH_TaskIndex
 475 02f6 4FF00002 		mov	r2, #0
 476 02fa 1A60     		str	r2, [r3, #0]
 477              	.L22:
 138:.\scheduler.c **** }
 478              		.loc 1 138 0
 479 02fc 07F10807 		add	r7, r7, #8
 480 0300 BD46     		mov	sp, r7
 481 0302 80BD     		pop	{r7, pc}
ARM GAS  C:\Users\Martin\AppData\Local\Temp\ccx4hZ4j.s 			page 12


 482              		.cfi_endproc
 483              	.LFE30:
 484              		.size	SCH_TaskHandler, .-SCH_TaskHandler
 485              		.bss
 486              		.align	2
 487              	SCH_TaskBuffer:
 488 0004 00000000 		.space	1024
 488      00000000 
 488      00000000 
 488      00000000 
 488      00000000 
 489              		.align	2
 490              	n:
 491 0404 00000000 		.space	4
 492              		.section	.rodata
 493              		.align	2
 494              	.LC0:
 495 0000 0A3D3D3D 		.ascii	"\012===\000"
 495      00
 496 0005 000000   		.align	2
 497              	.LC1:
 498 0008 0A546173 		.ascii	"\012Task %i: %s/\000"
 498      6B202569 
 498      3A202573 
 498      2F00
 499 0016 0000     		.align	2
 500              	.LC2:
 501 0018 4E455700 		.ascii	"NEW\000"
 502              		.align	2
 503              	.LC3:
 504 001c 52454144 		.ascii	"READY\000"
 504      5900
 505 0022 0000     		.align	2
 506              	.LC4:
 507 0024 52554E4E 		.ascii	"RUNNING\000"
 507      494E4700 
 508              		.align	2
 509              	.LC5:
 510 002c 57414954 		.ascii	"WAITING\000"
 510      494E4700 
 511              		.align	2
 512              	.LC6:
 513 0034 5445524D 		.ascii	"TERMINATED\000"
 513      494E4154 
 513      454400
 514 003f 00       		.align	2
 515              	.LC7:
 516 0040 2025730A 		.ascii	" %s\012\000"
 516      00
 517 0045 000000   		.section	.text.SCH_ShowCurrentTasks,"ax",%progbits
 518              		.align	2
 519              		.global	SCH_ShowCurrentTasks
 520              		.thumb
 521              		.thumb_func
 522              		.type	SCH_ShowCurrentTasks, %function
 523              	SCH_ShowCurrentTasks:
 524              	.LFB31:
ARM GAS  C:\Users\Martin\AppData\Local\Temp\ccx4hZ4j.s 			page 13


 139:.\scheduler.c **** 
 140:.\scheduler.c **** 
 141:.\scheduler.c **** 
 142:.\scheduler.c **** /*****************************************************************/
 143:.\scheduler.c **** #ifdef SCH_DEBUG
 144:.\scheduler.c **** #include <stdio.h>
 145:.\scheduler.c **** static uchar SCH_TaskBuffer[1024];
 146:.\scheduler.c **** static int n=0;
 147:.\scheduler.c **** 
 148:.\scheduler.c **** void SCH_ShowCurrentTasks(void)
 149:.\scheduler.c **** {
 525              		.loc 1 149 0
 526              		.cfi_startproc
 527              		@ args = 0, pretend = 0, frame = 8
 528              		@ frame_needed = 1, uses_anonymous_args = 0
 529 0000 80B5     		push	{r7, lr}
 530              	.LCFI6:
 531              		.cfi_def_cfa_offset 8
 532 0002 82B0     		sub	sp, sp, #8
 533              	.LCFI7:
 534              		.cfi_def_cfa_offset 16
 535 0004 00AF     		add	r7, sp, #0
 536              		.cfi_offset 14, -4
 537              		.cfi_offset 7, -8
 538              	.LCFI8:
 539              		.cfi_def_cfa_register 7
 150:.\scheduler.c ****     int i;
 151:.\scheduler.c ****     
 152:.\scheduler.c ****     n += sprintf((char*)SCH_TaskBuffer + n, "\n===");
 540              		.loc 1 152 0
 541 0006 40F20003 		movw	r3, #:lower16:n
 542 000a C0F20003 		movt	r3, #:upper16:n
 543 000e 1B68     		ldr	r3, [r3, #0]
 544 0010 1A46     		mov	r2, r3
 545 0012 40F20003 		movw	r3, #:lower16:SCH_TaskBuffer
 546 0016 C0F20003 		movt	r3, #:upper16:SCH_TaskBuffer
 547 001a 1344     		add	r3, r2, r3
 548 001c 1846     		mov	r0, r3
 549 001e 40F20001 		movw	r1, #:lower16:.LC0
 550 0022 C0F20001 		movt	r1, #:upper16:.LC0
 551 0026 4FF00502 		mov	r2, #5
 552 002a FFF7FEFF 		bl	memcpy
 553 002e 40F20003 		movw	r3, #:lower16:n
 554 0032 C0F20003 		movt	r3, #:upper16:n
 555 0036 1B68     		ldr	r3, [r3, #0]
 556 0038 03F10402 		add	r2, r3, #4
 557 003c 40F20003 		movw	r3, #:lower16:n
 558 0040 C0F20003 		movt	r3, #:upper16:n
 559 0044 1A60     		str	r2, [r3, #0]
 153:.\scheduler.c ****     
 154:.\scheduler.c ****     for (i=0; i<sizeof(SCH_Task); i++)
 560              		.loc 1 154 0
 561 0046 4FF00003 		mov	r3, #0
 562 004a 7B60     		str	r3, [r7, #4]
 563 004c 6EE1     		b	.L27
 564              	.L36:
 155:.\scheduler.c ****     {
ARM GAS  C:\Users\Martin\AppData\Local\Temp\ccx4hZ4j.s 			page 14


 156:.\scheduler.c ****         if (NULL != SCH_Task[i].name)
 157:.\scheduler.c ****         {
 158:.\scheduler.c ****             n += sprintf((char*)SCH_TaskBuffer + n, "\nTask %i: %s/", i, SCH_Task[i].name);
 565              		.loc 1 158 0
 566 004e 40F20003 		movw	r3, #:lower16:n
 567 0052 C0F20003 		movt	r3, #:upper16:n
 568 0056 1B68     		ldr	r3, [r3, #0]
 569 0058 1A46     		mov	r2, r3
 570 005a 40F20003 		movw	r3, #:lower16:SCH_TaskBuffer
 571 005e C0F20003 		movt	r3, #:upper16:SCH_TaskBuffer
 572 0062 02EB0301 		add	r1, r2, r3
 573 0066 7A68     		ldr	r2, [r7, #4]
 574 0068 1346     		mov	r3, r2
 575 006a 4FEAC303 		lsl	r3, r3, #3
 576 006e C2EB0303 		rsb	r3, r2, r3
 577 0072 4FEA8302 		lsl	r2, r3, #2
 578 0076 40F20003 		movw	r3, #:lower16:SCH_Task
 579 007a C0F20003 		movt	r3, #:upper16:SCH_Task
 580 007e 1344     		add	r3, r2, r3
 581 0080 0846     		mov	r0, r1
 582 0082 40F20001 		movw	r1, #:lower16:.LC1
 583 0086 C0F20001 		movt	r1, #:upper16:.LC1
 584 008a 7A68     		ldr	r2, [r7, #4]
 585 008c FFF7FEFF 		bl	sprintf
 586 0090 0346     		mov	r3, r0
 587 0092 1A46     		mov	r2, r3
 588 0094 40F20003 		movw	r3, #:lower16:n
 589 0098 C0F20003 		movt	r3, #:upper16:n
 590 009c 1B68     		ldr	r3, [r3, #0]
 591 009e 1A44     		add	r2, r2, r3
 592 00a0 40F20003 		movw	r3, #:lower16:n
 593 00a4 C0F20003 		movt	r3, #:upper16:n
 594 00a8 1A60     		str	r2, [r3, #0]
 159:.\scheduler.c ****         
 160:.\scheduler.c ****             switch (SCH_Task[i].status)
 595              		.loc 1 160 0
 596 00aa 7968     		ldr	r1, [r7, #4]
 597 00ac 40F20002 		movw	r2, #:lower16:SCH_Task
 598 00b0 C0F20002 		movt	r2, #:upper16:SCH_Task
 599 00b4 0B46     		mov	r3, r1
 600 00b6 4FEAC303 		lsl	r3, r3, #3
 601 00ba C1EB0303 		rsb	r3, r1, r3
 602 00be 4FEA8303 		lsl	r3, r3, #2
 603 00c2 1344     		add	r3, r3, r2
 604 00c4 03F10803 		add	r3, r3, #8
 605 00c8 1B78     		ldrb	r3, [r3, #0]	@ zero_extendqisi2
 606 00ca A3F10203 		sub	r3, r3, #2
 607 00ce 1E2B     		cmp	r3, #30
 608 00d0 00F2E680 		bhi	.L28
 609 00d4 01A2     		adr	r2, .L34
 610 00d6 52F823F0 		ldr	pc, [r2, r3, lsl #2]
 611 00da 00BF     		.align	2
 612              	.L34:
 613 00dc 59010000 		.word	.L29+1
 614 00e0 A1020000 		.word	.L28+1
 615 00e4 9B010000 		.word	.L30+1
 616 00e8 A1020000 		.word	.L28+1
ARM GAS  C:\Users\Martin\AppData\Local\Temp\ccx4hZ4j.s 			page 15


 617 00ec A1020000 		.word	.L28+1
 618 00f0 A1020000 		.word	.L28+1
 619 00f4 DD010000 		.word	.L31+1
 620 00f8 A1020000 		.word	.L28+1
 621 00fc A1020000 		.word	.L28+1
 622 0100 A1020000 		.word	.L28+1
 623 0104 A1020000 		.word	.L28+1
 624 0108 A1020000 		.word	.L28+1
 625 010c A1020000 		.word	.L28+1
 626 0110 A1020000 		.word	.L28+1
 627 0114 1F020000 		.word	.L32+1
 628 0118 A1020000 		.word	.L28+1
 629 011c A1020000 		.word	.L28+1
 630 0120 A1020000 		.word	.L28+1
 631 0124 A1020000 		.word	.L28+1
 632 0128 A1020000 		.word	.L28+1
 633 012c A1020000 		.word	.L28+1
 634 0130 A1020000 		.word	.L28+1
 635 0134 A1020000 		.word	.L28+1
 636 0138 A1020000 		.word	.L28+1
 637 013c A1020000 		.word	.L28+1
 638 0140 A1020000 		.word	.L28+1
 639 0144 A1020000 		.word	.L28+1
 640 0148 A1020000 		.word	.L28+1
 641 014c A1020000 		.word	.L28+1
 642 0150 A1020000 		.word	.L28+1
 643 0154 61020000 		.word	.L33+1
 644              	.L29:
 161:.\scheduler.c ****             {
 162:.\scheduler.c ****                 case SCH_TASK_NEW:          n += sprintf((char*)SCH_TaskBuffer + n, "NEW");
 645              		.loc 1 162 0
 646 0158 40F20003 		movw	r3, #:lower16:n
 647 015c C0F20003 		movt	r3, #:upper16:n
 648 0160 1B68     		ldr	r3, [r3, #0]
 649 0162 1A46     		mov	r2, r3
 650 0164 40F20003 		movw	r3, #:lower16:SCH_TaskBuffer
 651 0168 C0F20003 		movt	r3, #:upper16:SCH_TaskBuffer
 652 016c 1344     		add	r3, r2, r3
 653 016e 1846     		mov	r0, r3
 654 0170 40F20001 		movw	r1, #:lower16:.LC2
 655 0174 C0F20001 		movt	r1, #:upper16:.LC2
 656 0178 4FF00402 		mov	r2, #4
 657 017c FFF7FEFF 		bl	memcpy
 658 0180 40F20003 		movw	r3, #:lower16:n
 659 0184 C0F20003 		movt	r3, #:upper16:n
 660 0188 1B68     		ldr	r3, [r3, #0]
 661 018a 03F10302 		add	r2, r3, #3
 662 018e 40F20003 		movw	r3, #:lower16:n
 663 0192 C0F20003 		movt	r3, #:upper16:n
 664 0196 1A60     		str	r2, [r3, #0]
 163:.\scheduler.c ****                                             break;
 665              		.loc 1 163 0
 666 0198 82E0     		b	.L28
 667              	.L30:
 164:.\scheduler.c ****                 case SCH_TASK_READY:        n += sprintf((char*)SCH_TaskBuffer + n, "READY");
 668              		.loc 1 164 0
 669 019a 40F20003 		movw	r3, #:lower16:n
ARM GAS  C:\Users\Martin\AppData\Local\Temp\ccx4hZ4j.s 			page 16


 670 019e C0F20003 		movt	r3, #:upper16:n
 671 01a2 1B68     		ldr	r3, [r3, #0]
 672 01a4 1A46     		mov	r2, r3
 673 01a6 40F20003 		movw	r3, #:lower16:SCH_TaskBuffer
 674 01aa C0F20003 		movt	r3, #:upper16:SCH_TaskBuffer
 675 01ae 1344     		add	r3, r2, r3
 676 01b0 1846     		mov	r0, r3
 677 01b2 40F20001 		movw	r1, #:lower16:.LC3
 678 01b6 C0F20001 		movt	r1, #:upper16:.LC3
 679 01ba 4FF00602 		mov	r2, #6
 680 01be FFF7FEFF 		bl	memcpy
 681 01c2 40F20003 		movw	r3, #:lower16:n
 682 01c6 C0F20003 		movt	r3, #:upper16:n
 683 01ca 1B68     		ldr	r3, [r3, #0]
 684 01cc 03F10502 		add	r2, r3, #5
 685 01d0 40F20003 		movw	r3, #:lower16:n
 686 01d4 C0F20003 		movt	r3, #:upper16:n
 687 01d8 1A60     		str	r2, [r3, #0]
 165:.\scheduler.c ****                                             break;
 688              		.loc 1 165 0
 689 01da 61E0     		b	.L28
 690              	.L31:
 166:.\scheduler.c ****                 case SCH_TASK_RUNNING:      n += sprintf((char*)SCH_TaskBuffer + n, "RUNNING");
 691              		.loc 1 166 0
 692 01dc 40F20003 		movw	r3, #:lower16:n
 693 01e0 C0F20003 		movt	r3, #:upper16:n
 694 01e4 1B68     		ldr	r3, [r3, #0]
 695 01e6 1A46     		mov	r2, r3
 696 01e8 40F20003 		movw	r3, #:lower16:SCH_TaskBuffer
 697 01ec C0F20003 		movt	r3, #:upper16:SCH_TaskBuffer
 698 01f0 1344     		add	r3, r2, r3
 699 01f2 1846     		mov	r0, r3
 700 01f4 40F20001 		movw	r1, #:lower16:.LC4
 701 01f8 C0F20001 		movt	r1, #:upper16:.LC4
 702 01fc 4FF00802 		mov	r2, #8
 703 0200 FFF7FEFF 		bl	memcpy
 704 0204 40F20003 		movw	r3, #:lower16:n
 705 0208 C0F20003 		movt	r3, #:upper16:n
 706 020c 1B68     		ldr	r3, [r3, #0]
 707 020e 03F10702 		add	r2, r3, #7
 708 0212 40F20003 		movw	r3, #:lower16:n
 709 0216 C0F20003 		movt	r3, #:upper16:n
 710 021a 1A60     		str	r2, [r3, #0]
 167:.\scheduler.c ****                                             break;
 711              		.loc 1 167 0
 712 021c 40E0     		b	.L28
 713              	.L32:
 168:.\scheduler.c ****                 case SCH_TASK_WAITING:      n += sprintf((char*)SCH_TaskBuffer + n, "WAITING");
 714              		.loc 1 168 0
 715 021e 40F20003 		movw	r3, #:lower16:n
 716 0222 C0F20003 		movt	r3, #:upper16:n
 717 0226 1B68     		ldr	r3, [r3, #0]
 718 0228 1A46     		mov	r2, r3
 719 022a 40F20003 		movw	r3, #:lower16:SCH_TaskBuffer
 720 022e C0F20003 		movt	r3, #:upper16:SCH_TaskBuffer
 721 0232 1344     		add	r3, r2, r3
 722 0234 1846     		mov	r0, r3
ARM GAS  C:\Users\Martin\AppData\Local\Temp\ccx4hZ4j.s 			page 17


 723 0236 40F20001 		movw	r1, #:lower16:.LC5
 724 023a C0F20001 		movt	r1, #:upper16:.LC5
 725 023e 4FF00802 		mov	r2, #8
 726 0242 FFF7FEFF 		bl	memcpy
 727 0246 40F20003 		movw	r3, #:lower16:n
 728 024a C0F20003 		movt	r3, #:upper16:n
 729 024e 1B68     		ldr	r3, [r3, #0]
 730 0250 03F10702 		add	r2, r3, #7
 731 0254 40F20003 		movw	r3, #:lower16:n
 732 0258 C0F20003 		movt	r3, #:upper16:n
 733 025c 1A60     		str	r2, [r3, #0]
 169:.\scheduler.c ****                                             break;
 734              		.loc 1 169 0
 735 025e 1FE0     		b	.L28
 736              	.L33:
 170:.\scheduler.c ****                 case SCH_TASK_TERMINATED:   n += sprintf((char*)SCH_TaskBuffer + n, "TERMINATED");
 737              		.loc 1 170 0
 738 0260 40F20003 		movw	r3, #:lower16:n
 739 0264 C0F20003 		movt	r3, #:upper16:n
 740 0268 1B68     		ldr	r3, [r3, #0]
 741 026a 1A46     		mov	r2, r3
 742 026c 40F20003 		movw	r3, #:lower16:SCH_TaskBuffer
 743 0270 C0F20003 		movt	r3, #:upper16:SCH_TaskBuffer
 744 0274 1344     		add	r3, r2, r3
 745 0276 1846     		mov	r0, r3
 746 0278 40F20001 		movw	r1, #:lower16:.LC6
 747 027c C0F20001 		movt	r1, #:upper16:.LC6
 748 0280 4FF00B02 		mov	r2, #11
 749 0284 FFF7FEFF 		bl	memcpy
 750 0288 40F20003 		movw	r3, #:lower16:n
 751 028c C0F20003 		movt	r3, #:upper16:n
 752 0290 1B68     		ldr	r3, [r3, #0]
 753 0292 03F10A02 		add	r2, r3, #10
 754 0296 40F20003 		movw	r3, #:lower16:n
 755 029a C0F20003 		movt	r3, #:upper16:n
 756 029e 1A60     		str	r2, [r3, #0]
 757              	.L28:
 171:.\scheduler.c ****                                             break;
 172:.\scheduler.c ****                 default:                    break;                                
 173:.\scheduler.c ****             }
 174:.\scheduler.c ****             
 175:.\scheduler.c ****             n += sprintf((char*)SCH_TaskBuffer + n, " %s\n", SCH_Task[i].dependency);
 758              		.loc 1 175 0
 759 02a0 40F20003 		movw	r3, #:lower16:n
 760 02a4 C0F20003 		movt	r3, #:upper16:n
 761 02a8 1B68     		ldr	r3, [r3, #0]
 762 02aa 1A46     		mov	r2, r3
 763 02ac 40F20003 		movw	r3, #:lower16:SCH_TaskBuffer
 764 02b0 C0F20003 		movt	r3, #:upper16:SCH_TaskBuffer
 765 02b4 02EB0301 		add	r1, r2, r3
 766 02b8 7A68     		ldr	r2, [r7, #4]
 767 02ba 1346     		mov	r3, r2
 768 02bc 4FEAC303 		lsl	r3, r3, #3
 769 02c0 C2EB0303 		rsb	r3, r2, r3
 770 02c4 4FEA8303 		lsl	r3, r3, #2
 771 02c8 03F11002 		add	r2, r3, #16
 772 02cc 40F20003 		movw	r3, #:lower16:SCH_Task
ARM GAS  C:\Users\Martin\AppData\Local\Temp\ccx4hZ4j.s 			page 18


 773 02d0 C0F20003 		movt	r3, #:upper16:SCH_Task
 774 02d4 1344     		add	r3, r2, r3
 775 02d6 03F10403 		add	r3, r3, #4
 776 02da 0846     		mov	r0, r1
 777 02dc 40F20001 		movw	r1, #:lower16:.LC7
 778 02e0 C0F20001 		movt	r1, #:upper16:.LC7
 779 02e4 1A46     		mov	r2, r3
 780 02e6 FFF7FEFF 		bl	sprintf
 781 02ea 0246     		mov	r2, r0
 782 02ec 40F20003 		movw	r3, #:lower16:n
 783 02f0 C0F20003 		movt	r3, #:upper16:n
 784 02f4 1B68     		ldr	r3, [r3, #0]
 785 02f6 1A44     		add	r2, r2, r3
 786 02f8 40F20003 		movw	r3, #:lower16:n
 787 02fc C0F20003 		movt	r3, #:upper16:n
 788 0300 1A60     		str	r2, [r3, #0]
 176:.\scheduler.c ****             if ((n+64)>1024)
 789              		.loc 1 176 0
 790 0302 40F20003 		movw	r3, #:lower16:n
 791 0306 C0F20003 		movt	r3, #:upper16:n
 792 030a 1B68     		ldr	r3, [r3, #0]
 793 030c 03F14003 		add	r3, r3, #64
 794 0310 B3F5806F 		cmp	r3, #1024
 795 0314 06DD     		ble	.L35
 177:.\scheduler.c ****                 n=0;
 796              		.loc 1 177 0
 797 0316 40F20003 		movw	r3, #:lower16:n
 798 031a C0F20003 		movt	r3, #:upper16:n
 799 031e 4FF00002 		mov	r2, #0
 800 0322 1A60     		str	r2, [r3, #0]
 801              	.L35:
 802              		.loc 1 154 0
 803 0324 7B68     		ldr	r3, [r7, #4]
 804 0326 03F10103 		add	r3, r3, #1
 805 032a 7B60     		str	r3, [r7, #4]
 806              	.L27:
 807 032c 7B68     		ldr	r3, [r7, #4]
 808 032e DF2B     		cmp	r3, #223
 809 0330 7FF68DAE 		bls	.L36
 178:.\scheduler.c ****         }
 179:.\scheduler.c ****     }
 180:.\scheduler.c **** }
 810              		.loc 1 180 0
 811 0334 07F10807 		add	r7, r7, #8
 812 0338 BD46     		mov	sp, r7
 813 033a 80BD     		pop	{r7, pc}
 814              		.cfi_endproc
 815              	.LFE31:
 816              		.size	SCH_ShowCurrentTasks, .-SCH_ShowCurrentTasks
 817              		.text
 818              	.Letext0: