ARM GAS  C:\Users\Martin\AppData\Local\Temp\ccIdUyhf.s 			page 1


   1              		.syntax unified
   2              		.cpu cortex-m3
   3              		.fpu softvfp
   4              		.eabi_attribute 20, 1
   5              		.eabi_attribute 21, 1
   6              		.eabi_attribute 23, 3
   7              		.eabi_attribute 24, 1
   8              		.eabi_attribute 25, 1
   9              		.eabi_attribute 26, 1
  10              		.eabi_attribute 30, 6
  11              		.eabi_attribute 18, 4
  12              		.thumb
  13              		.file	"servo_cds5500.c"
  20 0000 CC010000 		.text
  20      02002601 
  20      00000201 
  20      FB0E0D00 
  20      01010101 
  21              	.Ltext0:
  22              		.cfi_sections	.debug_frame
  23              		.section	.text.CDS5500_GetChecksum,"ax",%progbits
  24              		.align	2
  25              		.global	CDS5500_GetChecksum
  26              		.thumb
  27              		.thumb_func
  28              		.type	CDS5500_GetChecksum, %function
  29              	CDS5500_GetChecksum:
  30              	.LFB29:
  31              		.file 1 ".\\servo_cds5500.c"
   1:.\servo_cds5500.c **** /* Copyright (C) <2014> <Martin Schalk>
   2:.\servo_cds5500.c ****  * All rights reserved.
   3:.\servo_cds5500.c ****  *
   4:.\servo_cds5500.c ****  * This software may be modified and distributed under the terms
   5:.\servo_cds5500.c ****  * of the BSD license.  See the LICENSE file for details.
   6:.\servo_cds5500.c ****  */
   7:.\servo_cds5500.c **** 
   8:.\servo_cds5500.c **** #include <project.h>
   9:.\servo_cds5500.c **** #include <stdio.h>
  10:.\servo_cds5500.c **** #include "servo_cds5500.h"
  11:.\servo_cds5500.c **** 
  12:.\servo_cds5500.c **** #include "bal.h"
  13:.\servo_cds5500.c **** #include "types.h"
  14:.\servo_cds5500.c **** #include "move.h"
  15:.\servo_cds5500.c **** 
  16:.\servo_cds5500.c **** /*------------------------ LOCAL FUNCTIONS -------------------------------*/
  17:.\servo_cds5500.c **** 
  18:.\servo_cds5500.c **** /**************************************************************************/
  19:.\servo_cds5500.c **** uint8 CDS5500_GetChecksum(CDS5500_MSG* msg)
  20:.\servo_cds5500.c **** {
  32              		.loc 1 20 0
  33              		.cfi_startproc
ARM GAS  C:\Users\Martin\AppData\Local\Temp\ccIdUyhf.s 			page 2


  34              		@ args = 0, pretend = 0, frame = 16
  35              		@ frame_needed = 1, uses_anonymous_args = 0
  36              		@ link register save eliminated.
  37 0000 80B4     		push	{r7}
  38              	.LCFI0:
  39              		.cfi_def_cfa_offset 4
  40 0002 85B0     		sub	sp, sp, #20
  41              	.LCFI1:
  42              		.cfi_def_cfa_offset 24
  43 0004 00AF     		add	r7, sp, #0
  44              		.cfi_offset 7, -4
  45              	.LCFI2:
  46              		.cfi_def_cfa_register 7
  47 0006 7860     		str	r0, [r7, #4]
  21:.\servo_cds5500.c **** 	uint8 checksum = 0;
  48              		.loc 1 21 0
  49 0008 4FF00003 		mov	r3, #0
  50 000c BB73     		strb	r3, [r7, #14]
  22:.\servo_cds5500.c ****     uint8 i;
  23:.\servo_cds5500.c ****         
  24:.\servo_cds5500.c ****     /* add first 3 bytes of motor message */    
  25:.\servo_cds5500.c ****     checksum = msg->motorId + msg->length + msg->instrId;
  51              		.loc 1 25 0
  52 000e 7B68     		ldr	r3, [r7, #4]
  53 0010 9A78     		ldrb	r2, [r3, #2]	@ zero_extendqisi2
  54 0012 7B68     		ldr	r3, [r7, #4]
  55 0014 DB78     		ldrb	r3, [r3, #3]	@ zero_extendqisi2
  56 0016 1344     		add	r3, r2, r3
  57 0018 DAB2     		uxtb	r2, r3
  58 001a 7B68     		ldr	r3, [r7, #4]
  59 001c 1B79     		ldrb	r3, [r3, #4]	@ zero_extendqisi2
  60 001e 1344     		add	r3, r2, r3
  61 0020 BB73     		strb	r3, [r7, #14]
  26:.\servo_cds5500.c ****     
  27:.\servo_cds5500.c ****     /* add parameter bytes of motor message */   
  28:.\servo_cds5500.c ****     for (i=0; i<msg->length-CDS5500_COMPLEMENTARY_BYTES; i++)
  62              		.loc 1 28 0
  63 0022 4FF00003 		mov	r3, #0
  64 0026 FB73     		strb	r3, [r7, #15]
  65 0028 0AE0     		b	.L2
  66              	.L3:
  29:.\servo_cds5500.c ****         checksum += msg->instrParams[i];
  67              		.loc 1 29 0
  68 002a FA7B     		ldrb	r2, [r7, #15]	@ zero_extendqisi2
  69 002c 7B68     		ldr	r3, [r7, #4]
  70 002e 1344     		add	r3, r2, r3
  71 0030 5A79     		ldrb	r2, [r3, #5]	@ zero_extendqisi2
  72 0032 BB7B     		ldrb	r3, [r7, #14]
  73 0034 1344     		add	r3, r2, r3
  74 0036 BB73     		strb	r3, [r7, #14]
  75              		.loc 1 28 0
  76 0038 FB7B     		ldrb	r3, [r7, #15]
  77 003a 03F10103 		add	r3, r3, #1
  78 003e FB73     		strb	r3, [r7, #15]
  79              	.L2:
  80 0040 FA7B     		ldrb	r2, [r7, #15]	@ zero_extendqisi2
  81 0042 7B68     		ldr	r3, [r7, #4]
ARM GAS  C:\Users\Martin\AppData\Local\Temp\ccIdUyhf.s 			page 3


  82 0044 DB78     		ldrb	r3, [r3, #3]	@ zero_extendqisi2
  83 0046 A3F10203 		sub	r3, r3, #2
  84 004a 9A42     		cmp	r2, r3
  85 004c EDDB     		blt	.L3
  30:.\servo_cds5500.c ****       
  31:.\servo_cds5500.c ****     /* invert checksum */    
  32:.\servo_cds5500.c ****     checksum = ~checksum & 0xFF; //    printf((~(ID + (messageLength) + INST_WRITE + P_GOAL_POSITIO
  86              		.loc 1 32 0
  87 004e BB7B     		ldrb	r3, [r7, #14]
  88 0050 6FEA0303 		mvn	r3, r3
  89 0054 BB73     		strb	r3, [r7, #14]
  33:.\servo_cds5500.c **** 	
  34:.\servo_cds5500.c **** 	return checksum;
  90              		.loc 1 34 0
  91 0056 BB7B     		ldrb	r3, [r7, #14]	@ zero_extendqisi2
  35:.\servo_cds5500.c **** }
  92              		.loc 1 35 0
  93 0058 1846     		mov	r0, r3
  94 005a 07F11407 		add	r7, r7, #20
  95 005e BD46     		mov	sp, r7
  96 0060 80BC     		pop	{r7}
  97 0062 7047     		bx	lr
  98              		.cfi_endproc
  99              	.LFE29:
 100              		.size	CDS5500_GetChecksum, .-CDS5500_GetChecksum
 101              		.section	.text.SendServoMsg,"ax",%progbits
 102              		.align	2
 103              		.thumb
 104              		.thumb_func
 105              		.type	SendServoMsg, %function
 106              	SendServoMsg:
 107              	.LFB30:
  36:.\servo_cds5500.c **** 
  37:.\servo_cds5500.c **** /**************************************************************************/
  38:.\servo_cds5500.c **** static STATUS SendServoMsg(uint8 ucMotorId, uint8 ucInstrId, uint8 ucNumParams, uint8* pucInstrPara
  39:.\servo_cds5500.c **** {
 108              		.loc 1 39 0
 109              		.cfi_startproc
 110              		@ args = 0, pretend = 0, frame = 24
 111              		@ frame_needed = 1, uses_anonymous_args = 0
 112 0000 80B5     		push	{r7, lr}
 113              	.LCFI3:
 114              		.cfi_def_cfa_offset 8
 115 0002 86B0     		sub	sp, sp, #24
 116              	.LCFI4:
 117              		.cfi_def_cfa_offset 32
 118 0004 00AF     		add	r7, sp, #0
 119              		.cfi_offset 14, -4
 120              		.cfi_offset 7, -8
 121              	.LCFI5:
 122              		.cfi_def_cfa_register 7
 123 0006 3B60     		str	r3, [r7, #0]
 124 0008 0346     		mov	r3, r0
 125 000a FB71     		strb	r3, [r7, #7]
 126 000c 0B46     		mov	r3, r1
 127 000e BB71     		strb	r3, [r7, #6]
 128 0010 1346     		mov	r3, r2
ARM GAS  C:\Users\Martin\AppData\Local\Temp\ccIdUyhf.s 			page 4


 129 0012 7B71     		strb	r3, [r7, #5]
  40:.\servo_cds5500.c ****     CDS5500_MSG msg;
  41:.\servo_cds5500.c ****     
  42:.\servo_cds5500.c ****     msg.startbyte0      = START_BYTE_0_VALUE;
 130              		.loc 1 42 0
 131 0014 4FF0FF33 		mov	r3, #-1
 132 0018 3B72     		strb	r3, [r7, #8]
  43:.\servo_cds5500.c ****     msg.startbyte1      = START_BYTE_1_VALUE;
 133              		.loc 1 43 0
 134 001a 4FF0FF33 		mov	r3, #-1
 135 001e 7B72     		strb	r3, [r7, #9]
  44:.\servo_cds5500.c ****     msg.motorId         = ucMotorId;
 136              		.loc 1 44 0
 137 0020 FB79     		ldrb	r3, [r7, #7]
 138 0022 BB72     		strb	r3, [r7, #10]
  45:.\servo_cds5500.c ****     msg.instrId         = ucInstrId;
 139              		.loc 1 45 0
 140 0024 BB79     		ldrb	r3, [r7, #6]
 141 0026 3B73     		strb	r3, [r7, #12]
  46:.\servo_cds5500.c ****     
  47:.\servo_cds5500.c ****     if ((ucNumParams > 0) && (pucInstrParams != NULL))
 142              		.loc 1 47 0
 143 0028 7B79     		ldrb	r3, [r7, #5]	@ zero_extendqisi2
 144 002a 002B     		cmp	r3, #0
 145 002c 0CD0     		beq	.L6
 146 002e 3B68     		ldr	r3, [r7, #0]
 147 0030 002B     		cmp	r3, #0
 148 0032 09D0     		beq	.L6
  48:.\servo_cds5500.c ****         memcpy(msg.instrParams, pucInstrParams, ucNumParams);
 149              		.loc 1 48 0
 150 0034 7B79     		ldrb	r3, [r7, #5]	@ zero_extendqisi2
 151 0036 07F10802 		add	r2, r7, #8
 152 003a 02F10502 		add	r2, r2, #5
 153 003e 1046     		mov	r0, r2
 154 0040 3968     		ldr	r1, [r7, #0]
 155 0042 1A46     		mov	r2, r3
 156 0044 FFF7FEFF 		bl	memcpy
 157              	.L6:
  49:.\servo_cds5500.c **** 
  50:.\servo_cds5500.c ****     msg.length          = ucNumParams + 2; //number of params + 1 (instrId) + 1 (checksum)
 158              		.loc 1 50 0
 159 0048 7B79     		ldrb	r3, [r7, #5]
 160 004a 03F10203 		add	r3, r3, #2
 161 004e DBB2     		uxtb	r3, r3
 162 0050 FB72     		strb	r3, [r7, #11]
  51:.\servo_cds5500.c ****     msg.checksum        = CDS5500_GetChecksum(&msg);  
 163              		.loc 1 51 0
 164 0052 07F10803 		add	r3, r7, #8
 165 0056 1846     		mov	r0, r3
 166 0058 FFF7FEFF 		bl	CDS5500_GetChecksum
 167 005c 0346     		mov	r3, r0
 168 005e 7B75     		strb	r3, [r7, #21]
  52:.\servo_cds5500.c ****     
  53:.\servo_cds5500.c ****     return BAL_ServoMsg(&msg);
 169              		.loc 1 53 0
 170 0060 07F10803 		add	r3, r7, #8
 171 0064 1846     		mov	r0, r3
ARM GAS  C:\Users\Martin\AppData\Local\Temp\ccIdUyhf.s 			page 5


 172 0066 FFF7FEFF 		bl	BAL_ServoMsg
 173 006a 0346     		mov	r3, r0
  54:.\servo_cds5500.c **** }
 174              		.loc 1 54 0
 175 006c 1846     		mov	r0, r3
 176 006e 07F11807 		add	r7, r7, #24
 177 0072 BD46     		mov	sp, r7
 178 0074 80BD     		pop	{r7, pc}
 179              		.cfi_endproc
 180              	.LFE30:
 181              		.size	SendServoMsg, .-SendServoMsg
 182 0076 00BF     		.section	.text.CDS5500_CheckResponse,"ax",%progbits
 183              		.align	2
 184              		.global	CDS5500_CheckResponse
 185              		.thumb
 186              		.thumb_func
 187              		.type	CDS5500_CheckResponse, %function
 188              	CDS5500_CheckResponse:
 189              	.LFB31:
  55:.\servo_cds5500.c **** 
  56:.\servo_cds5500.c **** /**************************************************************************
  57:.\servo_cds5500.c **** CheckResponse
  58:.\servo_cds5500.c **** http://www.dfrobot.com/image/data/SER0026/CDS55XX_Robot_Servo_User_Manual_EN.pdf
  59:.\servo_cds5500.c **** HEADER ID LENGTH ERROR PARAMETER CHECK SUM
  60:.\servo_cds5500.c **** **************************************************************************/
  61:.\servo_cds5500.c **** STATUS CDS5500_CheckResponse(CDS5500_MSG* response)
  62:.\servo_cds5500.c **** {
 190              		.loc 1 62 0
 191              		.cfi_startproc
 192              		@ args = 0, pretend = 0, frame = 16
 193              		@ frame_needed = 1, uses_anonymous_args = 0
 194 0000 80B5     		push	{r7, lr}
 195              	.LCFI6:
 196              		.cfi_def_cfa_offset 8
 197 0002 84B0     		sub	sp, sp, #16
 198              	.LCFI7:
 199              		.cfi_def_cfa_offset 24
 200 0004 00AF     		add	r7, sp, #0
 201              		.cfi_offset 14, -4
 202              		.cfi_offset 7, -8
 203              	.LCFI8:
 204              		.cfi_def_cfa_register 7
 205 0006 7860     		str	r0, [r7, #4]
  63:.\servo_cds5500.c ****     STATUS status=SUCCESS;
 206              		.loc 1 63 0
 207 0008 4FF00003 		mov	r3, #0
 208 000c 7B73     		strb	r3, [r7, #13]
  64:.\servo_cds5500.c ****     uint8 msgCkecksum = response->checksum;
 209              		.loc 1 64 0
 210 000e 7B68     		ldr	r3, [r7, #4]
 211 0010 5B7B     		ldrb	r3, [r3, #13]
 212 0012 BB73     		strb	r3, [r7, #14]
  65:.\servo_cds5500.c ****     uint8 calcChecksum = CDS5500_GetChecksum(response); 
 213              		.loc 1 65 0
 214 0014 7868     		ldr	r0, [r7, #4]
 215 0016 FFF7FEFF 		bl	CDS5500_GetChecksum
 216 001a 0346     		mov	r3, r0
ARM GAS  C:\Users\Martin\AppData\Local\Temp\ccIdUyhf.s 			page 6


 217 001c FB73     		strb	r3, [r7, #15]
  66:.\servo_cds5500.c ****     
  67:.\servo_cds5500.c ****     /* compare calculated with received checksum */
  68:.\servo_cds5500.c ****     if (msgCkecksum != calcChecksum)
 218              		.loc 1 68 0
 219 001e BA7B     		ldrb	r2, [r7, #14]	@ zero_extendqisi2
 220 0020 FB7B     		ldrb	r3, [r7, #15]	@ zero_extendqisi2
 221 0022 9A42     		cmp	r2, r3
 222 0024 02D0     		beq	.L9
  69:.\servo_cds5500.c ****         return CDS5500_ERROR_RECEIVED_CHECKSUM;
 223              		.loc 1 69 0
 224 0026 4FF0FE03 		mov	r3, #254
 225 002a 09E0     		b	.L10
 226              	.L9:
  70:.\servo_cds5500.c ****     
  71:.\servo_cds5500.c ****     /* check if error bits are set */
  72:.\servo_cds5500.c ****     if (response->instrParams[0] & CDS5500_ERROR_INSTRUCTION_BIT) 
 227              		.loc 1 72 0
 228 002c 7B68     		ldr	r3, [r7, #4]
 229 002e 5B79     		ldrb	r3, [r3, #5]	@ zero_extendqisi2
 230 0030 03F04003 		and	r3, r3, #64
 231 0034 002B     		cmp	r3, #0
 232 0036 02D0     		beq	.L11
  73:.\servo_cds5500.c ****         status = CDS5500_ERROR_INSTRUCTION;
 233              		.loc 1 73 0
 234 0038 4FF0FF33 		mov	r3, #-1
 235 003c 7B73     		strb	r3, [r7, #13]
 236              	.L11:
  74:.\servo_cds5500.c ****         
  75:.\servo_cds5500.c ****     return status;
 237              		.loc 1 75 0
 238 003e 7B7B     		ldrb	r3, [r7, #13]	@ zero_extendqisi2
 239              	.L10:
  76:.\servo_cds5500.c **** }
 240              		.loc 1 76 0
 241 0040 1846     		mov	r0, r3
 242 0042 07F11007 		add	r7, r7, #16
 243 0046 BD46     		mov	sp, r7
 244 0048 80BD     		pop	{r7, pc}
 245              		.cfi_endproc
 246              	.LFE31:
 247              		.size	CDS5500_CheckResponse, .-CDS5500_CheckResponse
 248 004a 00BF     		.section	.text.CDS5500_ReadRequest,"ax",%progbits
 249              		.align	2
 250              		.global	CDS5500_ReadRequest
 251              		.thumb
 252              		.thumb_func
 253              		.type	CDS5500_ReadRequest, %function
 254              	CDS5500_ReadRequest:
 255              	.LFB32:
  77:.\servo_cds5500.c **** 
  78:.\servo_cds5500.c **** 
  79:.\servo_cds5500.c **** /**************************************************************************
  80:.\servo_cds5500.c **** **************************************************************************/
  81:.\servo_cds5500.c **** void CDS5500_ReadRequest(uint8_t ucMotorId, uint8_t ucAddr)
  82:.\servo_cds5500.c **** {
 256              		.loc 1 82 0
ARM GAS  C:\Users\Martin\AppData\Local\Temp\ccIdUyhf.s 			page 7


 257              		.cfi_startproc
 258              		@ args = 0, pretend = 0, frame = 24
 259              		@ frame_needed = 1, uses_anonymous_args = 0
 260 0000 90B5     		push	{r4, r7, lr}
 261              	.LCFI9:
 262              		.cfi_def_cfa_offset 12
 263 0002 87B0     		sub	sp, sp, #28
 264              	.LCFI10:
 265              		.cfi_def_cfa_offset 40
 266 0004 00AF     		add	r7, sp, #0
 267              		.cfi_offset 14, -4
 268              		.cfi_offset 7, -8
 269              		.cfi_offset 4, -12
 270              	.LCFI11:
 271              		.cfi_def_cfa_register 7
 272 0006 0246     		mov	r2, r0
 273 0008 0B46     		mov	r3, r1
 274 000a FA71     		strb	r2, [r7, #7]
 275 000c BB71     		strb	r3, [r7, #6]
  83:.\servo_cds5500.c ****     STATUS status;
  84:.\servo_cds5500.c **** 
  85:.\servo_cds5500.c ****     CDS5500_MSG msg = { START_BYTE_0_VALUE, 
  86:.\servo_cds5500.c ****                         START_BYTE_1_VALUE, 
  87:.\servo_cds5500.c ****                         ucMotorId,
  88:.\servo_cds5500.c ****                         CDS5500_INST_LENGTH_READ,
  89:.\servo_cds5500.c ****                         CDS5500_INST_ID_READ,
  90:.\servo_cds5500.c ****                         {ucAddr},
  91:.\servo_cds5500.c ****                         0x00,
  92:.\servo_cds5500.c ****                       };
 276              		.loc 1 92 0
 277 000e 07F10803 		add	r3, r7, #8
 278 0012 4FF00002 		mov	r2, #0
 279 0016 1A60     		str	r2, [r3, #0]
 280 0018 03F10403 		add	r3, r3, #4
 281 001c 4FF00002 		mov	r2, #0
 282 0020 1A60     		str	r2, [r3, #0]
 283 0022 03F10403 		add	r3, r3, #4
 284 0026 4FF00002 		mov	r2, #0
 285 002a 1A60     		str	r2, [r3, #0]
 286 002c 03F10403 		add	r3, r3, #4
 287 0030 4FF00002 		mov	r2, #0
 288 0034 1A80     		strh	r2, [r3, #0]	@ movhi
 289 0036 03F10203 		add	r3, r3, #2
 290 003a 4FF0FF33 		mov	r3, #-1
 291 003e 3B72     		strb	r3, [r7, #8]
 292 0040 4FF0FF33 		mov	r3, #-1
 293 0044 7B72     		strb	r3, [r7, #9]
 294 0046 FB79     		ldrb	r3, [r7, #7]
 295 0048 BB72     		strb	r3, [r7, #10]
 296 004a 4FF00203 		mov	r3, #2
 297 004e FB72     		strb	r3, [r7, #11]
 298 0050 4FF00203 		mov	r3, #2
 299 0054 3B73     		strb	r3, [r7, #12]
 300 0056 BB79     		ldrb	r3, [r7, #6]
 301 0058 7B73     		strb	r3, [r7, #13]
  93:.\servo_cds5500.c ****                       
  94:.\servo_cds5500.c ****     msg.instrParams[msg.length - CDS5500_COMPLEMENTARY_BYTES] = CDS5500_GetChecksum(&msg); 
ARM GAS  C:\Users\Martin\AppData\Local\Temp\ccIdUyhf.s 			page 8


 302              		.loc 1 94 0
 303 005a FB7A     		ldrb	r3, [r7, #11]	@ zero_extendqisi2
 304 005c A3F10204 		sub	r4, r3, #2
 305 0060 07F10803 		add	r3, r7, #8
 306 0064 1846     		mov	r0, r3
 307 0066 FFF7FEFF 		bl	CDS5500_GetChecksum
 308 006a 0346     		mov	r3, r0
 309 006c 1A46     		mov	r2, r3
 310 006e 07F11801 		add	r1, r7, #24
 311 0072 01EB0403 		add	r3, r1, r4
 312 0076 03F80B2C 		strb	r2, [r3, #-11]
  95:.\servo_cds5500.c ****     
  96:.\servo_cds5500.c ****     status = BAL_ServoMsg(&msg);  
 313              		.loc 1 96 0
 314 007a 07F10803 		add	r3, r7, #8
 315 007e 1846     		mov	r0, r3
 316 0080 FFF7FEFF 		bl	BAL_ServoMsg
 317 0084 0346     		mov	r3, r0
 318 0086 FB75     		strb	r3, [r7, #23]
  97:.\servo_cds5500.c ****     
  98:.\servo_cds5500.c ****     //Notify upper layer 
  99:.\servo_cds5500.c ****     if (status == SUCCESS)
 319              		.loc 1 99 0
 320 0088 FB7D     		ldrb	r3, [r7, #23]	@ zero_extendqisi2
 321 008a 002B     		cmp	r3, #0
 322 008c 05D1     		bne	.L15
 100:.\servo_cds5500.c ****         MOV_vSetMsgIdResponsePending(ucMotorId, CDS5500_INST_ID_READ);
 323              		.loc 1 100 0
 324 008e FB79     		ldrb	r3, [r7, #7]	@ zero_extendqisi2
 325 0090 1846     		mov	r0, r3
 326 0092 4FF00201 		mov	r1, #2
 327 0096 FFF7FEFF 		bl	MOV_vSetMsgIdResponsePending
 328              	.L15:
 101:.\servo_cds5500.c ****     
 102:.\servo_cds5500.c ****     (void)status;
 103:.\servo_cds5500.c **** }
 329              		.loc 1 103 0
 330 009a 07F11C07 		add	r7, r7, #28
 331 009e BD46     		mov	sp, r7
 332 00a0 90BD     		pop	{r4, r7, pc}
 333              		.cfi_endproc
 334              	.LFE32:
 335              		.size	CDS5500_ReadRequest, .-CDS5500_ReadRequest
 336 00a2 00BF     		.section	.text.CDS5500_Ping,"ax",%progbits
 337              		.align	2
 338              		.global	CDS5500_Ping
 339              		.thumb
 340              		.thumb_func
 341              		.type	CDS5500_Ping, %function
 342              	CDS5500_Ping:
 343              	.LFB33:
 104:.\servo_cds5500.c **** 
 105:.\servo_cds5500.c **** /**************************************************************************
 106:.\servo_cds5500.c **** Does not command any operations. Used for requesting a status 
 107:.\servo_cds5500.c **** packet or to check the existence of a CDS55xx servo with a specific 
 108:.\servo_cds5500.c **** ID. 
 109:.\servo_cds5500.c **** **************************************************************************/
ARM GAS  C:\Users\Martin\AppData\Local\Temp\ccIdUyhf.s 			page 9


 110:.\servo_cds5500.c **** void CDS5500_Ping(uint8 motorId)
 111:.\servo_cds5500.c **** {
 344              		.loc 1 111 0
 345              		.cfi_startproc
 346              		@ args = 0, pretend = 0, frame = 24
 347              		@ frame_needed = 1, uses_anonymous_args = 0
 348 0000 90B5     		push	{r4, r7, lr}
 349              	.LCFI12:
 350              		.cfi_def_cfa_offset 12
 351 0002 87B0     		sub	sp, sp, #28
 352              	.LCFI13:
 353              		.cfi_def_cfa_offset 40
 354 0004 00AF     		add	r7, sp, #0
 355              		.cfi_offset 14, -4
 356              		.cfi_offset 7, -8
 357              		.cfi_offset 4, -12
 358              	.LCFI14:
 359              		.cfi_def_cfa_register 7
 360 0006 0346     		mov	r3, r0
 361 0008 FB71     		strb	r3, [r7, #7]
 112:.\servo_cds5500.c ****     STATUS status;
 113:.\servo_cds5500.c **** 
 114:.\servo_cds5500.c ****     CDS5500_MSG msg = { START_BYTE_0_VALUE, 
 115:.\servo_cds5500.c ****                         START_BYTE_1_VALUE, 
 116:.\servo_cds5500.c ****                         motorId,
 117:.\servo_cds5500.c ****                         CDS5500_MSG_LENGTH_PING,
 118:.\servo_cds5500.c ****                         CDS5500_INST_ID_PING,
 119:.\servo_cds5500.c ****                         {0x00},
 120:.\servo_cds5500.c ****                         0x00,
 121:.\servo_cds5500.c ****                       };
 362              		.loc 1 121 0
 363 000a 07F10803 		add	r3, r7, #8
 364 000e 4FF00002 		mov	r2, #0
 365 0012 1A60     		str	r2, [r3, #0]
 366 0014 03F10403 		add	r3, r3, #4
 367 0018 4FF00002 		mov	r2, #0
 368 001c 1A60     		str	r2, [r3, #0]
 369 001e 03F10403 		add	r3, r3, #4
 370 0022 4FF00002 		mov	r2, #0
 371 0026 1A60     		str	r2, [r3, #0]
 372 0028 03F10403 		add	r3, r3, #4
 373 002c 4FF00002 		mov	r2, #0
 374 0030 1A80     		strh	r2, [r3, #0]	@ movhi
 375 0032 03F10203 		add	r3, r3, #2
 376 0036 4FF0FF33 		mov	r3, #-1
 377 003a 3B72     		strb	r3, [r7, #8]
 378 003c 4FF0FF33 		mov	r3, #-1
 379 0040 7B72     		strb	r3, [r7, #9]
 380 0042 FB79     		ldrb	r3, [r7, #7]
 381 0044 BB72     		strb	r3, [r7, #10]
 382 0046 4FF00203 		mov	r3, #2
 383 004a FB72     		strb	r3, [r7, #11]
 384 004c 4FF00103 		mov	r3, #1
 385 0050 3B73     		strb	r3, [r7, #12]
 122:.\servo_cds5500.c ****     
 123:.\servo_cds5500.c ****     //msg.checksum = CDS5500_GetChecksum(&msg);
 124:.\servo_cds5500.c ****     msg.instrParams[msg.length - CDS5500_COMPLEMENTARY_BYTES] = CDS5500_GetChecksum(&msg);
ARM GAS  C:\Users\Martin\AppData\Local\Temp\ccIdUyhf.s 			page 10


 386              		.loc 1 124 0
 387 0052 FB7A     		ldrb	r3, [r7, #11]	@ zero_extendqisi2
 388 0054 A3F10204 		sub	r4, r3, #2
 389 0058 07F10803 		add	r3, r7, #8
 390 005c 1846     		mov	r0, r3
 391 005e FFF7FEFF 		bl	CDS5500_GetChecksum
 392 0062 0346     		mov	r3, r0
 393 0064 1A46     		mov	r2, r3
 394 0066 07F11801 		add	r1, r7, #24
 395 006a 01EB0403 		add	r3, r1, r4
 396 006e 03F80B2C 		strb	r2, [r3, #-11]
 125:.\servo_cds5500.c ****                 
 126:.\servo_cds5500.c ****     // SB0  SB1  MID  LEN  INID PAR CHKS
 127:.\servo_cds5500.c ****     // 0xFF 0xFF 0x01 0x02 0x01 -   0xFB                 
 128:.\servo_cds5500.c ****     status = BAL_ServoMsg(&msg);
 397              		.loc 1 128 0
 398 0072 07F10803 		add	r3, r7, #8
 399 0076 1846     		mov	r0, r3
 400 0078 FFF7FEFF 		bl	BAL_ServoMsg
 401 007c 0346     		mov	r3, r0
 402 007e FB75     		strb	r3, [r7, #23]
 129:.\servo_cds5500.c **** 
 130:.\servo_cds5500.c ****     (void)status;
 131:.\servo_cds5500.c **** }
 403              		.loc 1 131 0
 404 0080 07F11C07 		add	r7, r7, #28
 405 0084 BD46     		mov	sp, r7
 406 0086 90BD     		pop	{r4, r7, pc}
 407              		.cfi_endproc
 408              	.LFE33:
 409              		.size	CDS5500_Ping, .-CDS5500_Ping
 410              		.section	.text.CDS5500_WritePos,"ax",%progbits
 411              		.align	2
 412              		.global	CDS5500_WritePos
 413              		.thumb
 414              		.thumb_func
 415              		.type	CDS5500_WritePos, %function
 416              	CDS5500_WritePos:
 417              	.LFB34:
 132:.\servo_cds5500.c **** 
 133:.\servo_cds5500.c **** 
 134:.\servo_cds5500.c **** 
 135:.\servo_cds5500.c **** /**************************************************************************/
 136:.\servo_cds5500.c **** void CDS5500_WritePos(int id, int position, int velocity)
 137:.\servo_cds5500.c **** {
 418              		.loc 1 137 0
 419              		.cfi_startproc
 420              		@ args = 0, pretend = 0, frame = 24
 421              		@ frame_needed = 1, uses_anonymous_args = 0
 422              		@ link register save eliminated.
 423 0000 80B4     		push	{r7}
 424              	.LCFI15:
 425              		.cfi_def_cfa_offset 4
 426 0002 87B0     		sub	sp, sp, #28
 427              	.LCFI16:
 428              		.cfi_def_cfa_offset 32
 429 0004 00AF     		add	r7, sp, #0
ARM GAS  C:\Users\Martin\AppData\Local\Temp\ccIdUyhf.s 			page 11


 430              		.cfi_offset 7, -4
 431              	.LCFI17:
 432              		.cfi_def_cfa_register 7
 433 0006 F860     		str	r0, [r7, #12]
 434 0008 B960     		str	r1, [r7, #8]
 435 000a 7A60     		str	r2, [r7, #4]
 138:.\servo_cds5500.c **** 	int messageLength = 7;
 436              		.loc 1 138 0
 437 000c 4FF00703 		mov	r3, #7
 438 0010 7B61     		str	r3, [r7, #20]
 139:.\servo_cds5500.c ****     (void)messageLength;
 140:.\servo_cds5500.c **** 
 141:.\servo_cds5500.c **** 	/*
 142:.\servo_cds5500.c **** 	printf(startByte0);              // send some data
 143:.\servo_cds5500.c **** 	printf(startByte1);
 144:.\servo_cds5500.c **** 	printf(id);
 145:.\servo_cds5500.c **** 	printf(messageLength);
 146:.\servo_cds5500.c **** 	printf(INST_WRITE);
 147:.\servo_cds5500.c **** 	printf(P_GOAL_POSITION_L);
 148:.\servo_cds5500.c **** 	printf(pos);
 149:.\servo_cds5500.c **** 	printf(pos2);
 150:.\servo_cds5500.c **** 	printf(vel);
 151:.\servo_cds5500.c **** 	printf(vel2);
 152:.\servo_cds5500.c **** 	printf((~(ID + (messageLength) + INST_WRITE + P_GOAL_POSITION_L + pos + pos2 + vel + vel2))&0xFF);
 153:.\servo_cds5500.c **** 	*/
 154:.\servo_cds5500.c **** }
 439              		.loc 1 154 0
 440 0012 07F11C07 		add	r7, r7, #28
 441 0016 BD46     		mov	sp, r7
 442 0018 80BC     		pop	{r7}
 443 001a 7047     		bx	lr
 444              		.cfi_endproc
 445              	.LFE34:
 446              		.size	CDS5500_WritePos, .-CDS5500_WritePos
 447              		.section	.text.ServoTest,"ax",%progbits
 448              		.align	2
 449              		.global	ServoTest
 450              		.thumb
 451              		.thumb_func
 452              		.type	ServoTest, %function
 453              	ServoTest:
 454              	.LFB35:
 155:.\servo_cds5500.c **** 
 156:.\servo_cds5500.c **** /**************************************************************************/
 157:.\servo_cds5500.c **** /*
 158:.\servo_cds5500.c **** void CDS5500:: RegWritePos(int ID, int position, int velocity){
 159:.\servo_cds5500.c **** 	int messageLength = 5;
 160:.\servo_cds5500.c **** 	byte pos2 =  position/255;
 161:.\servo_cds5500.c **** 	byte pos =  position%255;	
 162:.\servo_cds5500.c **** 	
 163:.\servo_cds5500.c **** 	byte vel2 =  velocity/255;
 164:.\servo_cds5500.c **** 	byte vel =  velocity%255;
 165:.\servo_cds5500.c **** 
 166:.\servo_cds5500.c **** 	printf(startByte);              // send some data
 167:.\servo_cds5500.c **** 	printf(startByte);
 168:.\servo_cds5500.c **** 	printf(ID);
 169:.\servo_cds5500.c **** 	printf(messageLength);
ARM GAS  C:\Users\Martin\AppData\Local\Temp\ccIdUyhf.s 			page 12


 170:.\servo_cds5500.c **** 	printf(INST_REG_WRITE);
 171:.\servo_cds5500.c **** 	printf(P_GOAL_POSITION_L);
 172:.\servo_cds5500.c **** 	printf(pos);
 173:.\servo_cds5500.c **** 	printf(pos2);
 174:.\servo_cds5500.c **** //	printf(vel);
 175:.\servo_cds5500.c **** //	printf(vel2);
 176:.\servo_cds5500.c **** 	printf((~(ID + (messageLength) + INST_WRITE + P_GOAL_POSITION_L + pos + pos2 + vel + vel2))&0xFF);
 177:.\servo_cds5500.c **** }
 178:.\servo_cds5500.c **** 
 179:.\servo_cds5500.c **** void CDS5500:: RegWriteAction(){
 180:.\servo_cds5500.c **** 	int messageLength = 2;
 181:.\servo_cds5500.c **** 	byte ID =  0xFE; 
 182:.\servo_cds5500.c **** 
 183:.\servo_cds5500.c **** 	printf(startByte);              // send some data
 184:.\servo_cds5500.c **** 	printf(startByte);
 185:.\servo_cds5500.c **** 	printf(ID);
 186:.\servo_cds5500.c **** 	printf(messageLength);
 187:.\servo_cds5500.c **** 	printf(INST_ACTION);
 188:.\servo_cds5500.c **** 	printf((~(ID + (messageLength) + INST_ACTION))&0xFF);
 189:.\servo_cds5500.c **** 
 190:.\servo_cds5500.c **** 
 191:.\servo_cds5500.c **** 
 192:.\servo_cds5500.c **** }
 193:.\servo_cds5500.c **** 
 194:.\servo_cds5500.c **** void CDS5500:: SetID(int ID, int newID){
 195:.\servo_cds5500.c **** 	int messageLength = 4;
 196:.\servo_cds5500.c **** 	printf(startByte);              // send some data
 197:.\servo_cds5500.c **** 	printf(startByte);
 198:.\servo_cds5500.c **** 	printf(ID);
 199:.\servo_cds5500.c **** 	printf(messageLength);
 200:.\servo_cds5500.c **** 	printf(INST_WRITE);
 201:.\servo_cds5500.c **** 	printf(P_ID);
 202:.\servo_cds5500.c **** 	printf(newID);
 203:.\servo_cds5500.c **** 	printf((~(ID + (messageLength) + INST_WRITE+ P_ID + newID))&0xFF);
 204:.\servo_cds5500.c **** }
 205:.\servo_cds5500.c **** 
 206:.\servo_cds5500.c **** void CDS5500:: SetAngleLimit(int ID, int lowerLimit, int upperLimit){
 207:.\servo_cds5500.c **** 	int messageLength = 8;
 208:.\servo_cds5500.c **** 	byte lowerLimitB = lowerLimit%255;
 209:.\servo_cds5500.c **** 	byte lowerLimitS = lowerLimit/255;
 210:.\servo_cds5500.c **** 	byte upperLimitB = upperLimit%255;
 211:.\servo_cds5500.c **** 	byte upperLimitS = upperLimit/255;
 212:.\servo_cds5500.c **** 	printf(startByte);              // send some data
 213:.\servo_cds5500.c **** 	printf(startByte);
 214:.\servo_cds5500.c **** 	printf(ID);
 215:.\servo_cds5500.c **** 	printf(messageLength);
 216:.\servo_cds5500.c **** 	printf(INST_WRITE);
 217:.\servo_cds5500.c **** 	printf(0x08);
 218:.\servo_cds5500.c **** 	printf(upperLimitB);
 219:.\servo_cds5500.c **** 	printf(0x09);
 220:.\servo_cds5500.c **** 	printf(upperLimitS);
 221:.\servo_cds5500.c **** 	printf(0x06);
 222:.\servo_cds5500.c **** 	printf(lowerLimitB);
 223:.\servo_cds5500.c **** 	printf(0x07);
 224:.\servo_cds5500.c **** 	printf(lowerLimitS);	
 225:.\servo_cds5500.c **** 	printf((~(ID + (messageLength) + INST_WRITE+ 0x08 + 0x09 + 0x06 + 0x07 + upperLimitB+ upperLimitS+
 226:.\servo_cds5500.c **** 					 lowerLimitB + lowerLimitS))&0xFF);
ARM GAS  C:\Users\Martin\AppData\Local\Temp\ccIdUyhf.s 			page 13


 227:.\servo_cds5500.c **** }
 228:.\servo_cds5500.c **** 
 229:.\servo_cds5500.c **** //void CDS5500:: SyncWritePos(int[] ID, int[] pos; int[] vel){
 230:.\servo_cds5500.c **** //	int messageLength = ()*sizeof(ID);
 231:.\servo_cds5500.c **** //}
 232:.\servo_cds5500.c **** //
 233:.\servo_cds5500.c **** //
 234:.\servo_cds5500.c **** //void CDS5500:: SyncWritePos(int[] ID, int pos; int vel){
 235:.\servo_cds5500.c **** //	
 236:.\servo_cds5500.c **** //}
 237:.\servo_cds5500.c **** //
 238:.\servo_cds5500.c **** 
 239:.\servo_cds5500.c **** void CDS5500:: tempMethod(){
 240:.\servo_cds5500.c **** 	
 241:.\servo_cds5500.c **** 	printf(startByte);              // send some data
 242:.\servo_cds5500.c **** 	printf(startByte);
 243:.\servo_cds5500.c **** 	printf(0x01);
 244:.\servo_cds5500.c **** 	printf(0x05);
 245:.\servo_cds5500.c **** 	printf(0x03);
 246:.\servo_cds5500.c **** 	printf(0x08);
 247:.\servo_cds5500.c **** 	printf(0xFF);
 248:.\servo_cds5500.c **** 	printf(0x01);
 249:.\servo_cds5500.c **** 	printf(0xF4);
 250:.\servo_cds5500.c **** 	printf(0xef);
 251:.\servo_cds5500.c **** 	
 252:.\servo_cds5500.c **** }
 253:.\servo_cds5500.c **** 
 254:.\servo_cds5500.c **** void CDS5500:: Reset(int ID){
 255:.\servo_cds5500.c **** 	printf(startByte);              // send some data
 256:.\servo_cds5500.c **** 	printf(startByte);
 257:.\servo_cds5500.c **** 	printf(ID);
 258:.\servo_cds5500.c **** 	printf(0x02);
 259:.\servo_cds5500.c **** 	printf(0x06);
 260:.\servo_cds5500.c **** 	printf((~(ID + 0x02 +0x06))&0xFF);
 261:.\servo_cds5500.c **** }
 262:.\servo_cds5500.c **** 
 263:.\servo_cds5500.c **** void CDS5500::SetTempLimit(int ID, int temperature){
 264:.\servo_cds5500.c **** 	printf(startByte);              // send some data
 265:.\servo_cds5500.c **** 	printf(startByte);
 266:.\servo_cds5500.c **** 	printf(ID);
 267:.\servo_cds5500.c **** 	printf(0x04);
 268:.\servo_cds5500.c **** 	printf(0x03);
 269:.\servo_cds5500.c **** 	printf(0x0B);
 270:.\servo_cds5500.c **** 	printf(temperature);
 271:.\servo_cds5500.c **** 	printf((~(ID + 0x04 +0x03 + 0x0B + temperature))&0xFF);
 272:.\servo_cds5500.c **** }
 273:.\servo_cds5500.c **** 
 274:.\servo_cds5500.c **** */
 275:.\servo_cds5500.c **** 
 276:.\servo_cds5500.c **** /**************************************************************************/
 277:.\servo_cds5500.c **** void ServoTest(void)
 278:.\servo_cds5500.c **** {
 455              		.loc 1 278 0
 456              		.cfi_startproc
 457              		@ args = 0, pretend = 0, frame = 8
 458              		@ frame_needed = 1, uses_anonymous_args = 0
 459 0000 80B5     		push	{r7, lr}
ARM GAS  C:\Users\Martin\AppData\Local\Temp\ccIdUyhf.s 			page 14


 460              	.LCFI18:
 461              		.cfi_def_cfa_offset 8
 462 0002 82B0     		sub	sp, sp, #8
 463              	.LCFI19:
 464              		.cfi_def_cfa_offset 16
 465 0004 00AF     		add	r7, sp, #0
 466              		.cfi_offset 14, -4
 467              		.cfi_offset 7, -8
 468              	.LCFI20:
 469              		.cfi_def_cfa_register 7
 279:.\servo_cds5500.c ****     STATUS status;
 280:.\servo_cds5500.c ****     
 281:.\servo_cds5500.c ****     status = SendServoMsg(  CDS5500_SERVO_ID_1,    CDS5500_INST_LENGTH_PING,   CDS5500_INST_ID_PING
 470              		.loc 1 281 0
 471 0006 4FF00100 		mov	r0, #1
 472 000a 4FF00001 		mov	r1, #0
 473 000e 4FF00102 		mov	r2, #1
 474 0012 4FF00003 		mov	r3, #0
 475 0016 FFF7FEFF 		bl	SendServoMsg
 476 001a 0346     		mov	r3, r0
 477 001c FB71     		strb	r3, [r7, #7]
 282:.\servo_cds5500.c ****     /*
 283:.\servo_cds5500.c ****                         HEADER      ID      LENGTH      INSTRUCTION     PARAMETERS
 284:.\servo_cds5500.c ****             SEND:       0XFF 0XFF   0X01    0X02        0X01            0XFB 
 285:.\servo_cds5500.c ****             RETURN:     0XFF 0XFF   0X01    0X02        0X00            0XFC
 286:.\servo_cds5500.c ****     */
 287:.\servo_cds5500.c **** 
 288:.\servo_cds5500.c **** }
 478              		.loc 1 288 0
 479 001e 07F10807 		add	r7, r7, #8
 480 0022 BD46     		mov	sp, r7
 481 0024 80BD     		pop	{r7, pc}
 482              		.cfi_endproc
 483              	.LFE35:
 484              		.size	ServoTest, .-ServoTest
 485 0026 00BF     		.text
 486              	.Letext0: