ARM GAS  C:\Users\Martin\AppData\Local\Temp\cc4ECODm.s 			page 1


   1              		.syntax unified
   2              		.cpu cortex-m3
   3              		.fpu softvfp
   4              		.eabi_attribute 20, 1
   5              		.eabi_attribute 21, 1
   6              		.eabi_attribute 23, 3
   7              		.eabi_attribute 24, 1
   8              		.eabi_attribute 25, 1
   9              		.eabi_attribute 26, 1
  10              		.eabi_attribute 30, 6
  11              		.eabi_attribute 18, 4
  12              		.thumb
  13              		.file	"test.c"
  20 0000 AE000000 		.text
  20      02006D00 
  20      00000201 
  20      FB0E0D00 
  20      01010101 
  21              	.Ltext0:
  22              		.cfi_sections	.debug_frame
  23              		.section	.text.TST_Blink,"ax",%progbits
  24              		.align	2
  25              		.thumb
  26              		.thumb_func
  27              		.type	TST_Blink, %function
  28              	TST_Blink:
  29              	.LFB29:
  30              		.file 1 ".\\test.c"
   1:.\test.c      **** /* Copyright (C) <2014> <Martin Schalk>
   2:.\test.c      ****  * All rights reserved.
   3:.\test.c      ****  *
   4:.\test.c      ****  * This software may be modified and distributed under the terms
   5:.\test.c      ****  * of the BSD license.  See the LICENSE file for details.
   6:.\test.c      ****  */
   7:.\test.c      **** 
   8:.\test.c      **** #include "global.h"
   9:.\test.c      **** #include "types.h"
  10:.\test.c      **** #include "test.h"
  11:.\test.c      **** #include "tmr.h"
  12:.\test.c      **** #include "bpl.h"
  13:.\test.c      **** #include "hal.h"
  14:.\test.c      **** #include "bal.h"
  15:.\test.c      **** #include "move.h"
  16:.\test.c      **** #include "ring_buffer.h"
  17:.\test.c      **** #include "servo_cds5500.h"
  18:.\test.c      **** 
  19:.\test.c      **** #define TST_MSG_BUFFER_SIZE     32
  20:.\test.c      **** #define TST_MSG_ZERO_COUNT      5
  21:.\test.c      **** 
  22:.\test.c      **** 
  23:.\test.c      **** /*******************************************************/
ARM GAS  C:\Users\Martin\AppData\Local\Temp\cc4ECODm.s 			page 2


  24:.\test.c      **** static void TST_Blink(void)
  25:.\test.c      **** {
  31              		.loc 1 25 0
  32              		.cfi_startproc
  33              		@ args = 0, pretend = 0, frame = 0
  34              		@ frame_needed = 1, uses_anonymous_args = 0
  35 0000 80B5     		push	{r7, lr}
  36              	.LCFI0:
  37              		.cfi_def_cfa_offset 8
  38 0002 00AF     		add	r7, sp, #0
  39              		.cfi_offset 14, -4
  40              		.cfi_offset 7, -8
  41              	.LCFI1:
  42              		.cfi_def_cfa_register 7
  26:.\test.c      ****     static uint8 LedVal=0x00;
  27:.\test.c      **** 	LedVal ^= 0x01;
  43              		.loc 1 27 0
  44 0004 40F20003 		movw	r3, #:lower16:LedVal.2966
  45 0008 C0F20003 		movt	r3, #:upper16:LedVal.2966
  46 000c 1B78     		ldrb	r3, [r3, #0]	@ zero_extendqisi2
  47 000e 83F00103 		eor	r3, r3, #1
  48 0012 DAB2     		uxtb	r2, r3
  49 0014 40F20003 		movw	r3, #:lower16:LedVal.2966
  50 0018 C0F20003 		movt	r3, #:upper16:LedVal.2966
  51 001c 1A70     		strb	r2, [r3, #0]
  28:.\test.c      **** 	DEBUG_LED_1_Write(LedVal);
  52              		.loc 1 28 0
  53 001e 40F20003 		movw	r3, #:lower16:LedVal.2966
  54 0022 C0F20003 		movt	r3, #:upper16:LedVal.2966
  55 0026 1B78     		ldrb	r3, [r3, #0]	@ zero_extendqisi2
  56 0028 1846     		mov	r0, r3
  57 002a FFF7FEFF 		bl	DEBUG_LED_1_Write
  29:.\test.c      **** }
  58              		.loc 1 29 0
  59 002e 80BD     		pop	{r7, pc}
  60              		.cfi_endproc
  61              	.LFE29:
  62              		.size	TST_Blink, .-TST_Blink
  63              		.section	.text.TST_Init,"ax",%progbits
  64              		.align	2
  65              		.global	TST_Init
  66              		.thumb
  67              		.thumb_func
  68              		.type	TST_Init, %function
  69              	TST_Init:
  70              	.LFB30:
  30:.\test.c      **** 
  31:.\test.c      **** 
  32:.\test.c      **** /*******************************************************/
  33:.\test.c      **** STATUS TST_Init(void)
  34:.\test.c      **** {
  71              		.loc 1 34 0
  72              		.cfi_startproc
  73              		@ args = 0, pretend = 0, frame = 0
  74              		@ frame_needed = 1, uses_anonymous_args = 0
  75 0000 80B5     		push	{r7, lr}
  76              	.LCFI2:
ARM GAS  C:\Users\Martin\AppData\Local\Temp\cc4ECODm.s 			page 3


  77              		.cfi_def_cfa_offset 8
  78 0002 82B0     		sub	sp, sp, #8
  79              	.LCFI3:
  80              		.cfi_def_cfa_offset 16
  81 0004 02AF     		add	r7, sp, #8
  82              		.cfi_offset 14, -4
  83              		.cfi_offset 7, -8
  84              	.LCFI4:
  85              		.cfi_def_cfa 7, 8
  35:.\test.c      ****     /* clear test msg buffer */
  36:.\test.c      ****     //memset(TST_MsgBuffer, 0x00, TST_MSG_BUFFER_SIZE);   
  37:.\test.c      **** 
  38:.\test.c      **** #ifdef TEST_BLINK
  39:.\test.c      **** 	TMR_SetTimer(TIMER_0, TIMER_1SEC, TST_Blink, TIMER_MODE_CONTINUOUS, TIMER_ENABLED);
  86              		.loc 1 39 0
  87 0006 4FF00103 		mov	r3, #1
  88 000a 0093     		str	r3, [sp, #0]
  89 000c 4FF00000 		mov	r0, #0
  90 0010 44F24021 		movw	r1, #:lower16:1000000
  91 0014 C0F20F01 		movt	r1, #:upper16:1000000
  92 0018 40F20002 		movw	r2, #:lower16:TST_Blink
  93 001c C0F20002 		movt	r2, #:upper16:TST_Blink
  94 0020 4FF00203 		mov	r3, #2
  95 0024 FFF7FEFF 		bl	TMR_SetTimer
  40:.\test.c      **** #endif	
  41:.\test.c      **** 
  42:.\test.c      **** #ifdef BPL_MODULE_TEST
  43:.\test.c      ****     TMR_SetTimer(TIMER_1, 5*TIMER_1SEC, BPL_ucTest, TIMER_MODE_CONTINUOUS, TIMER_ENABLED);
  44:.\test.c      **** #endif
  45:.\test.c      **** 
  46:.\test.c      **** #ifdef BAL_MODULE_TEST
  47:.\test.c      ****     TMR_SetTimer(TIMER_4, TIMER_1SEC, BAL_ModuleTest, TIMER_MODE_CONTINUOUS, TIMER_ENABLED);
  48:.\test.c      **** #endif
  49:.\test.c      **** 
  50:.\test.c      **** #ifdef MOV_MODULE_TEST
  51:.\test.c      ****     TMR_SetTimer(TIMER_5, 3*TIMER_1SEC, MOV_ucTest, TIMER_MODE_CONTINUOUS, TIMER_ENABLED);
  96              		.loc 1 51 0
  97 0028 4FF00103 		mov	r3, #1
  98 002c 0093     		str	r3, [sp, #0]
  99 002e 4FF00500 		mov	r0, #5
 100 0032 4CF2C061 		movw	r1, #:lower16:3000000
 101 0036 C0F22D01 		movt	r1, #:upper16:3000000
 102 003a 40F20002 		movw	r2, #:lower16:MOV_ucTest
 103 003e C0F20002 		movt	r2, #:upper16:MOV_ucTest
 104 0042 4FF00203 		mov	r3, #2
 105 0046 FFF7FEFF 		bl	TMR_SetTimer
  52:.\test.c      **** #endif
  53:.\test.c      **** 
  54:.\test.c      **** 
  55:.\test.c      ****     return SUCCESS;
 106              		.loc 1 55 0
 107 004a 4FF00003 		mov	r3, #0
  56:.\test.c      **** }
 108              		.loc 1 56 0
 109 004e 1846     		mov	r0, r3
 110 0050 BD46     		mov	sp, r7
 111 0052 80BD     		pop	{r7, pc}
ARM GAS  C:\Users\Martin\AppData\Local\Temp\cc4ECODm.s 			page 4


 112              		.cfi_endproc
 113              	.LFE30:
 114              		.size	TST_Init, .-TST_Init
 115              		.section	.text.TST_HandleTask,"ax",%progbits
 116              		.align	2
 117              		.global	TST_HandleTask
 118              		.thumb
 119              		.thumb_func
 120              		.type	TST_HandleTask, %function
 121              	TST_HandleTask:
 122              	.LFB31:
  57:.\test.c      **** 
  58:.\test.c      **** /*******************************************************/
  59:.\test.c      **** STATUS TST_HandleTask(void)
  60:.\test.c      **** {
 123              		.loc 1 60 0
 124              		.cfi_startproc
 125              		@ args = 0, pretend = 0, frame = 8
 126              		@ frame_needed = 1, uses_anonymous_args = 0
 127              		@ link register save eliminated.
 128 0000 80B4     		push	{r7}
 129              	.LCFI5:
 130              		.cfi_def_cfa_offset 4
 131 0002 83B0     		sub	sp, sp, #12
 132              	.LCFI6:
 133              		.cfi_def_cfa_offset 16
 134 0004 00AF     		add	r7, sp, #0
 135              		.cfi_offset 7, -4
 136              	.LCFI7:
 137              		.cfi_def_cfa_register 7
  61:.\test.c      ****     STATUS status = SUCCESS;
 138              		.loc 1 61 0
 139 0006 4FF00003 		mov	r3, #0
 140 000a FB71     		strb	r3, [r7, #7]
  62:.\test.c      ****     
  63:.\test.c      **** #ifdef RBF_MODULE_TEST
  64:.\test.c      ****     status = RBF_ucTest();
  65:.\test.c      **** #endif
  66:.\test.c      ****     
  67:.\test.c      ****     return status;
 141              		.loc 1 67 0
 142 000c FB79     		ldrb	r3, [r7, #7]	@ zero_extendqisi2
  68:.\test.c      **** }
 143              		.loc 1 68 0
 144 000e 1846     		mov	r0, r3
 145 0010 07F10C07 		add	r7, r7, #12
 146 0014 BD46     		mov	sp, r7
 147 0016 80BC     		pop	{r7}
 148 0018 7047     		bx	lr
 149              		.cfi_endproc
 150              	.LFE31:
 151              		.size	TST_HandleTask, .-TST_HandleTask
 152 001a 00BF     		.bss
 153              	LedVal.2966:
 154 0000 00       		.space	1
 155              		.text
 156              	.Letext0:
ARM GAS  C:\Users\Martin\AppData\Local\Temp\cc4ECODm.s 			page 5

