ARM GAS  C:\Users\Martin\AppData\Local\Temp\cc2Vlapm.s 			page 1


   1              		.syntax unified
   2              		.cpu cortex-m3
   3              		.fpu softvfp
   4              		.eabi_attribute 20, 1
   5              		.eabi_attribute 21, 1
   6              		.eabi_attribute 23, 3
   7              		.eabi_attribute 24, 1
   8              		.eabi_attribute 25, 1
   9              		.eabi_attribute 26, 1
  10              		.eabi_attribute 30, 6
  11              		.eabi_attribute 34, 1
  12              		.eabi_attribute 18, 4
  13              		.thumb
  14              		.file	"bpl.c"
  15              		.text
  16              	.Ltext0:
  17              		.cfi_sections	.debug_frame
  18              		.bss
  19              		.align	2
  20              	ReceiveBuffer:
  21 0000 00000000 		.space	256
  21      00000000 
  21      00000000 
  21      00000000 
  21      00000000 
  22              		.align	2
  23              	TransmitBuffer:
  24 0100 00000000 		.space	256
  24      00000000 
  24      00000000 
  24      00000000 
  24      00000000 
  25              	ReceiveCount:
  26 0200 00       		.space	1
  27              	TransmitCount:
  28 0201 00       		.space	1
  29              		.data
  30              		.align	2
  31              		.type	RBHead, %object
  32              		.size	RBHead, 4
  33              	RBHead:
  34 0000 00000000 		.word	ReceiveBuffer
  35              		.align	2
  36              		.type	RBTail, %object
  37              		.size	RBTail, 4
  38              	RBTail:
  39 0004 00000000 		.word	ReceiveBuffer
  40              		.align	2
  41              		.type	TBHead, %object
  42              		.size	TBHead, 4
  43              	TBHead:
  44 0008 00010000 		.word	TransmitBuffer
  45              		.align	2
  46              		.type	TBTail, %object
  47              		.size	TBTail, 4
  48              	TBTail:
  49 000c 00010000 		.word	TransmitBuffer
ARM GAS  C:\Users\Martin\AppData\Local\Temp\cc2Vlapm.s 			page 2


  50              		.bss
  51              	BplStatus:
  52 0202 00       		.space	1
  53 0203 00       		.section	.text.BPL_HandleTask,"ax",%progbits
  54              		.align	2
  55              		.global	BPL_HandleTask
  56              		.thumb
  57              		.thumb_func
  58              		.type	BPL_HandleTask, %function
  59              	BPL_HandleTask:
  60              	.LFB56:
  61              		.file 1 ".\\bpl.c"
   1:.\bpl.c       **** /* Copyright (C) <2014> <Martin Schalk>
   2:.\bpl.c       ****  * All rights reserved.
   3:.\bpl.c       ****  *
   4:.\bpl.c       ****  * This software may be modified and distributed under the terms
   5:.\bpl.c       ****  * of the BSD license.  See the LICENSE file for details.
   6:.\bpl.c       ****  */
   7:.\bpl.c       **** 
   8:.\bpl.c       **** 
   9:.\bpl.c       **** #include <project.h>
  10:.\bpl.c       **** #include "global.h"
  11:.\bpl.c       **** #include <stdio.h>
  12:.\bpl.c       **** 
  13:.\bpl.c       **** #include "hal.h"
  14:.\bpl.c       **** #include "bpl.h"
  15:.\bpl.c       **** 
  16:.\bpl.c       **** /* Ring buffers */
  17:.\bpl.c       **** static uint8 	ReceiveBuffer[RX_BUFFER_SIZE];	//RB
  18:.\bpl.c       **** static uint8 	TransmitBuffer[TX_BUFFER_SIZE];	//TB
  19:.\bpl.c       **** static uint8 	ReceiveCount = 0;
  20:.\bpl.c       **** static uint8 	TransmitCount = 0;
  21:.\bpl.c       **** 
  22:.\bpl.c       **** static uint8* 	RBHead = ReceiveBuffer;
  23:.\bpl.c       **** static uint8* 	RBTail = ReceiveBuffer;
  24:.\bpl.c       **** static uint8* 	TBHead = TransmitBuffer;
  25:.\bpl.c       **** static uint8* 	TBTail = TransmitBuffer;
  26:.\bpl.c       **** 
  27:.\bpl.c       **** static STATUS BplStatus = BPL_STATUS_OK;
  28:.\bpl.c       **** 
  29:.\bpl.c       **** /*******************************************************/
  30:.\bpl.c       **** void BPL_HandleTask(void)
  31:.\bpl.c       **** {
  62              		.loc 1 31 0
  63              		.cfi_startproc
  64              		@ args = 0, pretend = 0, frame = 8
  65              		@ frame_needed = 1, uses_anonymous_args = 0
  66 0000 90B5     		push	{r4, r7, lr}
  67              	.LCFI0:
  68              		.cfi_def_cfa_offset 12
  69              		.cfi_offset 4, -12
  70              		.cfi_offset 7, -8
  71              		.cfi_offset 14, -4
  72 0002 83B0     		sub	sp, sp, #12
  73              	.LCFI1:
  74              		.cfi_def_cfa_offset 24
  75 0004 00AF     		add	r7, sp, #0
ARM GAS  C:\Users\Martin\AppData\Local\Temp\cc2Vlapm.s 			page 3


  76              	.LCFI2:
  77              		.cfi_def_cfa_register 7
  32:.\bpl.c       **** 	uint8 numBytes;
  33:.\bpl.c       **** 	
  34:.\bpl.c       **** 	/* Handle received bytes */
  35:.\bpl.c       **** 	/* --------------------- */
  36:.\bpl.c       **** 	while ((HAL_GetRxIsrCount() > 0) && (BplStatus == BPL_STATUS_OK))
  78              		.loc 1 36 0
  79 0006 52E0     		b	.L2
  80              	.L6:
  37:.\bpl.c       **** 	{
  38:.\bpl.c       **** 		/* check for buffer overflow */
  39:.\bpl.c       **** 		if (RBHead++ > RBTail)
  81              		.loc 1 39 0
  82 0008 40F20003 		movw	r3, #:lower16:RBHead
  83 000c C0F20003 		movt	r3, #:upper16:RBHead
  84 0010 1A68     		ldr	r2, [r3, #0]
  85 0012 40F20003 		movw	r3, #:lower16:RBTail
  86 0016 C0F20003 		movt	r3, #:upper16:RBTail
  87 001a 1B68     		ldr	r3, [r3, #0]
  88 001c 9A42     		cmp	r2, r3
  89 001e 94BF     		ite	ls
  90 0020 0023     		movls	r3, #0
  91 0022 0123     		movhi	r3, #1
  92 0024 D9B2     		uxtb	r1, r3
  93 0026 02F10102 		add	r2, r2, #1
  94 002a 40F20003 		movw	r3, #:lower16:RBHead
  95 002e C0F20003 		movt	r3, #:upper16:RBHead
  96 0032 1A60     		str	r2, [r3, #0]
  97 0034 0029     		cmp	r1, #0
  98 0036 07D0     		beq	.L3
  40:.\bpl.c       **** 		{
  41:.\bpl.c       **** 			BplStatus = BPL_STATUS_RX_BUFFER_FULL;
  99              		.loc 1 41 0
 100 0038 40F20003 		movw	r3, #:lower16:BplStatus
 101 003c C0F20003 		movt	r3, #:upper16:BplStatus
 102 0040 4FF0FF02 		mov	r2, #255
 103 0044 1A70     		strb	r2, [r3, #0]
  42:.\bpl.c       **** 			break;
 104              		.loc 1 42 0
 105 0046 3EE0     		b	.L4
 106              	.L3:
  43:.\bpl.c       **** 		}
  44:.\bpl.c       **** 		/* check if passing end of ring buffer */
  45:.\bpl.c       **** 		if (++RBHead == &ReceiveBuffer[RX_BUFFER_SIZE])
 107              		.loc 1 45 0
 108 0048 40F20003 		movw	r3, #:lower16:RBHead
 109 004c C0F20003 		movt	r3, #:upper16:RBHead
 110 0050 1B68     		ldr	r3, [r3, #0]
 111 0052 03F10102 		add	r2, r3, #1
 112 0056 40F20003 		movw	r3, #:lower16:RBHead
 113 005a C0F20003 		movt	r3, #:upper16:RBHead
 114 005e 1A60     		str	r2, [r3, #0]
 115 0060 40F20003 		movw	r3, #:lower16:RBHead
 116 0064 C0F20003 		movt	r3, #:upper16:RBHead
 117 0068 1A68     		ldr	r2, [r3, #0]
 118 006a 5D4B     		ldr	r3, .L14
ARM GAS  C:\Users\Martin\AppData\Local\Temp\cc2Vlapm.s 			page 4


 119 006c 9A42     		cmp	r2, r3
 120 006e 08D1     		bne	.L5
  46:.\bpl.c       **** 		{
  47:.\bpl.c       **** 			RBHead = &ReceiveBuffer[0];
 121              		.loc 1 47 0
 122 0070 40F20003 		movw	r3, #:lower16:RBHead
 123 0074 C0F20003 		movt	r3, #:upper16:RBHead
 124 0078 40F20002 		movw	r2, #:lower16:ReceiveBuffer
 125 007c C0F20002 		movt	r2, #:upper16:ReceiveBuffer
 126 0080 1A60     		str	r2, [r3, #0]
 127              	.L5:
  48:.\bpl.c       **** 		}
  49:.\bpl.c       **** 
  50:.\bpl.c       **** 		/* copy byte from rx buffer to ring buffer */
  51:.\bpl.c       **** 		*RBHead = HAL_GetByte();
 128              		.loc 1 51 0
 129 0082 40F20003 		movw	r3, #:lower16:RBHead
 130 0086 C0F20003 		movt	r3, #:upper16:RBHead
 131 008a 1C68     		ldr	r4, [r3, #0]
 132 008c FFF7FEFF 		bl	HAL_GetByte
 133 0090 0346     		mov	r3, r0
 134 0092 2370     		strb	r3, [r4, #0]
  52:.\bpl.c       **** 		ReceiveCount++;	
 135              		.loc 1 52 0
 136 0094 40F20003 		movw	r3, #:lower16:ReceiveCount
 137 0098 C0F20003 		movt	r3, #:upper16:ReceiveCount
 138 009c 1B78     		ldrb	r3, [r3, #0]	@ zero_extendqisi2
 139 009e 03F10103 		add	r3, r3, #1
 140 00a2 DAB2     		uxtb	r2, r3
 141 00a4 40F20003 		movw	r3, #:lower16:ReceiveCount
 142 00a8 C0F20003 		movt	r3, #:upper16:ReceiveCount
 143 00ac 1A70     		strb	r2, [r3, #0]
 144              	.L2:
  36:.\bpl.c       **** 	while ((HAL_GetRxIsrCount() > 0) && (BplStatus == BPL_STATUS_OK))
 145              		.loc 1 36 0 discriminator 1
 146 00ae FFF7FEFF 		bl	HAL_GetRxIsrCount
 147 00b2 0346     		mov	r3, r0
 148 00b4 002B     		cmp	r3, #0
 149 00b6 06D0     		beq	.L4
  36:.\bpl.c       **** 	while ((HAL_GetRxIsrCount() > 0) && (BplStatus == BPL_STATUS_OK))
 150              		.loc 1 36 0 is_stmt 0 discriminator 2
 151 00b8 40F20003 		movw	r3, #:lower16:BplStatus
 152 00bc C0F20003 		movt	r3, #:upper16:BplStatus
 153 00c0 1B78     		ldrb	r3, [r3, #0]	@ zero_extendqisi2
 154 00c2 002B     		cmp	r3, #0
 155 00c4 A0D0     		beq	.L6
 156              	.L4:
  53:.\bpl.c       **** 	}
  54:.\bpl.c       **** 
  55:.\bpl.c       **** 	
  56:.\bpl.c       **** 	/* Handle transmission of bytes */
  57:.\bpl.c       **** 	/* ---------------------------- */
  58:.\bpl.c       **** 	if ((TransmitCount > 0) && (BplStatus == BPL_STATUS_OK))
 157              		.loc 1 58 0 is_stmt 1
 158 00c6 40F20003 		movw	r3, #:lower16:TransmitCount
 159 00ca C0F20003 		movt	r3, #:upper16:TransmitCount
 160 00ce 1B78     		ldrb	r3, [r3, #0]	@ zero_extendqisi2
ARM GAS  C:\Users\Martin\AppData\Local\Temp\cc2Vlapm.s 			page 5


 161 00d0 002B     		cmp	r3, #0
 162 00d2 40D0     		beq	.L7
 163              		.loc 1 58 0 is_stmt 0 discriminator 1
 164 00d4 40F20003 		movw	r3, #:lower16:BplStatus
 165 00d8 C0F20003 		movt	r3, #:upper16:BplStatus
 166 00dc 1B78     		ldrb	r3, [r3, #0]	@ zero_extendqisi2
 167 00de 002B     		cmp	r3, #0
 168 00e0 39D1     		bne	.L7
  59:.\bpl.c       **** 	{
  60:.\bpl.c       **** 		numBytes = *TBTail; //message length
 169              		.loc 1 60 0 is_stmt 1
 170 00e2 40F20003 		movw	r3, #:lower16:TBTail
 171 00e6 C0F20003 		movt	r3, #:upper16:TBTail
 172 00ea 1B68     		ldr	r3, [r3, #0]
 173 00ec 1B78     		ldrb	r3, [r3, #0]
 174 00ee FB71     		strb	r3, [r7, #7]
  61:.\bpl.c       **** 		
  62:.\bpl.c       **** 		/* check for buffer overflow */
  63:.\bpl.c       **** 		if (TBTail + numBytes > TBHead)
 175              		.loc 1 63 0
 176 00f0 40F20003 		movw	r3, #:lower16:TBTail
 177 00f4 C0F20003 		movt	r3, #:upper16:TBTail
 178 00f8 1A68     		ldr	r2, [r3, #0]
 179 00fa FB79     		ldrb	r3, [r7, #7]	@ zero_extendqisi2
 180 00fc D218     		adds	r2, r2, r3
 181 00fe 40F20003 		movw	r3, #:lower16:TBHead
 182 0102 C0F20003 		movt	r3, #:upper16:TBHead
 183 0106 1B68     		ldr	r3, [r3, #0]
 184 0108 9A42     		cmp	r2, r3
 185 010a 07D9     		bls	.L8
  64:.\bpl.c       **** 		{
  65:.\bpl.c       **** 			BplStatus = BPL_STATUS_TX_DATA_MISMATCH;
 186              		.loc 1 65 0
 187 010c 40F20003 		movw	r3, #:lower16:BplStatus
 188 0110 C0F20003 		movt	r3, #:upper16:BplStatus
 189 0114 4FF0FD02 		mov	r2, #253
 190 0118 1A70     		strb	r2, [r3, #0]
 191 011a 1CE0     		b	.L7
 192              	.L8:
  66:.\bpl.c       **** 		}
  67:.\bpl.c       **** 		else
  68:.\bpl.c       **** 		{
  69:.\bpl.c       **** 			/* transmit byte */
  70:.\bpl.c       **** 			BplStatus = HAL_TransmitArray(TBTail, numBytes);
 193              		.loc 1 70 0
 194 011c 40F20003 		movw	r3, #:lower16:TBTail
 195 0120 C0F20003 		movt	r3, #:upper16:TBTail
 196 0124 1A68     		ldr	r2, [r3, #0]
 197 0126 FB79     		ldrb	r3, [r7, #7]	@ zero_extendqisi2
 198 0128 1046     		mov	r0, r2
 199 012a 1946     		mov	r1, r3
 200 012c FFF7FEFF 		bl	HAL_TransmitArray
 201 0130 0346     		mov	r3, r0
 202 0132 1A46     		mov	r2, r3
 203 0134 40F20003 		movw	r3, #:lower16:BplStatus
 204 0138 C0F20003 		movt	r3, #:upper16:BplStatus
 205 013c 1A70     		strb	r2, [r3, #0]
ARM GAS  C:\Users\Martin\AppData\Local\Temp\cc2Vlapm.s 			page 6


  71:.\bpl.c       **** 			TBTail += + numBytes;
 206              		.loc 1 71 0
 207 013e 40F20003 		movw	r3, #:lower16:TBTail
 208 0142 C0F20003 		movt	r3, #:upper16:TBTail
 209 0146 1A68     		ldr	r2, [r3, #0]
 210 0148 FB79     		ldrb	r3, [r7, #7]	@ zero_extendqisi2
 211 014a D218     		adds	r2, r2, r3
 212 014c 40F20003 		movw	r3, #:lower16:TBTail
 213 0150 C0F20003 		movt	r3, #:upper16:TBTail
 214 0154 1A60     		str	r2, [r3, #0]
 215              	.L7:
  72:.\bpl.c       **** 		}
  73:.\bpl.c       **** 	}
  74:.\bpl.c       **** 	
  75:.\bpl.c       **** 	
  76:.\bpl.c       **** 	/* Handle errors */
  77:.\bpl.c       **** 	/* ------------- */
  78:.\bpl.c       **** 	switch (BplStatus)
 216              		.loc 1 78 0
 217 0156 40F20003 		movw	r3, #:lower16:BplStatus
 218 015a C0F20003 		movt	r3, #:upper16:BplStatus
 219 015e 1B78     		ldrb	r3, [r3, #0]	@ zero_extendqisi2
 220 0160 FD2B     		cmp	r3, #253
 221 0162 1CD0     		beq	.L10
 222 0164 FF2B     		cmp	r3, #255
 223 0166 35D1     		bne	.L13
 224              	.L11:
  79:.\bpl.c       **** 	{
  80:.\bpl.c       **** 		case BPL_STATUS_RX_BUFFER_FULL:		RBHead = RBTail = ReceiveBuffer;
 225              		.loc 1 80 0
 226 0168 40F20003 		movw	r3, #:lower16:RBTail
 227 016c C0F20003 		movt	r3, #:upper16:RBTail
 228 0170 40F20002 		movw	r2, #:lower16:ReceiveBuffer
 229 0174 C0F20002 		movt	r2, #:upper16:ReceiveBuffer
 230 0178 1A60     		str	r2, [r3, #0]
 231 017a 40F20003 		movw	r3, #:lower16:RBTail
 232 017e C0F20003 		movt	r3, #:upper16:RBTail
 233 0182 1A68     		ldr	r2, [r3, #0]
 234 0184 40F20003 		movw	r3, #:lower16:RBHead
 235 0188 C0F20003 		movt	r3, #:upper16:RBHead
 236 018c 1A60     		str	r2, [r3, #0]
  81:.\bpl.c       **** 											ReceiveCount = 0;
 237              		.loc 1 81 0
 238 018e 40F20003 		movw	r3, #:lower16:ReceiveCount
 239 0192 C0F20003 		movt	r3, #:upper16:ReceiveCount
 240 0196 4FF00002 		mov	r2, #0
 241 019a 1A70     		strb	r2, [r3, #0]
  82:.\bpl.c       **** 											break;
 242              		.loc 1 82 0
 243 019c 1BE0     		b	.L1
 244              	.L10:
  83:.\bpl.c       **** 		case BPL_STATUS_TX_DATA_MISMATCH:	TBHead = TBTail = TransmitBuffer;
 245              		.loc 1 83 0
 246 019e 40F20003 		movw	r3, #:lower16:TBTail
 247 01a2 C0F20003 		movt	r3, #:upper16:TBTail
 248 01a6 40F20002 		movw	r2, #:lower16:TransmitBuffer
 249 01aa C0F20002 		movt	r2, #:upper16:TransmitBuffer
ARM GAS  C:\Users\Martin\AppData\Local\Temp\cc2Vlapm.s 			page 7


 250 01ae 1A60     		str	r2, [r3, #0]
 251 01b0 40F20003 		movw	r3, #:lower16:TBTail
 252 01b4 C0F20003 		movt	r3, #:upper16:TBTail
 253 01b8 1A68     		ldr	r2, [r3, #0]
 254 01ba 40F20003 		movw	r3, #:lower16:TBHead
 255 01be C0F20003 		movt	r3, #:upper16:TBHead
 256 01c2 1A60     		str	r2, [r3, #0]
  84:.\bpl.c       **** 											TransmitCount = 0;
 257              		.loc 1 84 0
 258 01c4 40F20003 		movw	r3, #:lower16:TransmitCount
 259 01c8 C0F20003 		movt	r3, #:upper16:TransmitCount
 260 01cc 4FF00002 		mov	r2, #0
 261 01d0 1A70     		strb	r2, [r3, #0]
  85:.\bpl.c       **** 											break;
 262              		.loc 1 85 0
 263 01d2 00E0     		b	.L1
 264              	.L13:
  86:.\bpl.c       **** 		default:							break;
 265              		.loc 1 86 0
 266 01d4 00BF     		nop
 267              	.L1:
  87:.\bpl.c       **** 	}
  88:.\bpl.c       **** }
 268              		.loc 1 88 0
 269 01d6 07F10C07 		add	r7, r7, #12
 270 01da BD46     		mov	sp, r7
 271 01dc 90BD     		pop	{r4, r7, pc}
 272              	.L15:
 273 01de 00BF     		.align	2
 274              	.L14:
 275 01e0 00010000 		.word	ReceiveBuffer+256
 276              		.cfi_endproc
 277              	.LFE56:
 278              		.size	BPL_HandleTask, .-BPL_HandleTask
 279              		.text
 280              	.Letext0:
 281              		.file 2 "c:\\program files (x86)\\cypress\\psoc creator\\3.0\\psoc creator\\import\\gnu_cs\\arm\\4
 282              		.file 3 "./Generated_Source/PSoC5/cytypes.h"
 283              		.file 4 ".\\types.h"
 284              		.file 5 "./Generated_Source/PSoC5/core_cm3.h"