ARM GAS  C:\Users\Martin\AppData\Local\Temp\ccgFbBgH.s 			page 1


   1              		.syntax unified
   2              		.cpu cortex-m3
   3              		.fpu softvfp
   4              		.eabi_attribute 20, 1
   5              		.eabi_attribute 21, 1
   6              		.eabi_attribute 23, 3
   7              		.eabi_attribute 24, 1
   8              		.eabi_attribute 25, 1
   9              		.eabi_attribute 26, 1
  10              		.eabi_attribute 30, 6
  11              		.eabi_attribute 34, 1
  12              		.eabi_attribute 18, 4
  13              		.thumb
  14              		.file	"test.c"
  15              		.text
  16              	.Ltext0:
  17              		.cfi_sections	.debug_frame
  18              		.data
  19              		.align	2
  20              		.type	TestMsg, %object
  21              		.size	TestMsg, 10
  22              	TestMsg:
  23 0000 00       		.byte	0
  24 0001 01       		.byte	1
  25 0002 02       		.byte	2
  26 0003 03       		.byte	3
  27 0004 00       		.byte	0
  28 0005 04       		.byte	4
  29 0006 05       		.byte	5
  30 0007 06       		.byte	6
  31 0008 07       		.byte	7
  32 0009 00       		.byte	0
  33 000a 0000     		.bss
  34              	LedVal:
  35 0000 00       		.space	1
  36              		.section	.text.TST_SendTestMsg,"ax",%progbits
  37              		.align	2
  38              		.thumb
  39              		.thumb_func
  40              		.type	TST_SendTestMsg, %function
  41              	TST_SendTestMsg:
  42              	.LFB56:
  43              		.file 1 ".\\test.c"
   1:.\test.c      **** /* Copyright (C) <2014> <Martin Schalk>
   2:.\test.c      ****  * All rights reserved.
   3:.\test.c      ****  *
   4:.\test.c      ****  * This software may be modified and distributed under the terms
   5:.\test.c      ****  * of the BSD license.  See the LICENSE file for details.
   6:.\test.c      ****  */
   7:.\test.c      **** 
   8:.\test.c      **** #include "global.h"
   9:.\test.c      **** #include "types.h"
  10:.\test.c      **** #include "test.h"
  11:.\test.c      **** #include "tmr.h"
  12:.\test.c      **** #include "hal.h"
  13:.\test.c      **** 
  14:.\test.c      **** static uint8 TestMsg[] = {0, 1, 2, 3, 0, 4, 5, 6, 7, 0};
ARM GAS  C:\Users\Martin\AppData\Local\Temp\ccgFbBgH.s 			page 2


  15:.\test.c      **** static uint8 LedVal=0x00;
  16:.\test.c      **** 
  17:.\test.c      **** /*******************************************************/
  18:.\test.c      **** static void TST_SendTestMsg(void)
  19:.\test.c      **** {
  44              		.loc 1 19 0
  45              		.cfi_startproc
  46              		@ args = 0, pretend = 0, frame = 0
  47              		@ frame_needed = 1, uses_anonymous_args = 0
  48 0000 80B5     		push	{r7, lr}
  49              	.LCFI0:
  50              		.cfi_def_cfa_offset 8
  51              		.cfi_offset 7, -8
  52              		.cfi_offset 14, -4
  53 0002 00AF     		add	r7, sp, #0
  54              	.LCFI1:
  55              		.cfi_def_cfa_register 7
  20:.\test.c      **** 	UART_PutArray(TestMsg, 10);
  56              		.loc 1 20 0
  57 0004 40F20000 		movw	r0, #:lower16:TestMsg
  58 0008 C0F20000 		movt	r0, #:upper16:TestMsg
  59 000c 4FF00A01 		mov	r1, #10
  60 0010 FFF7FEFF 		bl	UART_PutArray
  21:.\test.c      **** }
  61              		.loc 1 21 0
  62 0014 80BD     		pop	{r7, pc}
  63              		.cfi_endproc
  64              	.LFE56:
  65              		.size	TST_SendTestMsg, .-TST_SendTestMsg
  66 0016 00BF     		.section	.text.TST_Blink,"ax",%progbits
  67              		.align	2
  68              		.thumb
  69              		.thumb_func
  70              		.type	TST_Blink, %function
  71              	TST_Blink:
  72              	.LFB57:
  22:.\test.c      **** 
  23:.\test.c      **** /*******************************************************/
  24:.\test.c      **** static void TST_Blink(void)
  25:.\test.c      **** {
  73              		.loc 1 25 0
  74              		.cfi_startproc
  75              		@ args = 0, pretend = 0, frame = 0
  76              		@ frame_needed = 1, uses_anonymous_args = 0
  77 0000 80B5     		push	{r7, lr}
  78              	.LCFI2:
  79              		.cfi_def_cfa_offset 8
  80              		.cfi_offset 7, -8
  81              		.cfi_offset 14, -4
  82 0002 00AF     		add	r7, sp, #0
  83              	.LCFI3:
  84              		.cfi_def_cfa_register 7
  26:.\test.c      **** 	LedVal ^= 0x01;
  85              		.loc 1 26 0
  86 0004 40F20003 		movw	r3, #:lower16:LedVal
  87 0008 C0F20003 		movt	r3, #:upper16:LedVal
  88 000c 1B78     		ldrb	r3, [r3, #0]	@ zero_extendqisi2
ARM GAS  C:\Users\Martin\AppData\Local\Temp\ccgFbBgH.s 			page 3


  89 000e 83F00103 		eor	r3, r3, #1
  90 0012 DAB2     		uxtb	r2, r3
  91 0014 40F20003 		movw	r3, #:lower16:LedVal
  92 0018 C0F20003 		movt	r3, #:upper16:LedVal
  93 001c 1A70     		strb	r2, [r3, #0]
  27:.\test.c      **** 	DEBUG_LED_1_Write(LedVal);
  94              		.loc 1 27 0
  95 001e 40F20003 		movw	r3, #:lower16:LedVal
  96 0022 C0F20003 		movt	r3, #:upper16:LedVal
  97 0026 1B78     		ldrb	r3, [r3, #0]	@ zero_extendqisi2
  98 0028 1846     		mov	r0, r3
  99 002a FFF7FEFF 		bl	DEBUG_LED_1_Write
  28:.\test.c      **** }
 100              		.loc 1 28 0
 101 002e 80BD     		pop	{r7, pc}
 102              		.cfi_endproc
 103              	.LFE57:
 104              		.size	TST_Blink, .-TST_Blink
 105              		.section	.text.TST_Init,"ax",%progbits
 106              		.align	2
 107              		.global	TST_Init
 108              		.thumb
 109              		.thumb_func
 110              		.type	TST_Init, %function
 111              	TST_Init:
 112              	.LFB58:
  29:.\test.c      **** 
  30:.\test.c      **** /*******************************************************/
  31:.\test.c      **** void TST_Init(void)
  32:.\test.c      **** {
 113              		.loc 1 32 0
 114              		.cfi_startproc
 115              		@ args = 0, pretend = 0, frame = 0
 116              		@ frame_needed = 1, uses_anonymous_args = 0
 117 0000 80B5     		push	{r7, lr}
 118              	.LCFI4:
 119              		.cfi_def_cfa_offset 8
 120              		.cfi_offset 7, -8
 121              		.cfi_offset 14, -4
 122 0002 82B0     		sub	sp, sp, #8
 123              	.LCFI5:
 124              		.cfi_def_cfa_offset 16
 125 0004 02AF     		add	r7, sp, #8
 126              	.LCFI6:
 127              		.cfi_def_cfa 7, 8
  33:.\test.c      **** #ifdef TEST_BLINK
  34:.\test.c      **** 	TMR_SetTimer(TIMER_0, TIMER_1SEC, TST_Blink, TIMER_MODE_CONTINUOUS, TIMER_ENABLED);
 128              		.loc 1 34 0
 129 0006 4FF00103 		mov	r3, #1
 130 000a 0093     		str	r3, [sp, #0]
 131 000c 4FF00000 		mov	r0, #0
 132 0010 44F24021 		movw	r1, #16960
 133 0014 C0F20F01 		movt	r1, 15
 134 0018 40F20002 		movw	r2, #:lower16:TST_Blink
 135 001c C0F20002 		movt	r2, #:upper16:TST_Blink
 136 0020 4FF00203 		mov	r3, #2
 137 0024 FFF7FEFF 		bl	TMR_SetTimer
ARM GAS  C:\Users\Martin\AppData\Local\Temp\ccgFbBgH.s 			page 4


  35:.\test.c      **** #endif	
  36:.\test.c      **** 	
  37:.\test.c      **** #ifdef TEST_UART
  38:.\test.c      **** 	UART_TEST_Start();
 138              		.loc 1 38 0
 139 0028 FFF7FEFF 		bl	UART_TEST_Start
  39:.\test.c      **** 	//UART_EnableRxInt();
  40:.\test.c      **** 	//UART_EnableTxInt();
  41:.\test.c      **** 	TMR_SetTimer(TIMER_1, TIMER_10SEC, TST_SendTestMsg, TIMER_MODE_CONTINUOUS, TIMER_ENABLED);
 140              		.loc 1 41 0
 141 002c 4FF00103 		mov	r3, #1
 142 0030 0093     		str	r3, [sp, #0]
 143 0032 4FF00100 		mov	r0, #1
 144 0036 49F28061 		movw	r1, #38528
 145 003a C0F29801 		movt	r1, 152
 146 003e 40F20002 		movw	r2, #:lower16:TST_SendTestMsg
 147 0042 C0F20002 		movt	r2, #:upper16:TST_SendTestMsg
 148 0046 4FF00203 		mov	r3, #2
 149 004a FFF7FEFF 		bl	TMR_SetTimer
  42:.\test.c      **** #endif
  43:.\test.c      **** }
 150              		.loc 1 43 0
 151 004e BD46     		mov	sp, r7
 152 0050 80BD     		pop	{r7, pc}
 153              		.cfi_endproc
 154              	.LFE58:
 155              		.size	TST_Init, .-TST_Init
 156 0052 00BF     		.text
 157              	.Letext0:
 158              		.file 2 "c:\\program files (x86)\\cypress\\psoc creator\\3.0\\psoc creator\\import\\gnu_cs\\arm\\4
 159              		.file 3 "./Generated_Source/PSoC5/cytypes.h"
 160              		.file 4 "./Generated_Source/PSoC5/core_cm3.h"