ARM GAS  C:\Users\Martin\AppData\Local\Temp\cciSWvJA.s 			page 1


   1              		.syntax unified
   2              		.cpu cortex-m3
   3              		.fpu softvfp
   4              		.eabi_attribute 20, 1
   5              		.eabi_attribute 21, 1
   6              		.eabi_attribute 23, 3
   7              		.eabi_attribute 24, 1
   8              		.eabi_attribute 25, 1
   9              		.eabi_attribute 26, 1
  10              		.eabi_attribute 30, 6
  11              		.eabi_attribute 34, 1
  12              		.eabi_attribute 18, 4
  13              		.thumb
  14              		.file	"TIMER.c"
  15              		.text
  16              	.Ltext0:
  17              		.cfi_sections	.debug_frame
  18              		.global	TIMER_initVar
  19              		.bss
  20              		.type	TIMER_initVar, %object
  21              		.size	TIMER_initVar, 1
  22              	TIMER_initVar:
  23 0000 00       		.space	1
  24              		.section	.text.TIMER_Init,"ax",%progbits
  25              		.align	2
  26              		.global	TIMER_Init
  27              		.thumb
  28              		.thumb_func
  29              		.type	TIMER_Init, %function
  30              	TIMER_Init:
  31              	.LFB0:
  32              		.file 1 ".\\Generated_Source\\PSoC5\\TIMER.c"
   1:.\Generated_Source\PSoC5/TIMER.c **** /*******************************************************************************
   2:.\Generated_Source\PSoC5/TIMER.c **** * File Name: TIMER.c
   3:.\Generated_Source\PSoC5/TIMER.c **** * Version 2.50
   4:.\Generated_Source\PSoC5/TIMER.c **** *
   5:.\Generated_Source\PSoC5/TIMER.c **** * Description:
   6:.\Generated_Source\PSoC5/TIMER.c **** *  The Timer component consists of a 8, 16, 24 or 32-bit timer with
   7:.\Generated_Source\PSoC5/TIMER.c **** *  a selectable period between 2 and 2^Width - 1.  The timer may free run
   8:.\Generated_Source\PSoC5/TIMER.c **** *  or be used as a capture timer as well.  The capture can be initiated
   9:.\Generated_Source\PSoC5/TIMER.c **** *  by a positive or negative edge signal as well as via software.
  10:.\Generated_Source\PSoC5/TIMER.c **** *  A trigger input can be programmed to enable the timer on rising edge
  11:.\Generated_Source\PSoC5/TIMER.c **** *  falling edge, either edge or continous run.
  12:.\Generated_Source\PSoC5/TIMER.c **** *  Interrupts may be generated due to a terminal count condition
  13:.\Generated_Source\PSoC5/TIMER.c **** *  or a capture event.
  14:.\Generated_Source\PSoC5/TIMER.c **** *
  15:.\Generated_Source\PSoC5/TIMER.c **** * Note:
  16:.\Generated_Source\PSoC5/TIMER.c **** *
  17:.\Generated_Source\PSoC5/TIMER.c **** ********************************************************************************
  18:.\Generated_Source\PSoC5/TIMER.c **** * Copyright 2008-2012, Cypress Semiconductor Corporation.  All rights reserved.
  19:.\Generated_Source\PSoC5/TIMER.c **** * You may use this file only in accordance with the license, terms, conditions,
  20:.\Generated_Source\PSoC5/TIMER.c **** * disclaimers, and limitations in the end user license agreement accompanying
  21:.\Generated_Source\PSoC5/TIMER.c **** * the software package with which this file was provided.
  22:.\Generated_Source\PSoC5/TIMER.c **** ********************************************************************************/
  23:.\Generated_Source\PSoC5/TIMER.c **** 
  24:.\Generated_Source\PSoC5/TIMER.c **** #include "TIMER.h"
  25:.\Generated_Source\PSoC5/TIMER.c **** 
ARM GAS  C:\Users\Martin\AppData\Local\Temp\cciSWvJA.s 			page 2


  26:.\Generated_Source\PSoC5/TIMER.c **** uint8 TIMER_initVar = 0u;
  27:.\Generated_Source\PSoC5/TIMER.c **** 
  28:.\Generated_Source\PSoC5/TIMER.c **** 
  29:.\Generated_Source\PSoC5/TIMER.c **** /*******************************************************************************
  30:.\Generated_Source\PSoC5/TIMER.c **** * Function Name: TIMER_Init
  31:.\Generated_Source\PSoC5/TIMER.c **** ********************************************************************************
  32:.\Generated_Source\PSoC5/TIMER.c **** *
  33:.\Generated_Source\PSoC5/TIMER.c **** * Summary:
  34:.\Generated_Source\PSoC5/TIMER.c **** *  Initialize to the schematic state
  35:.\Generated_Source\PSoC5/TIMER.c **** *
  36:.\Generated_Source\PSoC5/TIMER.c **** * Parameters:
  37:.\Generated_Source\PSoC5/TIMER.c **** *  void
  38:.\Generated_Source\PSoC5/TIMER.c **** *
  39:.\Generated_Source\PSoC5/TIMER.c **** * Return:
  40:.\Generated_Source\PSoC5/TIMER.c **** *  void
  41:.\Generated_Source\PSoC5/TIMER.c **** *
  42:.\Generated_Source\PSoC5/TIMER.c **** *******************************************************************************/
  43:.\Generated_Source\PSoC5/TIMER.c **** void TIMER_Init(void) 
  44:.\Generated_Source\PSoC5/TIMER.c **** {
  33              		.loc 1 44 0
  34              		.cfi_startproc
  35              		@ args = 0, pretend = 0, frame = 8
  36              		@ frame_needed = 1, uses_anonymous_args = 0
  37 0000 80B5     		push	{r7, lr}
  38              	.LCFI0:
  39              		.cfi_def_cfa_offset 8
  40              		.cfi_offset 7, -8
  41              		.cfi_offset 14, -4
  42 0002 82B0     		sub	sp, sp, #8
  43              	.LCFI1:
  44              		.cfi_def_cfa_offset 16
  45 0004 00AF     		add	r7, sp, #0
  46              	.LCFI2:
  47              		.cfi_def_cfa_register 7
  45:.\Generated_Source\PSoC5/TIMER.c ****     #if(!TIMER_UsingFixedFunction)
  46:.\Generated_Source\PSoC5/TIMER.c ****             /* Interrupt State Backup for Critical Region*/
  47:.\Generated_Source\PSoC5/TIMER.c ****             uint8 TIMER_interruptState;
  48:.\Generated_Source\PSoC5/TIMER.c ****     #endif /* Interrupt state back up for Fixed Function only */
  49:.\Generated_Source\PSoC5/TIMER.c **** 
  50:.\Generated_Source\PSoC5/TIMER.c ****     #if (TIMER_UsingFixedFunction)
  51:.\Generated_Source\PSoC5/TIMER.c ****         /* Clear all bits but the enable bit (if it's already set) for Timer operation */
  52:.\Generated_Source\PSoC5/TIMER.c ****         TIMER_CONTROL &= TIMER_CTRL_ENABLE;
  53:.\Generated_Source\PSoC5/TIMER.c **** 
  54:.\Generated_Source\PSoC5/TIMER.c ****         /* Clear the mode bits for continuous run mode */
  55:.\Generated_Source\PSoC5/TIMER.c ****         #if (CY_PSOC5A)
  56:.\Generated_Source\PSoC5/TIMER.c ****             TIMER_CONTROL2 &= ((uint8)(~TIMER_CTRL_MODE_MASK));
  57:.\Generated_Source\PSoC5/TIMER.c ****         #endif /* Clear bits in CONTROL2 only in PSOC5A */
  58:.\Generated_Source\PSoC5/TIMER.c **** 
  59:.\Generated_Source\PSoC5/TIMER.c ****         #if (CY_PSOC3 || CY_PSOC5LP)
  60:.\Generated_Source\PSoC5/TIMER.c ****             TIMER_CONTROL3 &= ((uint8)(~TIMER_CTRL_MODE_MASK));
  61:.\Generated_Source\PSoC5/TIMER.c ****         #endif /* CONTROL3 register exists only in PSoC3 OR PSoC5LP */
  62:.\Generated_Source\PSoC5/TIMER.c **** 
  63:.\Generated_Source\PSoC5/TIMER.c ****         /* Check if One Shot mode is enabled i.e. RunMode !=0*/
  64:.\Generated_Source\PSoC5/TIMER.c ****         #if (TIMER_RunModeUsed != 0x0u)
  65:.\Generated_Source\PSoC5/TIMER.c ****             /* Set 3rd bit of Control register to enable one shot mode */
  66:.\Generated_Source\PSoC5/TIMER.c ****             TIMER_CONTROL |= 0x04u;
  67:.\Generated_Source\PSoC5/TIMER.c ****         #endif /* One Shot enabled only when RunModeUsed is not Continuous*/
ARM GAS  C:\Users\Martin\AppData\Local\Temp\cciSWvJA.s 			page 3


  68:.\Generated_Source\PSoC5/TIMER.c **** 
  69:.\Generated_Source\PSoC5/TIMER.c ****         #if (TIMER_RunModeUsed == 2)
  70:.\Generated_Source\PSoC5/TIMER.c ****             #if (CY_PSOC5A)
  71:.\Generated_Source\PSoC5/TIMER.c ****                 /* Set last 2 bits of control2 register if one shot(halt on
  72:.\Generated_Source\PSoC5/TIMER.c ****                 interrupt) is enabled*/
  73:.\Generated_Source\PSoC5/TIMER.c ****                 TIMER_CONTROL2 |= 0x03u;
  74:.\Generated_Source\PSoC5/TIMER.c ****             #endif /* Set One-Shot Halt on Interrupt bit in CONTROL2 for PSoC5A */
  75:.\Generated_Source\PSoC5/TIMER.c **** 
  76:.\Generated_Source\PSoC5/TIMER.c ****             #if (CY_PSOC3 || CY_PSOC5LP)
  77:.\Generated_Source\PSoC5/TIMER.c ****                 /* Set last 2 bits of control3 register if one shot(halt on
  78:.\Generated_Source\PSoC5/TIMER.c ****                 interrupt) is enabled*/
  79:.\Generated_Source\PSoC5/TIMER.c ****                 TIMER_CONTROL3 |= 0x03u;
  80:.\Generated_Source\PSoC5/TIMER.c ****             #endif /* Set One-Shot Halt on Interrupt bit in CONTROL3 for PSoC3 or PSoC5LP */
  81:.\Generated_Source\PSoC5/TIMER.c **** 
  82:.\Generated_Source\PSoC5/TIMER.c ****         #endif /* Remove section if One Shot Halt on Interrupt is not enabled */
  83:.\Generated_Source\PSoC5/TIMER.c **** 
  84:.\Generated_Source\PSoC5/TIMER.c ****         #if (TIMER_UsingHWEnable != 0)
  85:.\Generated_Source\PSoC5/TIMER.c ****             #if (CY_PSOC5A)
  86:.\Generated_Source\PSoC5/TIMER.c ****                 /* Set the default Run Mode of the Timer to Continuous */
  87:.\Generated_Source\PSoC5/TIMER.c ****                 TIMER_CONTROL2 |= TIMER_CTRL_MODE_PULSEWIDTH;
  88:.\Generated_Source\PSoC5/TIMER.c ****             #endif /* Set Continuous Run Mode in CONTROL2 for PSoC5A */
  89:.\Generated_Source\PSoC5/TIMER.c **** 
  90:.\Generated_Source\PSoC5/TIMER.c ****             #if (CY_PSOC3 || CY_PSOC5LP)
  91:.\Generated_Source\PSoC5/TIMER.c ****                 /* Clear and Set ROD and COD bits of CFG2 register */
  92:.\Generated_Source\PSoC5/TIMER.c ****                 TIMER_CONTROL3 &= ((uint8)(~TIMER_CTRL_RCOD_MASK));
  93:.\Generated_Source\PSoC5/TIMER.c ****                 TIMER_CONTROL3 |= TIMER_CTRL_RCOD;
  94:.\Generated_Source\PSoC5/TIMER.c **** 
  95:.\Generated_Source\PSoC5/TIMER.c ****                 /* Clear and Enable the HW enable bit in CFG2 register */
  96:.\Generated_Source\PSoC5/TIMER.c ****                 TIMER_CONTROL3 &= ((uint8)(~TIMER_CTRL_ENBL_MASK));
  97:.\Generated_Source\PSoC5/TIMER.c ****                 TIMER_CONTROL3 |= TIMER_CTRL_ENBL;
  98:.\Generated_Source\PSoC5/TIMER.c **** 
  99:.\Generated_Source\PSoC5/TIMER.c ****                 /* Set the default Run Mode of the Timer to Continuous */
 100:.\Generated_Source\PSoC5/TIMER.c ****                 TIMER_CONTROL3 |= TIMER_CTRL_MODE_CONTINUOUS;
 101:.\Generated_Source\PSoC5/TIMER.c ****             #endif /* Set Continuous Run Mode in CONTROL3 for PSoC3ES3 or PSoC5A */
 102:.\Generated_Source\PSoC5/TIMER.c **** 
 103:.\Generated_Source\PSoC5/TIMER.c ****         #endif /* Configure Run Mode with hardware enable */
 104:.\Generated_Source\PSoC5/TIMER.c **** 
 105:.\Generated_Source\PSoC5/TIMER.c ****         /* Clear and Set SYNCTC and SYNCCMP bits of RT1 register */
 106:.\Generated_Source\PSoC5/TIMER.c ****         TIMER_RT1 &= ((uint8)(~TIMER_RT1_MASK));
 107:.\Generated_Source\PSoC5/TIMER.c ****         TIMER_RT1 |= TIMER_SYNC;
 108:.\Generated_Source\PSoC5/TIMER.c **** 
 109:.\Generated_Source\PSoC5/TIMER.c ****         /*Enable DSI Sync all all inputs of the Timer*/
 110:.\Generated_Source\PSoC5/TIMER.c ****         TIMER_RT1 &= ((uint8)(~TIMER_SYNCDSI_MASK));
 111:.\Generated_Source\PSoC5/TIMER.c ****         TIMER_RT1 |= TIMER_SYNCDSI_EN;
 112:.\Generated_Source\PSoC5/TIMER.c **** 
 113:.\Generated_Source\PSoC5/TIMER.c ****         /* Set the IRQ to use the status register interrupts */
 114:.\Generated_Source\PSoC5/TIMER.c ****         TIMER_CONTROL2 |= TIMER_CTRL2_IRQ_SEL;
 115:.\Generated_Source\PSoC5/TIMER.c ****     #endif /* Configuring registers of fixed function implementation */
 116:.\Generated_Source\PSoC5/TIMER.c **** 
 117:.\Generated_Source\PSoC5/TIMER.c ****     /* Set Initial values from Configuration */
 118:.\Generated_Source\PSoC5/TIMER.c ****     TIMER_WritePeriod(TIMER_INIT_PERIOD);
  48              		.loc 1 118 0
  49 0006 4CF6FF10 		movw	r0, #51711
  50 000a C3F69A30 		movt	r0, 15258
  51 000e FFF7FEFF 		bl	TIMER_WritePeriod
 119:.\Generated_Source\PSoC5/TIMER.c ****     TIMER_WriteCounter(TIMER_INIT_PERIOD);
  52              		.loc 1 119 0
ARM GAS  C:\Users\Martin\AppData\Local\Temp\cciSWvJA.s 			page 4


  53 0012 4CF6FF10 		movw	r0, #51711
  54 0016 C3F69A30 		movt	r0, 15258
  55 001a FFF7FEFF 		bl	TIMER_WriteCounter
 120:.\Generated_Source\PSoC5/TIMER.c **** 
 121:.\Generated_Source\PSoC5/TIMER.c ****     #if (TIMER_UsingHWCaptureCounter)/* Capture counter is enabled */
 122:.\Generated_Source\PSoC5/TIMER.c ****         TIMER_CAPTURE_COUNT_CTRL |= TIMER_CNTR_ENABLE;
 123:.\Generated_Source\PSoC5/TIMER.c ****         TIMER_SetCaptureCount(TIMER_INIT_CAPTURE_COUNT);
 124:.\Generated_Source\PSoC5/TIMER.c ****     #endif /* Configure capture counter value */
 125:.\Generated_Source\PSoC5/TIMER.c **** 
 126:.\Generated_Source\PSoC5/TIMER.c ****     #if (!TIMER_UsingFixedFunction)
 127:.\Generated_Source\PSoC5/TIMER.c ****         #if (TIMER_SoftwareCaptureMode)
 128:.\Generated_Source\PSoC5/TIMER.c ****             TIMER_SetCaptureMode(TIMER_INIT_CAPTURE_MODE);
 129:.\Generated_Source\PSoC5/TIMER.c ****         #endif /* Set Capture Mode for UDB implementation if capture mode is software controlled */
 130:.\Generated_Source\PSoC5/TIMER.c **** 
 131:.\Generated_Source\PSoC5/TIMER.c ****         #if (TIMER_SoftwareTriggerMode)
 132:.\Generated_Source\PSoC5/TIMER.c ****             if (0u == (TIMER_CONTROL & TIMER__B_TIMER__TM_SOFTWARE))
 133:.\Generated_Source\PSoC5/TIMER.c ****             {
 134:.\Generated_Source\PSoC5/TIMER.c ****                 TIMER_SetTriggerMode(TIMER_INIT_TRIGGER_MODE);
 135:.\Generated_Source\PSoC5/TIMER.c ****             }
 136:.\Generated_Source\PSoC5/TIMER.c ****         #endif /* Set trigger mode for UDB Implementation if trigger mode is software controlled */
 137:.\Generated_Source\PSoC5/TIMER.c **** 
 138:.\Generated_Source\PSoC5/TIMER.c ****         /* CyEnterCriticalRegion and CyExitCriticalRegion are used to mark following region critica
 139:.\Generated_Source\PSoC5/TIMER.c ****         /* Enter Critical Region*/
 140:.\Generated_Source\PSoC5/TIMER.c ****         TIMER_interruptState = CyEnterCriticalSection();
  56              		.loc 1 140 0
  57 001e FFF7FEFF 		bl	CyEnterCriticalSection
  58 0022 0346     		mov	r3, r0
  59 0024 FB71     		strb	r3, [r7, #7]
 141:.\Generated_Source\PSoC5/TIMER.c **** 
 142:.\Generated_Source\PSoC5/TIMER.c ****         /* Use the interrupt output of the status register for IRQ output */
 143:.\Generated_Source\PSoC5/TIMER.c ****         TIMER_STATUS_AUX_CTRL |= TIMER_STATUS_ACTL_INT_EN_MASK;
  60              		.loc 1 143 0
  61 0026 46F29753 		movw	r3, #26007
  62 002a C4F20003 		movt	r3, 16384
  63 002e 46F29752 		movw	r2, #26007
  64 0032 C4F20002 		movt	r2, 16384
  65 0036 1278     		ldrb	r2, [r2, #0]
  66 0038 D2B2     		uxtb	r2, r2
  67 003a 42F01002 		orr	r2, r2, #16
  68 003e D2B2     		uxtb	r2, r2
  69 0040 1A70     		strb	r2, [r3, #0]
 144:.\Generated_Source\PSoC5/TIMER.c **** 
 145:.\Generated_Source\PSoC5/TIMER.c ****         /* Exit Critical Region*/
 146:.\Generated_Source\PSoC5/TIMER.c ****         CyExitCriticalSection(TIMER_interruptState);
  70              		.loc 1 146 0
  71 0042 FB79     		ldrb	r3, [r7, #7]	@ zero_extendqisi2
  72 0044 1846     		mov	r0, r3
  73 0046 FFF7FEFF 		bl	CyExitCriticalSection
 147:.\Generated_Source\PSoC5/TIMER.c **** 
 148:.\Generated_Source\PSoC5/TIMER.c ****         #if (TIMER_EnableTriggerMode)
 149:.\Generated_Source\PSoC5/TIMER.c ****             TIMER_EnableTrigger();
 150:.\Generated_Source\PSoC5/TIMER.c ****         #endif /* Set Trigger enable bit for UDB implementation in the control register*/
 151:.\Generated_Source\PSoC5/TIMER.c **** 
 152:.\Generated_Source\PSoC5/TIMER.c ****         #if (TIMER_InterruptOnCaptureCount)
 153:.\Generated_Source\PSoC5/TIMER.c ****              #if (!TIMER_ControlRegRemoved)
 154:.\Generated_Source\PSoC5/TIMER.c ****                 TIMER_SetInterruptCount(TIMER_INIT_INT_CAPTURE_COUNT);
 155:.\Generated_Source\PSoC5/TIMER.c ****             #endif /* Set interrupt count in control register if control register is not removed */
ARM GAS  C:\Users\Martin\AppData\Local\Temp\cciSWvJA.s 			page 5


 156:.\Generated_Source\PSoC5/TIMER.c ****         #endif /*Set interrupt count in UDB implementation if interrupt count feature is checked.*/
 157:.\Generated_Source\PSoC5/TIMER.c **** 
 158:.\Generated_Source\PSoC5/TIMER.c ****         TIMER_ClearFIFO();
  74              		.loc 1 158 0
  75 004a FFF7FEFF 		bl	TIMER_ClearFIFO
 159:.\Generated_Source\PSoC5/TIMER.c ****     #endif /* Configure additional features of UDB implementation */
 160:.\Generated_Source\PSoC5/TIMER.c **** 
 161:.\Generated_Source\PSoC5/TIMER.c ****     TIMER_SetInterruptMode(TIMER_INIT_INTERRUPT_MODE);
  76              		.loc 1 161 0
  77 004e 4FF00100 		mov	r0, #1
  78 0052 FFF7FEFF 		bl	TIMER_SetInterruptMode
 162:.\Generated_Source\PSoC5/TIMER.c **** }
  79              		.loc 1 162 0
  80 0056 07F10807 		add	r7, r7, #8
  81 005a BD46     		mov	sp, r7
  82 005c 80BD     		pop	{r7, pc}
  83              		.cfi_endproc
  84              	.LFE0:
  85              		.size	TIMER_Init, .-TIMER_Init
  86 005e 00BF     		.section	.text.TIMER_Enable,"ax",%progbits
  87              		.align	2
  88              		.global	TIMER_Enable
  89              		.thumb
  90              		.thumb_func
  91              		.type	TIMER_Enable, %function
  92              	TIMER_Enable:
  93              	.LFB1:
 163:.\Generated_Source\PSoC5/TIMER.c **** 
 164:.\Generated_Source\PSoC5/TIMER.c **** 
 165:.\Generated_Source\PSoC5/TIMER.c **** /*******************************************************************************
 166:.\Generated_Source\PSoC5/TIMER.c **** * Function Name: TIMER_Enable
 167:.\Generated_Source\PSoC5/TIMER.c **** ********************************************************************************
 168:.\Generated_Source\PSoC5/TIMER.c **** *
 169:.\Generated_Source\PSoC5/TIMER.c **** * Summary:
 170:.\Generated_Source\PSoC5/TIMER.c **** *  Enable the Timer
 171:.\Generated_Source\PSoC5/TIMER.c **** *
 172:.\Generated_Source\PSoC5/TIMER.c **** * Parameters:
 173:.\Generated_Source\PSoC5/TIMER.c **** *  void
 174:.\Generated_Source\PSoC5/TIMER.c **** *
 175:.\Generated_Source\PSoC5/TIMER.c **** * Return:
 176:.\Generated_Source\PSoC5/TIMER.c **** *  void
 177:.\Generated_Source\PSoC5/TIMER.c **** *
 178:.\Generated_Source\PSoC5/TIMER.c **** *******************************************************************************/
 179:.\Generated_Source\PSoC5/TIMER.c **** void TIMER_Enable(void) 
 180:.\Generated_Source\PSoC5/TIMER.c **** {
  94              		.loc 1 180 0
  95              		.cfi_startproc
  96              		@ args = 0, pretend = 0, frame = 0
  97              		@ frame_needed = 1, uses_anonymous_args = 0
  98              		@ link register save eliminated.
  99 0000 80B4     		push	{r7}
 100              	.LCFI3:
 101              		.cfi_def_cfa_offset 4
 102              		.cfi_offset 7, -4
 103 0002 00AF     		add	r7, sp, #0
 104              	.LCFI4:
 105              		.cfi_def_cfa_register 7
ARM GAS  C:\Users\Martin\AppData\Local\Temp\cciSWvJA.s 			page 6


 181:.\Generated_Source\PSoC5/TIMER.c ****     /* Globally Enable the Fixed Function Block chosen */
 182:.\Generated_Source\PSoC5/TIMER.c ****     #if (TIMER_UsingFixedFunction)
 183:.\Generated_Source\PSoC5/TIMER.c ****         TIMER_GLOBAL_ENABLE |= TIMER_BLOCK_EN_MASK;
 184:.\Generated_Source\PSoC5/TIMER.c ****         TIMER_GLOBAL_STBY_ENABLE |= TIMER_BLOCK_STBY_EN_MASK;
 185:.\Generated_Source\PSoC5/TIMER.c ****     #endif /* Set Enable bit for enabling Fixed function timer*/
 186:.\Generated_Source\PSoC5/TIMER.c **** 
 187:.\Generated_Source\PSoC5/TIMER.c ****     /* Remove assignment if control register is removed */
 188:.\Generated_Source\PSoC5/TIMER.c ****     #if (!TIMER_ControlRegRemoved || TIMER_UsingFixedFunction)
 189:.\Generated_Source\PSoC5/TIMER.c ****         TIMER_CONTROL |= TIMER_CTRL_ENABLE;
 106              		.loc 1 189 0
 107 0004 46F27453 		movw	r3, #25972
 108 0008 C4F20003 		movt	r3, 16384
 109 000c 46F27452 		movw	r2, #25972
 110 0010 C4F20002 		movt	r2, 16384
 111 0014 1278     		ldrb	r2, [r2, #0]
 112 0016 D2B2     		uxtb	r2, r2
 113 0018 62F07F02 		orn	r2, r2, #127
 114 001c D2B2     		uxtb	r2, r2
 115 001e 1A70     		strb	r2, [r3, #0]
 190:.\Generated_Source\PSoC5/TIMER.c ****     #endif /* Remove assignment if control register is removed */
 191:.\Generated_Source\PSoC5/TIMER.c **** }
 116              		.loc 1 191 0
 117 0020 BD46     		mov	sp, r7
 118 0022 80BC     		pop	{r7}
 119 0024 7047     		bx	lr
 120              		.cfi_endproc
 121              	.LFE1:
 122              		.size	TIMER_Enable, .-TIMER_Enable
 123 0026 00BF     		.section	.text.TIMER_Start,"ax",%progbits
 124              		.align	2
 125              		.global	TIMER_Start
 126              		.thumb
 127              		.thumb_func
 128              		.type	TIMER_Start, %function
 129              	TIMER_Start:
 130              	.LFB2:
 192:.\Generated_Source\PSoC5/TIMER.c **** 
 193:.\Generated_Source\PSoC5/TIMER.c **** 
 194:.\Generated_Source\PSoC5/TIMER.c **** /*******************************************************************************
 195:.\Generated_Source\PSoC5/TIMER.c **** * Function Name: TIMER_Start
 196:.\Generated_Source\PSoC5/TIMER.c **** ********************************************************************************
 197:.\Generated_Source\PSoC5/TIMER.c **** *
 198:.\Generated_Source\PSoC5/TIMER.c **** * Summary:
 199:.\Generated_Source\PSoC5/TIMER.c **** *  The start function initializes the timer with the default values, the
 200:.\Generated_Source\PSoC5/TIMER.c **** *  enables the timerto begin counting.  It does not enable interrupts,
 201:.\Generated_Source\PSoC5/TIMER.c **** *  the EnableInt command should be called if interrupt generation is required.
 202:.\Generated_Source\PSoC5/TIMER.c **** *
 203:.\Generated_Source\PSoC5/TIMER.c **** * Parameters:
 204:.\Generated_Source\PSoC5/TIMER.c **** *  void
 205:.\Generated_Source\PSoC5/TIMER.c **** *
 206:.\Generated_Source\PSoC5/TIMER.c **** * Return:
 207:.\Generated_Source\PSoC5/TIMER.c **** *  void
 208:.\Generated_Source\PSoC5/TIMER.c **** *
 209:.\Generated_Source\PSoC5/TIMER.c **** * Global variables:
 210:.\Generated_Source\PSoC5/TIMER.c **** *  TIMER_initVar: Is modified when this function is called for the
 211:.\Generated_Source\PSoC5/TIMER.c **** *   first time. Is used to ensure that initialization happens only once.
 212:.\Generated_Source\PSoC5/TIMER.c **** *
ARM GAS  C:\Users\Martin\AppData\Local\Temp\cciSWvJA.s 			page 7


 213:.\Generated_Source\PSoC5/TIMER.c **** *******************************************************************************/
 214:.\Generated_Source\PSoC5/TIMER.c **** void TIMER_Start(void) 
 215:.\Generated_Source\PSoC5/TIMER.c **** {
 131              		.loc 1 215 0
 132              		.cfi_startproc
 133              		@ args = 0, pretend = 0, frame = 0
 134              		@ frame_needed = 1, uses_anonymous_args = 0
 135 0000 80B5     		push	{r7, lr}
 136              	.LCFI5:
 137              		.cfi_def_cfa_offset 8
 138              		.cfi_offset 7, -8
 139              		.cfi_offset 14, -4
 140 0002 00AF     		add	r7, sp, #0
 141              	.LCFI6:
 142              		.cfi_def_cfa_register 7
 216:.\Generated_Source\PSoC5/TIMER.c ****     if(TIMER_initVar == 0u)
 143              		.loc 1 216 0
 144 0004 40F20003 		movw	r3, #:lower16:TIMER_initVar
 145 0008 C0F20003 		movt	r3, #:upper16:TIMER_initVar
 146 000c 1B78     		ldrb	r3, [r3, #0]	@ zero_extendqisi2
 147 000e 002B     		cmp	r3, #0
 148 0010 08D1     		bne	.L4
 217:.\Generated_Source\PSoC5/TIMER.c ****     {
 218:.\Generated_Source\PSoC5/TIMER.c ****         TIMER_Init();
 149              		.loc 1 218 0
 150 0012 FFF7FEFF 		bl	TIMER_Init
 219:.\Generated_Source\PSoC5/TIMER.c **** 
 220:.\Generated_Source\PSoC5/TIMER.c ****         TIMER_initVar = 1u;   /* Clear this bit for Initialization */
 151              		.loc 1 220 0
 152 0016 40F20003 		movw	r3, #:lower16:TIMER_initVar
 153 001a C0F20003 		movt	r3, #:upper16:TIMER_initVar
 154 001e 4FF00102 		mov	r2, #1
 155 0022 1A70     		strb	r2, [r3, #0]
 156              	.L4:
 221:.\Generated_Source\PSoC5/TIMER.c ****     }
 222:.\Generated_Source\PSoC5/TIMER.c **** 
 223:.\Generated_Source\PSoC5/TIMER.c ****     /* Enable the Timer */
 224:.\Generated_Source\PSoC5/TIMER.c ****     TIMER_Enable();
 157              		.loc 1 224 0
 158 0024 FFF7FEFF 		bl	TIMER_Enable
 225:.\Generated_Source\PSoC5/TIMER.c **** }
 159              		.loc 1 225 0
 160 0028 80BD     		pop	{r7, pc}
 161              		.cfi_endproc
 162              	.LFE2:
 163              		.size	TIMER_Start, .-TIMER_Start
 164 002a 00BF     		.section	.text.TIMER_Stop,"ax",%progbits
 165              		.align	2
 166              		.global	TIMER_Stop
 167              		.thumb
 168              		.thumb_func
 169              		.type	TIMER_Stop, %function
 170              	TIMER_Stop:
 171              	.LFB3:
 226:.\Generated_Source\PSoC5/TIMER.c **** 
 227:.\Generated_Source\PSoC5/TIMER.c **** 
 228:.\Generated_Source\PSoC5/TIMER.c **** /*******************************************************************************
ARM GAS  C:\Users\Martin\AppData\Local\Temp\cciSWvJA.s 			page 8


 229:.\Generated_Source\PSoC5/TIMER.c **** * Function Name: TIMER_Stop
 230:.\Generated_Source\PSoC5/TIMER.c **** ********************************************************************************
 231:.\Generated_Source\PSoC5/TIMER.c **** *
 232:.\Generated_Source\PSoC5/TIMER.c **** * Summary:
 233:.\Generated_Source\PSoC5/TIMER.c **** *  The stop function halts the timer, but does not change any modes or disable
 234:.\Generated_Source\PSoC5/TIMER.c **** *  interrupts.
 235:.\Generated_Source\PSoC5/TIMER.c **** *
 236:.\Generated_Source\PSoC5/TIMER.c **** * Parameters:
 237:.\Generated_Source\PSoC5/TIMER.c **** *  void
 238:.\Generated_Source\PSoC5/TIMER.c **** *
 239:.\Generated_Source\PSoC5/TIMER.c **** * Return:
 240:.\Generated_Source\PSoC5/TIMER.c **** *  void
 241:.\Generated_Source\PSoC5/TIMER.c **** *
 242:.\Generated_Source\PSoC5/TIMER.c **** * Side Effects: If the Enable mode is set to Hardware only then this function
 243:.\Generated_Source\PSoC5/TIMER.c **** *               has no effect on the operation of the timer.
 244:.\Generated_Source\PSoC5/TIMER.c **** *
 245:.\Generated_Source\PSoC5/TIMER.c **** *******************************************************************************/
 246:.\Generated_Source\PSoC5/TIMER.c **** void TIMER_Stop(void) 
 247:.\Generated_Source\PSoC5/TIMER.c **** {
 172              		.loc 1 247 0
 173              		.cfi_startproc
 174              		@ args = 0, pretend = 0, frame = 0
 175              		@ frame_needed = 1, uses_anonymous_args = 0
 176              		@ link register save eliminated.
 177 0000 80B4     		push	{r7}
 178              	.LCFI7:
 179              		.cfi_def_cfa_offset 4
 180              		.cfi_offset 7, -4
 181 0002 00AF     		add	r7, sp, #0
 182              	.LCFI8:
 183              		.cfi_def_cfa_register 7
 248:.\Generated_Source\PSoC5/TIMER.c ****     /* Disable Timer */
 249:.\Generated_Source\PSoC5/TIMER.c ****     #if(!TIMER_ControlRegRemoved || TIMER_UsingFixedFunction)
 250:.\Generated_Source\PSoC5/TIMER.c ****         TIMER_CONTROL &= ((uint8)(~TIMER_CTRL_ENABLE));
 184              		.loc 1 250 0
 185 0004 46F27453 		movw	r3, #25972
 186 0008 C4F20003 		movt	r3, 16384
 187 000c 46F27452 		movw	r2, #25972
 188 0010 C4F20002 		movt	r2, 16384
 189 0014 1278     		ldrb	r2, [r2, #0]
 190 0016 D2B2     		uxtb	r2, r2
 191 0018 02F07F02 		and	r2, r2, #127
 192 001c D2B2     		uxtb	r2, r2
 193 001e 1A70     		strb	r2, [r3, #0]
 251:.\Generated_Source\PSoC5/TIMER.c ****     #endif /* Remove assignment if control register is removed */
 252:.\Generated_Source\PSoC5/TIMER.c **** 
 253:.\Generated_Source\PSoC5/TIMER.c ****     /* Globally disable the Fixed Function Block chosen */
 254:.\Generated_Source\PSoC5/TIMER.c ****     #if (TIMER_UsingFixedFunction)
 255:.\Generated_Source\PSoC5/TIMER.c ****         TIMER_GLOBAL_ENABLE &= ((uint8)(~TIMER_BLOCK_EN_MASK));
 256:.\Generated_Source\PSoC5/TIMER.c ****         TIMER_GLOBAL_STBY_ENABLE &= ((uint8)(~TIMER_BLOCK_STBY_EN_MASK));
 257:.\Generated_Source\PSoC5/TIMER.c ****     #endif /* Disable global enable for the Timer Fixed function block to stop the Timer*/
 258:.\Generated_Source\PSoC5/TIMER.c **** }
 194              		.loc 1 258 0
 195 0020 BD46     		mov	sp, r7
 196 0022 80BC     		pop	{r7}
 197 0024 7047     		bx	lr
 198              		.cfi_endproc
ARM GAS  C:\Users\Martin\AppData\Local\Temp\cciSWvJA.s 			page 9


 199              	.LFE3:
 200              		.size	TIMER_Stop, .-TIMER_Stop
 201 0026 00BF     		.section	.text.TIMER_SetInterruptMode,"ax",%progbits
 202              		.align	2
 203              		.global	TIMER_SetInterruptMode
 204              		.thumb
 205              		.thumb_func
 206              		.type	TIMER_SetInterruptMode, %function
 207              	TIMER_SetInterruptMode:
 208              	.LFB4:
 259:.\Generated_Source\PSoC5/TIMER.c **** 
 260:.\Generated_Source\PSoC5/TIMER.c **** 
 261:.\Generated_Source\PSoC5/TIMER.c **** /*******************************************************************************
 262:.\Generated_Source\PSoC5/TIMER.c **** * Function Name: TIMER_SetInterruptMode
 263:.\Generated_Source\PSoC5/TIMER.c **** ********************************************************************************
 264:.\Generated_Source\PSoC5/TIMER.c **** *
 265:.\Generated_Source\PSoC5/TIMER.c **** * Summary:
 266:.\Generated_Source\PSoC5/TIMER.c **** *  This function selects which of the interrupt inputs may cause an interrupt.
 267:.\Generated_Source\PSoC5/TIMER.c **** *  The twosources are caputure and terminal.  One, both or neither may
 268:.\Generated_Source\PSoC5/TIMER.c **** *  be selected.
 269:.\Generated_Source\PSoC5/TIMER.c **** *
 270:.\Generated_Source\PSoC5/TIMER.c **** * Parameters:
 271:.\Generated_Source\PSoC5/TIMER.c **** *  interruptMode:   This parameter is used to enable interrups on either/or
 272:.\Generated_Source\PSoC5/TIMER.c **** *                   terminal count or capture.
 273:.\Generated_Source\PSoC5/TIMER.c **** *
 274:.\Generated_Source\PSoC5/TIMER.c **** * Return:
 275:.\Generated_Source\PSoC5/TIMER.c **** *  void
 276:.\Generated_Source\PSoC5/TIMER.c **** *
 277:.\Generated_Source\PSoC5/TIMER.c **** *******************************************************************************/
 278:.\Generated_Source\PSoC5/TIMER.c **** void TIMER_SetInterruptMode(uint8 interruptMode) 
 279:.\Generated_Source\PSoC5/TIMER.c **** {
 209              		.loc 1 279 0
 210              		.cfi_startproc
 211              		@ args = 0, pretend = 0, frame = 8
 212              		@ frame_needed = 1, uses_anonymous_args = 0
 213              		@ link register save eliminated.
 214 0000 80B4     		push	{r7}
 215              	.LCFI9:
 216              		.cfi_def_cfa_offset 4
 217              		.cfi_offset 7, -4
 218 0002 83B0     		sub	sp, sp, #12
 219              	.LCFI10:
 220              		.cfi_def_cfa_offset 16
 221 0004 00AF     		add	r7, sp, #0
 222              	.LCFI11:
 223              		.cfi_def_cfa_register 7
 224 0006 0346     		mov	r3, r0
 225 0008 FB71     		strb	r3, [r7, #7]
 280:.\Generated_Source\PSoC5/TIMER.c ****     TIMER_STATUS_MASK = interruptMode;
 226              		.loc 1 280 0
 227 000a 46F28753 		movw	r3, #25991
 228 000e C4F20003 		movt	r3, 16384
 229 0012 FA79     		ldrb	r2, [r7, #7]
 230 0014 1A70     		strb	r2, [r3, #0]
 281:.\Generated_Source\PSoC5/TIMER.c **** }
 231              		.loc 1 281 0
 232 0016 07F10C07 		add	r7, r7, #12
ARM GAS  C:\Users\Martin\AppData\Local\Temp\cciSWvJA.s 			page 10


 233 001a BD46     		mov	sp, r7
 234 001c 80BC     		pop	{r7}
 235 001e 7047     		bx	lr
 236              		.cfi_endproc
 237              	.LFE4:
 238              		.size	TIMER_SetInterruptMode, .-TIMER_SetInterruptMode
 239              		.section	.text.TIMER_SoftwareCapture,"ax",%progbits
 240              		.align	2
 241              		.global	TIMER_SoftwareCapture
 242              		.thumb
 243              		.thumb_func
 244              		.type	TIMER_SoftwareCapture, %function
 245              	TIMER_SoftwareCapture:
 246              	.LFB5:
 282:.\Generated_Source\PSoC5/TIMER.c **** 
 283:.\Generated_Source\PSoC5/TIMER.c **** 
 284:.\Generated_Source\PSoC5/TIMER.c **** /*******************************************************************************
 285:.\Generated_Source\PSoC5/TIMER.c **** * Function Name: TIMER_SoftwareCapture
 286:.\Generated_Source\PSoC5/TIMER.c **** ********************************************************************************
 287:.\Generated_Source\PSoC5/TIMER.c **** *
 288:.\Generated_Source\PSoC5/TIMER.c **** * Summary:
 289:.\Generated_Source\PSoC5/TIMER.c **** *  This function forces a capture independent of the capture signal.
 290:.\Generated_Source\PSoC5/TIMER.c **** *
 291:.\Generated_Source\PSoC5/TIMER.c **** * Parameters:
 292:.\Generated_Source\PSoC5/TIMER.c **** *  void
 293:.\Generated_Source\PSoC5/TIMER.c **** *
 294:.\Generated_Source\PSoC5/TIMER.c **** * Return:
 295:.\Generated_Source\PSoC5/TIMER.c **** *  void
 296:.\Generated_Source\PSoC5/TIMER.c **** *
 297:.\Generated_Source\PSoC5/TIMER.c **** * Side Effects:
 298:.\Generated_Source\PSoC5/TIMER.c **** *  An existing hardware capture could be overwritten.
 299:.\Generated_Source\PSoC5/TIMER.c **** *
 300:.\Generated_Source\PSoC5/TIMER.c **** *******************************************************************************/
 301:.\Generated_Source\PSoC5/TIMER.c **** void TIMER_SoftwareCapture(void) 
 302:.\Generated_Source\PSoC5/TIMER.c **** {
 247              		.loc 1 302 0
 248              		.cfi_startproc
 249              		@ args = 0, pretend = 0, frame = 0
 250              		@ frame_needed = 1, uses_anonymous_args = 0
 251              		@ link register save eliminated.
 252 0000 80B4     		push	{r7}
 253              	.LCFI12:
 254              		.cfi_def_cfa_offset 4
 255              		.cfi_offset 7, -4
 256 0002 00AF     		add	r7, sp, #0
 257              	.LCFI13:
 258              		.cfi_def_cfa_register 7
 303:.\Generated_Source\PSoC5/TIMER.c ****     /* Generate a software capture by reading the counter register */
 304:.\Generated_Source\PSoC5/TIMER.c ****     (void)TIMER_COUNTER_LSB;
 259              		.loc 1 304 0
 260 0004 46F20453 		movw	r3, #25860
 261 0008 C4F20003 		movt	r3, 16384
 262 000c 1B68     		ldr	r3, [r3, #0]
 305:.\Generated_Source\PSoC5/TIMER.c ****     /* Capture Data is now in the FIFO */
 306:.\Generated_Source\PSoC5/TIMER.c **** }
 263              		.loc 1 306 0
 264 000e BD46     		mov	sp, r7
ARM GAS  C:\Users\Martin\AppData\Local\Temp\cciSWvJA.s 			page 11


 265 0010 80BC     		pop	{r7}
 266 0012 7047     		bx	lr
 267              		.cfi_endproc
 268              	.LFE5:
 269              		.size	TIMER_SoftwareCapture, .-TIMER_SoftwareCapture
 270              		.section	.text.TIMER_ReadStatusRegister,"ax",%progbits
 271              		.align	2
 272              		.global	TIMER_ReadStatusRegister
 273              		.thumb
 274              		.thumb_func
 275              		.type	TIMER_ReadStatusRegister, %function
 276              	TIMER_ReadStatusRegister:
 277              	.LFB6:
 307:.\Generated_Source\PSoC5/TIMER.c **** 
 308:.\Generated_Source\PSoC5/TIMER.c **** 
 309:.\Generated_Source\PSoC5/TIMER.c **** /*******************************************************************************
 310:.\Generated_Source\PSoC5/TIMER.c **** * Function Name: TIMER_ReadStatusRegister
 311:.\Generated_Source\PSoC5/TIMER.c **** ********************************************************************************
 312:.\Generated_Source\PSoC5/TIMER.c **** *
 313:.\Generated_Source\PSoC5/TIMER.c **** * Summary:
 314:.\Generated_Source\PSoC5/TIMER.c **** *  Reads the status register and returns it's state. This function should use
 315:.\Generated_Source\PSoC5/TIMER.c **** *  defined types for the bit-field information as the bits in this register may
 316:.\Generated_Source\PSoC5/TIMER.c **** *  be permuteable.
 317:.\Generated_Source\PSoC5/TIMER.c **** *
 318:.\Generated_Source\PSoC5/TIMER.c **** * Parameters:
 319:.\Generated_Source\PSoC5/TIMER.c **** *  void
 320:.\Generated_Source\PSoC5/TIMER.c **** *
 321:.\Generated_Source\PSoC5/TIMER.c **** * Return:
 322:.\Generated_Source\PSoC5/TIMER.c **** *  The contents of the status register
 323:.\Generated_Source\PSoC5/TIMER.c **** *
 324:.\Generated_Source\PSoC5/TIMER.c **** * Side Effects:
 325:.\Generated_Source\PSoC5/TIMER.c **** *  Status register bits may be clear on read.
 326:.\Generated_Source\PSoC5/TIMER.c **** *
 327:.\Generated_Source\PSoC5/TIMER.c **** *******************************************************************************/
 328:.\Generated_Source\PSoC5/TIMER.c **** uint8   TIMER_ReadStatusRegister(void) 
 329:.\Generated_Source\PSoC5/TIMER.c **** {
 278              		.loc 1 329 0
 279              		.cfi_startproc
 280              		@ args = 0, pretend = 0, frame = 0
 281              		@ frame_needed = 1, uses_anonymous_args = 0
 282              		@ link register save eliminated.
 283 0000 80B4     		push	{r7}
 284              	.LCFI14:
 285              		.cfi_def_cfa_offset 4
 286              		.cfi_offset 7, -4
 287 0002 00AF     		add	r7, sp, #0
 288              	.LCFI15:
 289              		.cfi_def_cfa_register 7
 330:.\Generated_Source\PSoC5/TIMER.c ****     return (TIMER_STATUS);
 290              		.loc 1 330 0
 291 0004 46F26753 		movw	r3, #25959
 292 0008 C4F20003 		movt	r3, 16384
 293 000c 1B78     		ldrb	r3, [r3, #0]
 294 000e DBB2     		uxtb	r3, r3
 331:.\Generated_Source\PSoC5/TIMER.c **** }
 295              		.loc 1 331 0
 296 0010 1846     		mov	r0, r3
ARM GAS  C:\Users\Martin\AppData\Local\Temp\cciSWvJA.s 			page 12


 297 0012 BD46     		mov	sp, r7
 298 0014 80BC     		pop	{r7}
 299 0016 7047     		bx	lr
 300              		.cfi_endproc
 301              	.LFE6:
 302              		.size	TIMER_ReadStatusRegister, .-TIMER_ReadStatusRegister
 303              		.section	.text.TIMER_ReadControlRegister,"ax",%progbits
 304              		.align	2
 305              		.global	TIMER_ReadControlRegister
 306              		.thumb
 307              		.thumb_func
 308              		.type	TIMER_ReadControlRegister, %function
 309              	TIMER_ReadControlRegister:
 310              	.LFB7:
 332:.\Generated_Source\PSoC5/TIMER.c **** 
 333:.\Generated_Source\PSoC5/TIMER.c **** 
 334:.\Generated_Source\PSoC5/TIMER.c **** #if (!TIMER_ControlRegRemoved) /* Remove API if control register is removed */
 335:.\Generated_Source\PSoC5/TIMER.c **** 
 336:.\Generated_Source\PSoC5/TIMER.c **** 
 337:.\Generated_Source\PSoC5/TIMER.c **** /*******************************************************************************
 338:.\Generated_Source\PSoC5/TIMER.c **** * Function Name: TIMER_ReadControlRegister
 339:.\Generated_Source\PSoC5/TIMER.c **** ********************************************************************************
 340:.\Generated_Source\PSoC5/TIMER.c **** *
 341:.\Generated_Source\PSoC5/TIMER.c **** * Summary:
 342:.\Generated_Source\PSoC5/TIMER.c **** *  Reads the control register and returns it's value.
 343:.\Generated_Source\PSoC5/TIMER.c **** *
 344:.\Generated_Source\PSoC5/TIMER.c **** * Parameters:
 345:.\Generated_Source\PSoC5/TIMER.c **** *  void
 346:.\Generated_Source\PSoC5/TIMER.c **** *
 347:.\Generated_Source\PSoC5/TIMER.c **** * Return:
 348:.\Generated_Source\PSoC5/TIMER.c **** *  The contents of the control register
 349:.\Generated_Source\PSoC5/TIMER.c **** *
 350:.\Generated_Source\PSoC5/TIMER.c **** *******************************************************************************/
 351:.\Generated_Source\PSoC5/TIMER.c **** uint8 TIMER_ReadControlRegister(void) 
 352:.\Generated_Source\PSoC5/TIMER.c **** {
 311              		.loc 1 352 0
 312              		.cfi_startproc
 313              		@ args = 0, pretend = 0, frame = 0
 314              		@ frame_needed = 1, uses_anonymous_args = 0
 315              		@ link register save eliminated.
 316 0000 80B4     		push	{r7}
 317              	.LCFI16:
 318              		.cfi_def_cfa_offset 4
 319              		.cfi_offset 7, -4
 320 0002 00AF     		add	r7, sp, #0
 321              	.LCFI17:
 322              		.cfi_def_cfa_register 7
 353:.\Generated_Source\PSoC5/TIMER.c ****     return ((uint8)TIMER_CONTROL);
 323              		.loc 1 353 0
 324 0004 46F27453 		movw	r3, #25972
 325 0008 C4F20003 		movt	r3, 16384
 326 000c 1B78     		ldrb	r3, [r3, #0]
 327 000e DBB2     		uxtb	r3, r3
 354:.\Generated_Source\PSoC5/TIMER.c **** }
 328              		.loc 1 354 0
 329 0010 1846     		mov	r0, r3
 330 0012 BD46     		mov	sp, r7
ARM GAS  C:\Users\Martin\AppData\Local\Temp\cciSWvJA.s 			page 13


 331 0014 80BC     		pop	{r7}
 332 0016 7047     		bx	lr
 333              		.cfi_endproc
 334              	.LFE7:
 335              		.size	TIMER_ReadControlRegister, .-TIMER_ReadControlRegister
 336              		.section	.text.TIMER_WriteControlRegister,"ax",%progbits
 337              		.align	2
 338              		.global	TIMER_WriteControlRegister
 339              		.thumb
 340              		.thumb_func
 341              		.type	TIMER_WriteControlRegister, %function
 342              	TIMER_WriteControlRegister:
 343              	.LFB8:
 355:.\Generated_Source\PSoC5/TIMER.c **** 
 356:.\Generated_Source\PSoC5/TIMER.c **** 
 357:.\Generated_Source\PSoC5/TIMER.c **** /*******************************************************************************
 358:.\Generated_Source\PSoC5/TIMER.c **** * Function Name: TIMER_WriteControlRegister
 359:.\Generated_Source\PSoC5/TIMER.c **** ********************************************************************************
 360:.\Generated_Source\PSoC5/TIMER.c **** *
 361:.\Generated_Source\PSoC5/TIMER.c **** * Summary:
 362:.\Generated_Source\PSoC5/TIMER.c **** *  Sets the bit-field of the control register.
 363:.\Generated_Source\PSoC5/TIMER.c **** *
 364:.\Generated_Source\PSoC5/TIMER.c **** * Parameters:
 365:.\Generated_Source\PSoC5/TIMER.c **** *  control: The contents of the control register
 366:.\Generated_Source\PSoC5/TIMER.c **** *
 367:.\Generated_Source\PSoC5/TIMER.c **** * Return:
 368:.\Generated_Source\PSoC5/TIMER.c **** *
 369:.\Generated_Source\PSoC5/TIMER.c **** *******************************************************************************/
 370:.\Generated_Source\PSoC5/TIMER.c **** void TIMER_WriteControlRegister(uint8 control) 
 371:.\Generated_Source\PSoC5/TIMER.c **** {
 344              		.loc 1 371 0
 345              		.cfi_startproc
 346              		@ args = 0, pretend = 0, frame = 8
 347              		@ frame_needed = 1, uses_anonymous_args = 0
 348              		@ link register save eliminated.
 349 0000 80B4     		push	{r7}
 350              	.LCFI18:
 351              		.cfi_def_cfa_offset 4
 352              		.cfi_offset 7, -4
 353 0002 83B0     		sub	sp, sp, #12
 354              	.LCFI19:
 355              		.cfi_def_cfa_offset 16
 356 0004 00AF     		add	r7, sp, #0
 357              	.LCFI20:
 358              		.cfi_def_cfa_register 7
 359 0006 0346     		mov	r3, r0
 360 0008 FB71     		strb	r3, [r7, #7]
 372:.\Generated_Source\PSoC5/TIMER.c ****     TIMER_CONTROL = control;
 361              		.loc 1 372 0
 362 000a 46F27453 		movw	r3, #25972
 363 000e C4F20003 		movt	r3, 16384
 364 0012 FA79     		ldrb	r2, [r7, #7]
 365 0014 1A70     		strb	r2, [r3, #0]
 373:.\Generated_Source\PSoC5/TIMER.c **** }
 366              		.loc 1 373 0
 367 0016 07F10C07 		add	r7, r7, #12
 368 001a BD46     		mov	sp, r7
ARM GAS  C:\Users\Martin\AppData\Local\Temp\cciSWvJA.s 			page 14


 369 001c 80BC     		pop	{r7}
 370 001e 7047     		bx	lr
 371              		.cfi_endproc
 372              	.LFE8:
 373              		.size	TIMER_WriteControlRegister, .-TIMER_WriteControlRegister
 374              		.section	.text.TIMER_ReadPeriod,"ax",%progbits
 375              		.align	2
 376              		.global	TIMER_ReadPeriod
 377              		.thumb
 378              		.thumb_func
 379              		.type	TIMER_ReadPeriod, %function
 380              	TIMER_ReadPeriod:
 381              	.LFB9:
 374:.\Generated_Source\PSoC5/TIMER.c **** #endif /* Remove API if control register is removed */
 375:.\Generated_Source\PSoC5/TIMER.c **** 
 376:.\Generated_Source\PSoC5/TIMER.c **** 
 377:.\Generated_Source\PSoC5/TIMER.c **** /*******************************************************************************
 378:.\Generated_Source\PSoC5/TIMER.c **** * Function Name: TIMER_ReadPeriod
 379:.\Generated_Source\PSoC5/TIMER.c **** ********************************************************************************
 380:.\Generated_Source\PSoC5/TIMER.c **** *
 381:.\Generated_Source\PSoC5/TIMER.c **** * Summary:
 382:.\Generated_Source\PSoC5/TIMER.c **** *  This function returns the current value of the Period.
 383:.\Generated_Source\PSoC5/TIMER.c **** *
 384:.\Generated_Source\PSoC5/TIMER.c **** * Parameters:
 385:.\Generated_Source\PSoC5/TIMER.c **** *  void
 386:.\Generated_Source\PSoC5/TIMER.c **** *
 387:.\Generated_Source\PSoC5/TIMER.c **** * Return:
 388:.\Generated_Source\PSoC5/TIMER.c **** *  The present value of the counter.
 389:.\Generated_Source\PSoC5/TIMER.c **** *
 390:.\Generated_Source\PSoC5/TIMER.c **** *******************************************************************************/
 391:.\Generated_Source\PSoC5/TIMER.c **** uint32 TIMER_ReadPeriod(void) 
 392:.\Generated_Source\PSoC5/TIMER.c **** {
 382              		.loc 1 392 0
 383              		.cfi_startproc
 384              		@ args = 0, pretend = 0, frame = 0
 385              		@ frame_needed = 1, uses_anonymous_args = 0
 386              		@ link register save eliminated.
 387 0000 80B4     		push	{r7}
 388              	.LCFI21:
 389              		.cfi_def_cfa_offset 4
 390              		.cfi_offset 7, -4
 391 0002 00AF     		add	r7, sp, #0
 392              	.LCFI22:
 393              		.cfi_def_cfa_register 7
 393:.\Generated_Source\PSoC5/TIMER.c ****    #if(TIMER_UsingFixedFunction)
 394:.\Generated_Source\PSoC5/TIMER.c ****        return ((uint32)CY_GET_REG16(TIMER_PERIOD_LSB_PTR));
 395:.\Generated_Source\PSoC5/TIMER.c ****    #else
 396:.\Generated_Source\PSoC5/TIMER.c ****        return (CY_GET_REG32(TIMER_PERIOD_LSB_PTR));
 394              		.loc 1 396 0
 395 0004 46F22453 		movw	r3, #25892
 396 0008 C4F20003 		movt	r3, 16384
 397 000c 1B68     		ldr	r3, [r3, #0]
 397:.\Generated_Source\PSoC5/TIMER.c ****    #endif /* (TIMER_UsingFixedFunction) */
 398:.\Generated_Source\PSoC5/TIMER.c **** }
 398              		.loc 1 398 0
 399 000e 1846     		mov	r0, r3
 400 0010 BD46     		mov	sp, r7
ARM GAS  C:\Users\Martin\AppData\Local\Temp\cciSWvJA.s 			page 15


 401 0012 80BC     		pop	{r7}
 402 0014 7047     		bx	lr
 403              		.cfi_endproc
 404              	.LFE9:
 405              		.size	TIMER_ReadPeriod, .-TIMER_ReadPeriod
 406 0016 00BF     		.section	.text.TIMER_WritePeriod,"ax",%progbits
 407              		.align	2
 408              		.global	TIMER_WritePeriod
 409              		.thumb
 410              		.thumb_func
 411              		.type	TIMER_WritePeriod, %function
 412              	TIMER_WritePeriod:
 413              	.LFB10:
 399:.\Generated_Source\PSoC5/TIMER.c **** 
 400:.\Generated_Source\PSoC5/TIMER.c **** 
 401:.\Generated_Source\PSoC5/TIMER.c **** /*******************************************************************************
 402:.\Generated_Source\PSoC5/TIMER.c **** * Function Name: TIMER_WritePeriod
 403:.\Generated_Source\PSoC5/TIMER.c **** ********************************************************************************
 404:.\Generated_Source\PSoC5/TIMER.c **** *
 405:.\Generated_Source\PSoC5/TIMER.c **** * Summary:
 406:.\Generated_Source\PSoC5/TIMER.c **** *  This function is used to change the period of the counter.  The new period
 407:.\Generated_Source\PSoC5/TIMER.c **** *  will be loaded the next time terminal count is detected.
 408:.\Generated_Source\PSoC5/TIMER.c **** *
 409:.\Generated_Source\PSoC5/TIMER.c **** * Parameters:
 410:.\Generated_Source\PSoC5/TIMER.c **** *  period: This value may be between 1 and (2^Resolution)-1.  A value of 0 will
 411:.\Generated_Source\PSoC5/TIMER.c **** *          result in the counter remaining at zero.
 412:.\Generated_Source\PSoC5/TIMER.c **** *
 413:.\Generated_Source\PSoC5/TIMER.c **** * Return:
 414:.\Generated_Source\PSoC5/TIMER.c **** *  void
 415:.\Generated_Source\PSoC5/TIMER.c **** *
 416:.\Generated_Source\PSoC5/TIMER.c **** *******************************************************************************/
 417:.\Generated_Source\PSoC5/TIMER.c **** void TIMER_WritePeriod(uint32 period) 
 418:.\Generated_Source\PSoC5/TIMER.c **** {
 414              		.loc 1 418 0
 415              		.cfi_startproc
 416              		@ args = 0, pretend = 0, frame = 8
 417              		@ frame_needed = 1, uses_anonymous_args = 0
 418              		@ link register save eliminated.
 419 0000 80B4     		push	{r7}
 420              	.LCFI23:
 421              		.cfi_def_cfa_offset 4
 422              		.cfi_offset 7, -4
 423 0002 83B0     		sub	sp, sp, #12
 424              	.LCFI24:
 425              		.cfi_def_cfa_offset 16
 426 0004 00AF     		add	r7, sp, #0
 427              	.LCFI25:
 428              		.cfi_def_cfa_register 7
 429 0006 7860     		str	r0, [r7, #4]
 419:.\Generated_Source\PSoC5/TIMER.c ****     #if(TIMER_UsingFixedFunction)
 420:.\Generated_Source\PSoC5/TIMER.c ****         uint16 period_temp = (uint16)period;
 421:.\Generated_Source\PSoC5/TIMER.c ****         CY_SET_REG16(TIMER_PERIOD_LSB_PTR, period_temp);
 422:.\Generated_Source\PSoC5/TIMER.c ****     #else
 423:.\Generated_Source\PSoC5/TIMER.c ****         CY_SET_REG32(TIMER_PERIOD_LSB_PTR, period);
 430              		.loc 1 423 0
 431 0008 46F22453 		movw	r3, #25892
 432 000c C4F20003 		movt	r3, 16384
ARM GAS  C:\Users\Martin\AppData\Local\Temp\cciSWvJA.s 			page 16


 433 0010 7A68     		ldr	r2, [r7, #4]
 434 0012 1A60     		str	r2, [r3, #0]
 424:.\Generated_Source\PSoC5/TIMER.c ****     #endif /*Write Period value with appropriate resolution suffix depending on UDB or fixed functi
 425:.\Generated_Source\PSoC5/TIMER.c **** }
 435              		.loc 1 425 0
 436 0014 07F10C07 		add	r7, r7, #12
 437 0018 BD46     		mov	sp, r7
 438 001a 80BC     		pop	{r7}
 439 001c 7047     		bx	lr
 440              		.cfi_endproc
 441              	.LFE10:
 442              		.size	TIMER_WritePeriod, .-TIMER_WritePeriod
 443 001e 00BF     		.section	.text.TIMER_ReadCapture,"ax",%progbits
 444              		.align	2
 445              		.global	TIMER_ReadCapture
 446              		.thumb
 447              		.thumb_func
 448              		.type	TIMER_ReadCapture, %function
 449              	TIMER_ReadCapture:
 450              	.LFB11:
 426:.\Generated_Source\PSoC5/TIMER.c **** 
 427:.\Generated_Source\PSoC5/TIMER.c **** 
 428:.\Generated_Source\PSoC5/TIMER.c **** /*******************************************************************************
 429:.\Generated_Source\PSoC5/TIMER.c **** * Function Name: TIMER_ReadCapture
 430:.\Generated_Source\PSoC5/TIMER.c **** ********************************************************************************
 431:.\Generated_Source\PSoC5/TIMER.c **** *
 432:.\Generated_Source\PSoC5/TIMER.c **** * Summary:
 433:.\Generated_Source\PSoC5/TIMER.c **** *  This function returns the last value captured.
 434:.\Generated_Source\PSoC5/TIMER.c **** *
 435:.\Generated_Source\PSoC5/TIMER.c **** * Parameters:
 436:.\Generated_Source\PSoC5/TIMER.c **** *  void
 437:.\Generated_Source\PSoC5/TIMER.c **** *
 438:.\Generated_Source\PSoC5/TIMER.c **** * Return:
 439:.\Generated_Source\PSoC5/TIMER.c **** *  Present Capture value.
 440:.\Generated_Source\PSoC5/TIMER.c **** *
 441:.\Generated_Source\PSoC5/TIMER.c **** *******************************************************************************/
 442:.\Generated_Source\PSoC5/TIMER.c **** uint32 TIMER_ReadCapture(void) 
 443:.\Generated_Source\PSoC5/TIMER.c **** {
 451              		.loc 1 443 0
 452              		.cfi_startproc
 453              		@ args = 0, pretend = 0, frame = 0
 454              		@ frame_needed = 1, uses_anonymous_args = 0
 455              		@ link register save eliminated.
 456 0000 80B4     		push	{r7}
 457              	.LCFI26:
 458              		.cfi_def_cfa_offset 4
 459              		.cfi_offset 7, -4
 460 0002 00AF     		add	r7, sp, #0
 461              	.LCFI27:
 462              		.cfi_def_cfa_register 7
 444:.\Generated_Source\PSoC5/TIMER.c ****    #if(TIMER_UsingFixedFunction)
 445:.\Generated_Source\PSoC5/TIMER.c ****        return ((uint32)CY_GET_REG16(TIMER_CAPTURE_LSB_PTR));
 446:.\Generated_Source\PSoC5/TIMER.c ****    #else
 447:.\Generated_Source\PSoC5/TIMER.c ****        return (CY_GET_REG32(TIMER_CAPTURE_LSB_PTR));
 463              		.loc 1 447 0
 464 0004 46F24453 		movw	r3, #25924
 465 0008 C4F20003 		movt	r3, 16384
ARM GAS  C:\Users\Martin\AppData\Local\Temp\cciSWvJA.s 			page 17


 466 000c 1B68     		ldr	r3, [r3, #0]
 448:.\Generated_Source\PSoC5/TIMER.c ****    #endif /* (TIMER_UsingFixedFunction) */
 449:.\Generated_Source\PSoC5/TIMER.c **** }
 467              		.loc 1 449 0
 468 000e 1846     		mov	r0, r3
 469 0010 BD46     		mov	sp, r7
 470 0012 80BC     		pop	{r7}
 471 0014 7047     		bx	lr
 472              		.cfi_endproc
 473              	.LFE11:
 474              		.size	TIMER_ReadCapture, .-TIMER_ReadCapture
 475 0016 00BF     		.section	.text.TIMER_WriteCounter,"ax",%progbits
 476              		.align	2
 477              		.global	TIMER_WriteCounter
 478              		.thumb
 479              		.thumb_func
 480              		.type	TIMER_WriteCounter, %function
 481              	TIMER_WriteCounter:
 482              	.LFB12:
 450:.\Generated_Source\PSoC5/TIMER.c **** 
 451:.\Generated_Source\PSoC5/TIMER.c **** 
 452:.\Generated_Source\PSoC5/TIMER.c **** /*******************************************************************************
 453:.\Generated_Source\PSoC5/TIMER.c **** * Function Name: TIMER_WriteCounter
 454:.\Generated_Source\PSoC5/TIMER.c **** ********************************************************************************
 455:.\Generated_Source\PSoC5/TIMER.c **** *
 456:.\Generated_Source\PSoC5/TIMER.c **** * Summary:
 457:.\Generated_Source\PSoC5/TIMER.c **** *  This funtion is used to set the counter to a specific value
 458:.\Generated_Source\PSoC5/TIMER.c **** *
 459:.\Generated_Source\PSoC5/TIMER.c **** * Parameters:
 460:.\Generated_Source\PSoC5/TIMER.c **** *  counter:  New counter value.
 461:.\Generated_Source\PSoC5/TIMER.c **** *
 462:.\Generated_Source\PSoC5/TIMER.c **** * Return:
 463:.\Generated_Source\PSoC5/TIMER.c **** *  void
 464:.\Generated_Source\PSoC5/TIMER.c **** *
 465:.\Generated_Source\PSoC5/TIMER.c **** *******************************************************************************/
 466:.\Generated_Source\PSoC5/TIMER.c **** void TIMER_WriteCounter(uint32 counter) \
 467:.\Generated_Source\PSoC5/TIMER.c ****                                    
 468:.\Generated_Source\PSoC5/TIMER.c **** {
 483              		.loc 1 468 0
 484              		.cfi_startproc
 485              		@ args = 0, pretend = 0, frame = 8
 486              		@ frame_needed = 1, uses_anonymous_args = 0
 487              		@ link register save eliminated.
 488 0000 80B4     		push	{r7}
 489              	.LCFI28:
 490              		.cfi_def_cfa_offset 4
 491              		.cfi_offset 7, -4
 492 0002 83B0     		sub	sp, sp, #12
 493              	.LCFI29:
 494              		.cfi_def_cfa_offset 16
 495 0004 00AF     		add	r7, sp, #0
 496              	.LCFI30:
 497              		.cfi_def_cfa_register 7
 498 0006 7860     		str	r0, [r7, #4]
 469:.\Generated_Source\PSoC5/TIMER.c ****    #if(TIMER_UsingFixedFunction)
 470:.\Generated_Source\PSoC5/TIMER.c ****         /* This functionality is removed until a FixedFunction HW update to
 471:.\Generated_Source\PSoC5/TIMER.c ****          * allow this register to be written
ARM GAS  C:\Users\Martin\AppData\Local\Temp\cciSWvJA.s 			page 18


 472:.\Generated_Source\PSoC5/TIMER.c ****          */
 473:.\Generated_Source\PSoC5/TIMER.c ****         CY_SET_REG16(TIMER_COUNTER_LSB_PTR, (uint16)counter);
 474:.\Generated_Source\PSoC5/TIMER.c ****         
 475:.\Generated_Source\PSoC5/TIMER.c ****     #else
 476:.\Generated_Source\PSoC5/TIMER.c ****         CY_SET_REG32(TIMER_COUNTER_LSB_PTR, counter);
 499              		.loc 1 476 0
 500 0008 46F20453 		movw	r3, #25860
 501 000c C4F20003 		movt	r3, 16384
 502 0010 7A68     		ldr	r2, [r7, #4]
 503 0012 1A60     		str	r2, [r3, #0]
 477:.\Generated_Source\PSoC5/TIMER.c ****     #endif /* Set Write Counter only for the UDB implementation (Write Counter not available in fix
 478:.\Generated_Source\PSoC5/TIMER.c **** }
 504              		.loc 1 478 0
 505 0014 07F10C07 		add	r7, r7, #12
 506 0018 BD46     		mov	sp, r7
 507 001a 80BC     		pop	{r7}
 508 001c 7047     		bx	lr
 509              		.cfi_endproc
 510              	.LFE12:
 511              		.size	TIMER_WriteCounter, .-TIMER_WriteCounter
 512 001e 00BF     		.section	.text.TIMER_ReadCounter,"ax",%progbits
 513              		.align	2
 514              		.global	TIMER_ReadCounter
 515              		.thumb
 516              		.thumb_func
 517              		.type	TIMER_ReadCounter, %function
 518              	TIMER_ReadCounter:
 519              	.LFB13:
 479:.\Generated_Source\PSoC5/TIMER.c **** 
 480:.\Generated_Source\PSoC5/TIMER.c **** 
 481:.\Generated_Source\PSoC5/TIMER.c **** /*******************************************************************************
 482:.\Generated_Source\PSoC5/TIMER.c **** * Function Name: TIMER_ReadCounter
 483:.\Generated_Source\PSoC5/TIMER.c **** ********************************************************************************
 484:.\Generated_Source\PSoC5/TIMER.c **** *
 485:.\Generated_Source\PSoC5/TIMER.c **** * Summary:
 486:.\Generated_Source\PSoC5/TIMER.c **** *  This function returns the current counter value.
 487:.\Generated_Source\PSoC5/TIMER.c **** *
 488:.\Generated_Source\PSoC5/TIMER.c **** * Parameters:
 489:.\Generated_Source\PSoC5/TIMER.c **** *  void
 490:.\Generated_Source\PSoC5/TIMER.c **** *
 491:.\Generated_Source\PSoC5/TIMER.c **** * Return:
 492:.\Generated_Source\PSoC5/TIMER.c **** *  Present compare value.
 493:.\Generated_Source\PSoC5/TIMER.c **** *
 494:.\Generated_Source\PSoC5/TIMER.c **** *******************************************************************************/
 495:.\Generated_Source\PSoC5/TIMER.c **** uint32 TIMER_ReadCounter(void) 
 496:.\Generated_Source\PSoC5/TIMER.c **** {
 520              		.loc 1 496 0
 521              		.cfi_startproc
 522              		@ args = 0, pretend = 0, frame = 0
 523              		@ frame_needed = 1, uses_anonymous_args = 0
 524              		@ link register save eliminated.
 525 0000 80B4     		push	{r7}
 526              	.LCFI31:
 527              		.cfi_def_cfa_offset 4
 528              		.cfi_offset 7, -4
 529 0002 00AF     		add	r7, sp, #0
 530              	.LCFI32:
ARM GAS  C:\Users\Martin\AppData\Local\Temp\cciSWvJA.s 			page 19


 531              		.cfi_def_cfa_register 7
 497:.\Generated_Source\PSoC5/TIMER.c **** 
 498:.\Generated_Source\PSoC5/TIMER.c ****     /* Force capture by reading Accumulator */
 499:.\Generated_Source\PSoC5/TIMER.c ****     /* Must first do a software capture to be able to read the counter */
 500:.\Generated_Source\PSoC5/TIMER.c ****     /* It is up to the user code to make sure there isn't already captured data in the FIFO */
 501:.\Generated_Source\PSoC5/TIMER.c ****     (void)TIMER_COUNTER_LSB;
 532              		.loc 1 501 0
 533 0004 46F20453 		movw	r3, #25860
 534 0008 C4F20003 		movt	r3, 16384
 535 000c 1B68     		ldr	r3, [r3, #0]
 502:.\Generated_Source\PSoC5/TIMER.c **** 
 503:.\Generated_Source\PSoC5/TIMER.c ****     /* Read the data from the FIFO (or capture register for Fixed Function)*/
 504:.\Generated_Source\PSoC5/TIMER.c ****     #if(TIMER_UsingFixedFunction)
 505:.\Generated_Source\PSoC5/TIMER.c ****         return ((uint32)CY_GET_REG16(TIMER_CAPTURE_LSB_PTR));
 506:.\Generated_Source\PSoC5/TIMER.c ****     #else
 507:.\Generated_Source\PSoC5/TIMER.c ****         return (CY_GET_REG32(TIMER_CAPTURE_LSB_PTR));
 536              		.loc 1 507 0
 537 000e 46F24453 		movw	r3, #25924
 538 0012 C4F20003 		movt	r3, 16384
 539 0016 1B68     		ldr	r3, [r3, #0]
 508:.\Generated_Source\PSoC5/TIMER.c ****     #endif /* (TIMER_UsingFixedFunction) */
 509:.\Generated_Source\PSoC5/TIMER.c **** }
 540              		.loc 1 509 0
 541 0018 1846     		mov	r0, r3
 542 001a BD46     		mov	sp, r7
 543 001c 80BC     		pop	{r7}
 544 001e 7047     		bx	lr
 545              		.cfi_endproc
 546              	.LFE13:
 547              		.size	TIMER_ReadCounter, .-TIMER_ReadCounter
 548              		.section	.text.TIMER_ClearFIFO,"ax",%progbits
 549              		.align	2
 550              		.global	TIMER_ClearFIFO
 551              		.thumb
 552              		.thumb_func
 553              		.type	TIMER_ClearFIFO, %function
 554              	TIMER_ClearFIFO:
 555              	.LFB14:
 510:.\Generated_Source\PSoC5/TIMER.c **** 
 511:.\Generated_Source\PSoC5/TIMER.c **** 
 512:.\Generated_Source\PSoC5/TIMER.c **** #if(!TIMER_UsingFixedFunction) /* UDB Specific Functions */
 513:.\Generated_Source\PSoC5/TIMER.c **** 
 514:.\Generated_Source\PSoC5/TIMER.c **** /*******************************************************************************
 515:.\Generated_Source\PSoC5/TIMER.c ****  * The functions below this point are only available using the UDB
 516:.\Generated_Source\PSoC5/TIMER.c ****  * implementation.  If a feature is selected, then the API is enabled.
 517:.\Generated_Source\PSoC5/TIMER.c ****  ******************************************************************************/
 518:.\Generated_Source\PSoC5/TIMER.c **** 
 519:.\Generated_Source\PSoC5/TIMER.c **** 
 520:.\Generated_Source\PSoC5/TIMER.c **** #if (TIMER_SoftwareCaptureMode)
 521:.\Generated_Source\PSoC5/TIMER.c **** 
 522:.\Generated_Source\PSoC5/TIMER.c **** 
 523:.\Generated_Source\PSoC5/TIMER.c **** /*******************************************************************************
 524:.\Generated_Source\PSoC5/TIMER.c **** * Function Name: TIMER_SetCaptureMode
 525:.\Generated_Source\PSoC5/TIMER.c **** ********************************************************************************
 526:.\Generated_Source\PSoC5/TIMER.c **** *
 527:.\Generated_Source\PSoC5/TIMER.c **** * Summary:
 528:.\Generated_Source\PSoC5/TIMER.c **** *  This function sets the capture mode to either rising or falling edge.
ARM GAS  C:\Users\Martin\AppData\Local\Temp\cciSWvJA.s 			page 20


 529:.\Generated_Source\PSoC5/TIMER.c **** *
 530:.\Generated_Source\PSoC5/TIMER.c **** * Parameters:
 531:.\Generated_Source\PSoC5/TIMER.c **** *  captureMode: This parameter sets the capture mode of the UDB capture feature
 532:.\Generated_Source\PSoC5/TIMER.c **** *  The parameter values are defined using the
 533:.\Generated_Source\PSoC5/TIMER.c **** *  #define TIMER__B_TIMER__CM_NONE 0
 534:.\Generated_Source\PSoC5/TIMER.c **** #define TIMER__B_TIMER__CM_RISINGEDGE 1
 535:.\Generated_Source\PSoC5/TIMER.c **** #define TIMER__B_TIMER__CM_FALLINGEDGE 2
 536:.\Generated_Source\PSoC5/TIMER.c **** #define TIMER__B_TIMER__CM_EITHEREDGE 3
 537:.\Generated_Source\PSoC5/TIMER.c **** #define TIMER__B_TIMER__CM_SOFTWARE 4
 538:.\Generated_Source\PSoC5/TIMER.c ****  identifiers
 539:.\Generated_Source\PSoC5/TIMER.c **** *  The following are the possible values of the parameter
 540:.\Generated_Source\PSoC5/TIMER.c **** *  TIMER__B_TIMER__CM_NONE        - Set Capture mode to None
 541:.\Generated_Source\PSoC5/TIMER.c **** *  TIMER__B_TIMER__CM_RISINGEDGE  - Rising edge of Capture input
 542:.\Generated_Source\PSoC5/TIMER.c **** *  TIMER__B_TIMER__CM_FALLINGEDGE - Falling edge of Capture input
 543:.\Generated_Source\PSoC5/TIMER.c **** *  TIMER__B_TIMER__CM_EITHEREDGE  - Either edge of Capture input
 544:.\Generated_Source\PSoC5/TIMER.c **** *
 545:.\Generated_Source\PSoC5/TIMER.c **** * Return:
 546:.\Generated_Source\PSoC5/TIMER.c **** *  void
 547:.\Generated_Source\PSoC5/TIMER.c **** *
 548:.\Generated_Source\PSoC5/TIMER.c **** *******************************************************************************/
 549:.\Generated_Source\PSoC5/TIMER.c **** void TIMER_SetCaptureMode(uint8 captureMode) 
 550:.\Generated_Source\PSoC5/TIMER.c **** {
 551:.\Generated_Source\PSoC5/TIMER.c ****     /* This must only set to two bits of the control register associated */
 552:.\Generated_Source\PSoC5/TIMER.c ****     captureMode = ((uint8)((uint8)captureMode << TIMER_CTRL_CAP_MODE_SHIFT));
 553:.\Generated_Source\PSoC5/TIMER.c ****     captureMode &= (TIMER_CTRL_CAP_MODE_MASK);
 554:.\Generated_Source\PSoC5/TIMER.c **** 
 555:.\Generated_Source\PSoC5/TIMER.c ****     /* Clear the Current Setting */
 556:.\Generated_Source\PSoC5/TIMER.c ****     TIMER_CONTROL &= ((uint8)(~TIMER_CTRL_CAP_MODE_MASK));
 557:.\Generated_Source\PSoC5/TIMER.c **** 
 558:.\Generated_Source\PSoC5/TIMER.c ****     /* Write The New Setting */
 559:.\Generated_Source\PSoC5/TIMER.c ****     TIMER_CONTROL |= captureMode;
 560:.\Generated_Source\PSoC5/TIMER.c **** }
 561:.\Generated_Source\PSoC5/TIMER.c **** #endif /* Remove API if Capture Mode is not Software Controlled */
 562:.\Generated_Source\PSoC5/TIMER.c **** 
 563:.\Generated_Source\PSoC5/TIMER.c **** 
 564:.\Generated_Source\PSoC5/TIMER.c **** #if (TIMER_SoftwareTriggerMode)
 565:.\Generated_Source\PSoC5/TIMER.c **** 
 566:.\Generated_Source\PSoC5/TIMER.c **** 
 567:.\Generated_Source\PSoC5/TIMER.c **** /*******************************************************************************
 568:.\Generated_Source\PSoC5/TIMER.c **** * Function Name: TIMER_SetTriggerMode
 569:.\Generated_Source\PSoC5/TIMER.c **** ********************************************************************************
 570:.\Generated_Source\PSoC5/TIMER.c **** *
 571:.\Generated_Source\PSoC5/TIMER.c **** * Summary:
 572:.\Generated_Source\PSoC5/TIMER.c **** *  This function sets the trigger input mode
 573:.\Generated_Source\PSoC5/TIMER.c **** *
 574:.\Generated_Source\PSoC5/TIMER.c **** * Parameters:
 575:.\Generated_Source\PSoC5/TIMER.c **** *  triggerMode: Pass one of the pre-defined Trigger Modes (except Software)
 576:.\Generated_Source\PSoC5/TIMER.c ****     #define TIMER__B_TIMER__TM_NONE 0x00u
 577:.\Generated_Source\PSoC5/TIMER.c ****     #define TIMER__B_TIMER__TM_RISINGEDGE 0x04u
 578:.\Generated_Source\PSoC5/TIMER.c ****     #define TIMER__B_TIMER__TM_FALLINGEDGE 0x08u
 579:.\Generated_Source\PSoC5/TIMER.c ****     #define TIMER__B_TIMER__TM_EITHEREDGE 0x0Cu
 580:.\Generated_Source\PSoC5/TIMER.c ****     #define TIMER__B_TIMER__TM_SOFTWARE 0x10u
 581:.\Generated_Source\PSoC5/TIMER.c **** *
 582:.\Generated_Source\PSoC5/TIMER.c **** * Return:
 583:.\Generated_Source\PSoC5/TIMER.c **** *  void
 584:.\Generated_Source\PSoC5/TIMER.c **** *
 585:.\Generated_Source\PSoC5/TIMER.c **** *******************************************************************************/
ARM GAS  C:\Users\Martin\AppData\Local\Temp\cciSWvJA.s 			page 21


 586:.\Generated_Source\PSoC5/TIMER.c **** void TIMER_SetTriggerMode(uint8 triggerMode) 
 587:.\Generated_Source\PSoC5/TIMER.c **** {
 588:.\Generated_Source\PSoC5/TIMER.c ****     /* This must only set to two bits of the control register associated */
 589:.\Generated_Source\PSoC5/TIMER.c ****     triggerMode &= TIMER_CTRL_TRIG_MODE_MASK;
 590:.\Generated_Source\PSoC5/TIMER.c **** 
 591:.\Generated_Source\PSoC5/TIMER.c ****     /* Clear the Current Setting */
 592:.\Generated_Source\PSoC5/TIMER.c ****     TIMER_CONTROL &= ((uint8)(~TIMER_CTRL_TRIG_MODE_MASK));
 593:.\Generated_Source\PSoC5/TIMER.c **** 
 594:.\Generated_Source\PSoC5/TIMER.c ****     /* Write The New Setting */
 595:.\Generated_Source\PSoC5/TIMER.c ****     TIMER_CONTROL |= (triggerMode | TIMER__B_TIMER__TM_SOFTWARE);
 596:.\Generated_Source\PSoC5/TIMER.c **** 
 597:.\Generated_Source\PSoC5/TIMER.c **** }
 598:.\Generated_Source\PSoC5/TIMER.c **** #endif /* Remove API if Trigger Mode is not Software Controlled */
 599:.\Generated_Source\PSoC5/TIMER.c **** 
 600:.\Generated_Source\PSoC5/TIMER.c **** #if (TIMER_EnableTriggerMode)
 601:.\Generated_Source\PSoC5/TIMER.c **** 
 602:.\Generated_Source\PSoC5/TIMER.c **** 
 603:.\Generated_Source\PSoC5/TIMER.c **** /*******************************************************************************
 604:.\Generated_Source\PSoC5/TIMER.c **** * Function Name: TIMER_EnableTrigger
 605:.\Generated_Source\PSoC5/TIMER.c **** ********************************************************************************
 606:.\Generated_Source\PSoC5/TIMER.c **** *
 607:.\Generated_Source\PSoC5/TIMER.c **** * Summary:
 608:.\Generated_Source\PSoC5/TIMER.c **** *  Sets the control bit enabling Hardware Trigger mode
 609:.\Generated_Source\PSoC5/TIMER.c **** *
 610:.\Generated_Source\PSoC5/TIMER.c **** * Parameters:
 611:.\Generated_Source\PSoC5/TIMER.c **** *  void
 612:.\Generated_Source\PSoC5/TIMER.c **** *
 613:.\Generated_Source\PSoC5/TIMER.c **** * Return:
 614:.\Generated_Source\PSoC5/TIMER.c **** *  void
 615:.\Generated_Source\PSoC5/TIMER.c **** *
 616:.\Generated_Source\PSoC5/TIMER.c **** *******************************************************************************/
 617:.\Generated_Source\PSoC5/TIMER.c **** void TIMER_EnableTrigger(void) 
 618:.\Generated_Source\PSoC5/TIMER.c **** {
 619:.\Generated_Source\PSoC5/TIMER.c ****     #if (!TIMER_ControlRegRemoved)   /* Remove assignment if control register is removed */
 620:.\Generated_Source\PSoC5/TIMER.c ****         TIMER_CONTROL |= TIMER_CTRL_TRIG_EN;
 621:.\Generated_Source\PSoC5/TIMER.c ****     #endif /* Remove code section if control register is not used */
 622:.\Generated_Source\PSoC5/TIMER.c **** }
 623:.\Generated_Source\PSoC5/TIMER.c **** 
 624:.\Generated_Source\PSoC5/TIMER.c **** 
 625:.\Generated_Source\PSoC5/TIMER.c **** /*******************************************************************************
 626:.\Generated_Source\PSoC5/TIMER.c **** * Function Name: TIMER_DisableTrigger
 627:.\Generated_Source\PSoC5/TIMER.c **** ********************************************************************************
 628:.\Generated_Source\PSoC5/TIMER.c **** *
 629:.\Generated_Source\PSoC5/TIMER.c **** * Summary:
 630:.\Generated_Source\PSoC5/TIMER.c **** *  Clears the control bit enabling Hardware Trigger mode
 631:.\Generated_Source\PSoC5/TIMER.c **** *
 632:.\Generated_Source\PSoC5/TIMER.c **** * Parameters:
 633:.\Generated_Source\PSoC5/TIMER.c **** *  void
 634:.\Generated_Source\PSoC5/TIMER.c **** *
 635:.\Generated_Source\PSoC5/TIMER.c **** * Return:
 636:.\Generated_Source\PSoC5/TIMER.c **** *  void
 637:.\Generated_Source\PSoC5/TIMER.c **** *
 638:.\Generated_Source\PSoC5/TIMER.c **** *******************************************************************************/
 639:.\Generated_Source\PSoC5/TIMER.c **** void TIMER_DisableTrigger(void) 
 640:.\Generated_Source\PSoC5/TIMER.c **** {
 641:.\Generated_Source\PSoC5/TIMER.c ****     #if (!TIMER_ControlRegRemoved)   /* Remove assignment if control register is removed */
 642:.\Generated_Source\PSoC5/TIMER.c ****         TIMER_CONTROL &= ((uint8)(~TIMER_CTRL_TRIG_EN));
ARM GAS  C:\Users\Martin\AppData\Local\Temp\cciSWvJA.s 			page 22


 643:.\Generated_Source\PSoC5/TIMER.c ****     #endif /* Remove code section if control register is not used */
 644:.\Generated_Source\PSoC5/TIMER.c **** }
 645:.\Generated_Source\PSoC5/TIMER.c **** #endif /* Remove API is Trigger Mode is set to None */
 646:.\Generated_Source\PSoC5/TIMER.c **** 
 647:.\Generated_Source\PSoC5/TIMER.c **** 
 648:.\Generated_Source\PSoC5/TIMER.c **** #if(TIMER_InterruptOnCaptureCount)
 649:.\Generated_Source\PSoC5/TIMER.c **** #if (!TIMER_ControlRegRemoved)   /* Remove API if control register is removed */
 650:.\Generated_Source\PSoC5/TIMER.c **** 
 651:.\Generated_Source\PSoC5/TIMER.c **** 
 652:.\Generated_Source\PSoC5/TIMER.c **** /*******************************************************************************
 653:.\Generated_Source\PSoC5/TIMER.c **** * Function Name: TIMER_SetInterruptCount
 654:.\Generated_Source\PSoC5/TIMER.c **** ********************************************************************************
 655:.\Generated_Source\PSoC5/TIMER.c **** *
 656:.\Generated_Source\PSoC5/TIMER.c **** * Summary:
 657:.\Generated_Source\PSoC5/TIMER.c **** *  This function sets the capture count before an interrupt is triggered.
 658:.\Generated_Source\PSoC5/TIMER.c **** *
 659:.\Generated_Source\PSoC5/TIMER.c **** * Parameters:
 660:.\Generated_Source\PSoC5/TIMER.c **** *  interruptCount:  A value between 0 and 3 is valid.  If the value is 0, then
 661:.\Generated_Source\PSoC5/TIMER.c **** *                   an interrupt will occur each time a capture occurs.
 662:.\Generated_Source\PSoC5/TIMER.c **** *                   A value of 1 to 3 will cause the interrupt
 663:.\Generated_Source\PSoC5/TIMER.c **** *                   to delay by the same number of captures.
 664:.\Generated_Source\PSoC5/TIMER.c **** *
 665:.\Generated_Source\PSoC5/TIMER.c **** * Return:
 666:.\Generated_Source\PSoC5/TIMER.c **** *  void
 667:.\Generated_Source\PSoC5/TIMER.c **** *
 668:.\Generated_Source\PSoC5/TIMER.c **** *******************************************************************************/
 669:.\Generated_Source\PSoC5/TIMER.c **** void TIMER_SetInterruptCount(uint8 interruptCount) 
 670:.\Generated_Source\PSoC5/TIMER.c **** {
 671:.\Generated_Source\PSoC5/TIMER.c ****     /* This must only set to two bits of the control register associated */
 672:.\Generated_Source\PSoC5/TIMER.c ****     interruptCount &= TIMER_CTRL_INTCNT_MASK;
 673:.\Generated_Source\PSoC5/TIMER.c **** 
 674:.\Generated_Source\PSoC5/TIMER.c ****     /* Clear the Current Setting */
 675:.\Generated_Source\PSoC5/TIMER.c ****     TIMER_CONTROL &= ((uint8)(~TIMER_CTRL_INTCNT_MASK));
 676:.\Generated_Source\PSoC5/TIMER.c ****     /* Write The New Setting */
 677:.\Generated_Source\PSoC5/TIMER.c ****     TIMER_CONTROL |= interruptCount;
 678:.\Generated_Source\PSoC5/TIMER.c **** }
 679:.\Generated_Source\PSoC5/TIMER.c **** #endif /* Remove API if control register is removed */
 680:.\Generated_Source\PSoC5/TIMER.c **** #endif /* TIMER_InterruptOnCaptureCount */
 681:.\Generated_Source\PSoC5/TIMER.c **** 
 682:.\Generated_Source\PSoC5/TIMER.c **** 
 683:.\Generated_Source\PSoC5/TIMER.c **** #if (TIMER_UsingHWCaptureCounter)
 684:.\Generated_Source\PSoC5/TIMER.c **** 
 685:.\Generated_Source\PSoC5/TIMER.c **** 
 686:.\Generated_Source\PSoC5/TIMER.c **** /*******************************************************************************
 687:.\Generated_Source\PSoC5/TIMER.c **** * Function Name: TIMER_SetCaptureCount
 688:.\Generated_Source\PSoC5/TIMER.c **** ********************************************************************************
 689:.\Generated_Source\PSoC5/TIMER.c **** *
 690:.\Generated_Source\PSoC5/TIMER.c **** * Summary:
 691:.\Generated_Source\PSoC5/TIMER.c **** *  This function sets the capture count
 692:.\Generated_Source\PSoC5/TIMER.c **** *
 693:.\Generated_Source\PSoC5/TIMER.c **** * Parameters:
 694:.\Generated_Source\PSoC5/TIMER.c **** *  captureCount: A value between 2 and 127 inclusive is valid.  A value of 1
 695:.\Generated_Source\PSoC5/TIMER.c **** *                to 127 will cause the interrupt to delay by the same number of
 696:.\Generated_Source\PSoC5/TIMER.c **** *                captures.
 697:.\Generated_Source\PSoC5/TIMER.c **** *
 698:.\Generated_Source\PSoC5/TIMER.c **** * Return:
 699:.\Generated_Source\PSoC5/TIMER.c **** *  void
ARM GAS  C:\Users\Martin\AppData\Local\Temp\cciSWvJA.s 			page 23


 700:.\Generated_Source\PSoC5/TIMER.c **** *
 701:.\Generated_Source\PSoC5/TIMER.c **** *******************************************************************************/
 702:.\Generated_Source\PSoC5/TIMER.c **** void TIMER_SetCaptureCount(uint8 captureCount) 
 703:.\Generated_Source\PSoC5/TIMER.c **** {
 704:.\Generated_Source\PSoC5/TIMER.c ****     TIMER_CAP_COUNT = captureCount;
 705:.\Generated_Source\PSoC5/TIMER.c **** }
 706:.\Generated_Source\PSoC5/TIMER.c **** 
 707:.\Generated_Source\PSoC5/TIMER.c **** 
 708:.\Generated_Source\PSoC5/TIMER.c **** /*******************************************************************************
 709:.\Generated_Source\PSoC5/TIMER.c **** * Function Name: TIMER_ReadCaptureCount
 710:.\Generated_Source\PSoC5/TIMER.c **** ********************************************************************************
 711:.\Generated_Source\PSoC5/TIMER.c **** *
 712:.\Generated_Source\PSoC5/TIMER.c **** * Summary:
 713:.\Generated_Source\PSoC5/TIMER.c **** *  This function reads the capture count setting
 714:.\Generated_Source\PSoC5/TIMER.c **** *
 715:.\Generated_Source\PSoC5/TIMER.c **** * Parameters:
 716:.\Generated_Source\PSoC5/TIMER.c **** *  void
 717:.\Generated_Source\PSoC5/TIMER.c **** *
 718:.\Generated_Source\PSoC5/TIMER.c **** * Return:
 719:.\Generated_Source\PSoC5/TIMER.c **** *  Returns the Capture Count Setting
 720:.\Generated_Source\PSoC5/TIMER.c **** *
 721:.\Generated_Source\PSoC5/TIMER.c **** *******************************************************************************/
 722:.\Generated_Source\PSoC5/TIMER.c **** uint8 TIMER_ReadCaptureCount(void) 
 723:.\Generated_Source\PSoC5/TIMER.c **** {
 724:.\Generated_Source\PSoC5/TIMER.c ****     return ((uint8)TIMER_CAP_COUNT);
 725:.\Generated_Source\PSoC5/TIMER.c **** }
 726:.\Generated_Source\PSoC5/TIMER.c **** #endif /* TIMER_UsingHWCaptureCounter */
 727:.\Generated_Source\PSoC5/TIMER.c **** 
 728:.\Generated_Source\PSoC5/TIMER.c **** 
 729:.\Generated_Source\PSoC5/TIMER.c **** /*******************************************************************************
 730:.\Generated_Source\PSoC5/TIMER.c **** * Function Name: TIMER_ClearFIFO
 731:.\Generated_Source\PSoC5/TIMER.c **** ********************************************************************************
 732:.\Generated_Source\PSoC5/TIMER.c **** *
 733:.\Generated_Source\PSoC5/TIMER.c **** * Summary:
 734:.\Generated_Source\PSoC5/TIMER.c **** *  This function clears all capture data from the capture FIFO
 735:.\Generated_Source\PSoC5/TIMER.c **** *
 736:.\Generated_Source\PSoC5/TIMER.c **** * Parameters:
 737:.\Generated_Source\PSoC5/TIMER.c **** *  void
 738:.\Generated_Source\PSoC5/TIMER.c **** *
 739:.\Generated_Source\PSoC5/TIMER.c **** * Return:
 740:.\Generated_Source\PSoC5/TIMER.c **** *  void
 741:.\Generated_Source\PSoC5/TIMER.c **** *
 742:.\Generated_Source\PSoC5/TIMER.c **** *******************************************************************************/
 743:.\Generated_Source\PSoC5/TIMER.c **** void TIMER_ClearFIFO(void) 
 744:.\Generated_Source\PSoC5/TIMER.c **** {
 556              		.loc 1 744 0
 557              		.cfi_startproc
 558              		@ args = 0, pretend = 0, frame = 0
 559              		@ frame_needed = 1, uses_anonymous_args = 0
 560 0000 80B5     		push	{r7, lr}
 561              	.LCFI33:
 562              		.cfi_def_cfa_offset 8
 563              		.cfi_offset 7, -8
 564              		.cfi_offset 14, -4
 565 0002 00AF     		add	r7, sp, #0
 566              	.LCFI34:
 567              		.cfi_def_cfa_register 7
ARM GAS  C:\Users\Martin\AppData\Local\Temp\cciSWvJA.s 			page 24


 745:.\Generated_Source\PSoC5/TIMER.c ****     while(0u != (TIMER_ReadStatusRegister() & TIMER_STATUS_FIFONEMP))
 568              		.loc 1 745 0
 569 0004 01E0     		b	.L22
 570              	.L23:
 746:.\Generated_Source\PSoC5/TIMER.c ****     {
 747:.\Generated_Source\PSoC5/TIMER.c ****         (void)TIMER_ReadCapture();
 571              		.loc 1 747 0
 572 0006 FFF7FEFF 		bl	TIMER_ReadCapture
 573              	.L22:
 745:.\Generated_Source\PSoC5/TIMER.c ****     while(0u != (TIMER_ReadStatusRegister() & TIMER_STATUS_FIFONEMP))
 574              		.loc 1 745 0 discriminator 1
 575 000a FFF7FEFF 		bl	TIMER_ReadStatusRegister
 576 000e 0346     		mov	r3, r0
 577 0010 03F00803 		and	r3, r3, #8
 578 0014 002B     		cmp	r3, #0
 579 0016 F6D1     		bne	.L23
 748:.\Generated_Source\PSoC5/TIMER.c ****     }
 749:.\Generated_Source\PSoC5/TIMER.c **** }
 580              		.loc 1 749 0
 581 0018 80BD     		pop	{r7, pc}
 582              		.cfi_endproc
 583              	.LFE14:
 584              		.size	TIMER_ClearFIFO, .-TIMER_ClearFIFO
 585 001a 00BF     		.text
 586              	.Letext0:
 587              		.file 2 ".\\Generated_Source\\PSoC5\\cytypes.h"