ARM GAS  C:\Users\Martin\AppData\Local\Temp\ccS48Jlv.s 			page 1


   1              		.syntax unified
   2              		.cpu cortex-m3
   3              		.fpu softvfp
   4              		.eabi_attribute 20, 1
   5              		.eabi_attribute 21, 1
   6              		.eabi_attribute 23, 3
   7              		.eabi_attribute 24, 1
   8              		.eabi_attribute 25, 1
   9              		.eabi_attribute 26, 1
  10              		.eabi_attribute 30, 6
  11              		.eabi_attribute 34, 1
  12              		.eabi_attribute 18, 4
  13              		.thumb
  14              		.file	"tmr.c"
  15              		.text
  16              	.Ltext0:
  17              		.cfi_sections	.debug_frame
  18              		.bss
  19              	TimerOverrun:
  20 0000 00       		.space	1
  21 0001 000000   		.align	2
  22              	Timer:
  23 0004 00000000 		.space	160
  23      00000000 
  23      00000000 
  23      00000000 
  23      00000000 
  24              		.align	2
  25              	NewTime:
  26 00a4 00000000 		.space	4
  27              		.align	2
  28              	OldTime:
  29 00a8 00000000 		.space	4
  30              		.section	.text.isr_timer_routine,"ax",%progbits
  31              		.align	2
  32              		.global	isr_timer_routine
  33              		.thumb
  34              		.thumb_func
  35              		.type	isr_timer_routine, %function
  36              	isr_timer_routine:
  37              	.LFB56:
  38              		.file 1 ".\\tmr.c"
   1:.\tmr.c       **** /* Copyright (C) <2014> <Martin Schalk>
   2:.\tmr.c       ****  * All rights reserved.
   3:.\tmr.c       ****  *
   4:.\tmr.c       ****  * This software may be modified and distributed under the terms
   5:.\tmr.c       ****  * of the BSD license.  See the LICENSE file for details.
   6:.\tmr.c       ****  */
   7:.\tmr.c       **** 
   8:.\tmr.c       **** 
   9:.\tmr.c       **** #include <project.h>
  10:.\tmr.c       **** #include "types.h"
  11:.\tmr.c       **** #include "timer.h"
  12:.\tmr.c       **** #include "tmr.h"
  13:.\tmr.c       **** #include "global.h"
  14:.\tmr.c       **** 
  15:.\tmr.c       **** static BOOL 	TimerOverrun = FALSE;
ARM GAS  C:\Users\Martin\AppData\Local\Temp\ccS48Jlv.s 			page 2


  16:.\tmr.c       **** static TIMER 	Timer[MAX_TIMERS];
  17:.\tmr.c       **** static uint32	NewTime, OldTime;
  18:.\tmr.c       **** 
  19:.\tmr.c       **** /*******************************************************/
  20:.\tmr.c       **** CY_ISR(isr_timer_routine)
  21:.\tmr.c       **** {
  39              		.loc 1 21 0
  40              		.cfi_startproc
  41              		@ args = 0, pretend = 0, frame = 0
  42              		@ frame_needed = 1, uses_anonymous_args = 0
  43              		@ link register save eliminated.
  44 0000 80B4     		push	{r7}
  45              	.LCFI0:
  46              		.cfi_def_cfa_offset 4
  47              		.cfi_offset 7, -4
  48 0002 00AF     		add	r7, sp, #0
  49              	.LCFI1:
  50              		.cfi_def_cfa_register 7
  22:.\tmr.c       **** 	TimerOverrun = TRUE;
  51              		.loc 1 22 0
  52 0004 40F20003 		movw	r3, #:lower16:TimerOverrun
  53 0008 C0F20003 		movt	r3, #:upper16:TimerOverrun
  54 000c 4FF00102 		mov	r2, #1
  55 0010 1A70     		strb	r2, [r3, #0]
  23:.\tmr.c       **** }
  56              		.loc 1 23 0
  57 0012 BD46     		mov	sp, r7
  58 0014 80BC     		pop	{r7}
  59 0016 7047     		bx	lr
  60              		.cfi_endproc
  61              	.LFE56:
  62              		.size	isr_timer_routine, .-isr_timer_routine
  63              		.section	.text.TMR_Init,"ax",%progbits
  64              		.align	2
  65              		.global	TMR_Init
  66              		.thumb
  67              		.thumb_func
  68              		.type	TMR_Init, %function
  69              	TMR_Init:
  70              	.LFB57:
  24:.\tmr.c       **** 
  25:.\tmr.c       **** 
  26:.\tmr.c       **** /*******************************************************/
  27:.\tmr.c       **** STATUS 	TMR_Init(void)
  28:.\tmr.c       **** {
  71              		.loc 1 28 0
  72              		.cfi_startproc
  73              		@ args = 0, pretend = 0, frame = 0
  74              		@ frame_needed = 1, uses_anonymous_args = 0
  75 0000 80B5     		push	{r7, lr}
  76              	.LCFI2:
  77              		.cfi_def_cfa_offset 8
  78              		.cfi_offset 7, -8
  79              		.cfi_offset 14, -4
  80 0002 00AF     		add	r7, sp, #0
  81              	.LCFI3:
  82              		.cfi_def_cfa_register 7
ARM GAS  C:\Users\Martin\AppData\Local\Temp\ccS48Jlv.s 			page 3


  29:.\tmr.c       **** 	NewTime = OldTime = 0;
  83              		.loc 1 29 0
  84 0004 40F20003 		movw	r3, #:lower16:OldTime
  85 0008 C0F20003 		movt	r3, #:upper16:OldTime
  86 000c 4FF00002 		mov	r2, #0
  87 0010 1A60     		str	r2, [r3, #0]
  88 0012 40F20003 		movw	r3, #:lower16:OldTime
  89 0016 C0F20003 		movt	r3, #:upper16:OldTime
  90 001a 1A68     		ldr	r2, [r3, #0]
  91 001c 40F20003 		movw	r3, #:lower16:NewTime
  92 0020 C0F20003 		movt	r3, #:upper16:NewTime
  93 0024 1A60     		str	r2, [r3, #0]
  30:.\tmr.c       **** 	memset(Timer, 0, sizeof(Timer));
  94              		.loc 1 30 0
  95 0026 40F20000 		movw	r0, #:lower16:Timer
  96 002a C0F20000 		movt	r0, #:upper16:Timer
  97 002e 4FF00001 		mov	r1, #0
  98 0032 4FF0A002 		mov	r2, #160
  99 0036 FFF7FEFF 		bl	memset
  31:.\tmr.c       **** 	
  32:.\tmr.c       **** 	TIMER_Init();
 100              		.loc 1 32 0
 101 003a FFF7FEFF 		bl	TIMER_Init
  33:.\tmr.c       **** 	Isr_timer_SetVector(isr_timer_routine);
 102              		.loc 1 33 0
 103 003e 40F20000 		movw	r0, #:lower16:isr_timer_routine
 104 0042 C0F20000 		movt	r0, #:upper16:isr_timer_routine
 105 0046 FFF7FEFF 		bl	Isr_timer_SetVector
  34:.\tmr.c       **** 	Isr_timer_Start();
 106              		.loc 1 34 0
 107 004a FFF7FEFF 		bl	Isr_timer_Start
  35:.\tmr.c       **** 	TIMER_WritePeriod(TIMER_PERIOD_1000SEC); //clock 1MHz
 108              		.loc 1 35 0
 109 004e 4FF44A40 		mov	r0, #51712
 110 0052 C3F69A30 		movt	r0, 15258
 111 0056 FFF7FEFF 		bl	TIMER_WritePeriod
  36:.\tmr.c       **** 	TIMER_Enable();
 112              		.loc 1 36 0
 113 005a FFF7FEFF 		bl	TIMER_Enable
  37:.\tmr.c       **** 	TIMER_CLOCK_Start();
 114              		.loc 1 37 0
 115 005e FFF7FEFF 		bl	TIMER_CLOCK_Start
  38:.\tmr.c       **** 	
  39:.\tmr.c       **** 	return SUCCESS;
 116              		.loc 1 39 0
 117 0062 4FF00003 		mov	r3, #0
  40:.\tmr.c       **** }
 118              		.loc 1 40 0
 119 0066 1846     		mov	r0, r3
 120 0068 80BD     		pop	{r7, pc}
 121              		.cfi_endproc
 122              	.LFE57:
 123              		.size	TMR_Init, .-TMR_Init
 124 006a 00BF     		.section	.text.TMR_SetTimer,"ax",%progbits
 125              		.align	2
 126              		.global	TMR_SetTimer
 127              		.thumb
ARM GAS  C:\Users\Martin\AppData\Local\Temp\ccS48Jlv.s 			page 4


 128              		.thumb_func
 129              		.type	TMR_SetTimer, %function
 130              	TMR_SetTimer:
 131              	.LFB58:
  41:.\tmr.c       **** 
  42:.\tmr.c       **** /*******************************************************/
  43:.\tmr.c       **** void TMR_SetTimer(uint8 numTimer, uint32 us, TMR_FUNC func, uint8 mode, uint8 status)
  44:.\tmr.c       **** {
 132              		.loc 1 44 0
 133              		.cfi_startproc
 134              		@ args = 4, pretend = 0, frame = 16
 135              		@ frame_needed = 1, uses_anonymous_args = 0
 136              		@ link register save eliminated.
 137 0000 80B4     		push	{r7}
 138              	.LCFI4:
 139              		.cfi_def_cfa_offset 4
 140              		.cfi_offset 7, -4
 141 0002 85B0     		sub	sp, sp, #20
 142              	.LCFI5:
 143              		.cfi_def_cfa_offset 24
 144 0004 00AF     		add	r7, sp, #0
 145              	.LCFI6:
 146              		.cfi_def_cfa_register 7
 147 0006 B960     		str	r1, [r7, #8]
 148 0008 7A60     		str	r2, [r7, #4]
 149 000a 0246     		mov	r2, r0
 150 000c FA73     		strb	r2, [r7, #15]
 151 000e BB73     		strb	r3, [r7, #14]
  45:.\tmr.c       **** 	Timer[numTimer].count = 0;
 152              		.loc 1 45 0
 153 0010 FA7B     		ldrb	r2, [r7, #15]	@ zero_extendqisi2
 154 0012 40F20003 		movw	r3, #:lower16:Timer
 155 0016 C0F20003 		movt	r3, #:upper16:Timer
 156 001a 4FEA0212 		lsl	r2, r2, #4
 157 001e 9B18     		adds	r3, r3, r2
 158 0020 4FF00002 		mov	r2, #0
 159 0024 1A60     		str	r2, [r3, #0]
  46:.\tmr.c       **** 	Timer[numTimer].value = us;
 160              		.loc 1 46 0
 161 0026 FA7B     		ldrb	r2, [r7, #15]	@ zero_extendqisi2
 162 0028 40F20003 		movw	r3, #:lower16:Timer
 163 002c C0F20003 		movt	r3, #:upper16:Timer
 164 0030 4FEA0212 		lsl	r2, r2, #4
 165 0034 9B18     		adds	r3, r3, r2
 166 0036 03F10403 		add	r3, r3, #4
 167 003a BA68     		ldr	r2, [r7, #8]
 168 003c 1A60     		str	r2, [r3, #0]
  47:.\tmr.c       **** 	Timer[numTimer].func = func;
 169              		.loc 1 47 0
 170 003e FA7B     		ldrb	r2, [r7, #15]	@ zero_extendqisi2
 171 0040 40F20003 		movw	r3, #:lower16:Timer
 172 0044 C0F20003 		movt	r3, #:upper16:Timer
 173 0048 4FEA0212 		lsl	r2, r2, #4
 174 004c 9B18     		adds	r3, r3, r2
 175 004e 03F10803 		add	r3, r3, #8
 176 0052 7A68     		ldr	r2, [r7, #4]
 177 0054 1A60     		str	r2, [r3, #0]
ARM GAS  C:\Users\Martin\AppData\Local\Temp\ccS48Jlv.s 			page 5


  48:.\tmr.c       **** 	Timer[numTimer].mode = mode;
 178              		.loc 1 48 0
 179 0056 FA7B     		ldrb	r2, [r7, #15]	@ zero_extendqisi2
 180 0058 40F20003 		movw	r3, #:lower16:Timer
 181 005c C0F20003 		movt	r3, #:upper16:Timer
 182 0060 4FEA0212 		lsl	r2, r2, #4
 183 0064 9B18     		adds	r3, r3, r2
 184 0066 03F10803 		add	r3, r3, #8
 185 006a BA7B     		ldrb	r2, [r7, #14]
 186 006c 1A71     		strb	r2, [r3, #4]
  49:.\tmr.c       **** 	Timer[numTimer].status = status;
 187              		.loc 1 49 0
 188 006e FA7B     		ldrb	r2, [r7, #15]	@ zero_extendqisi2
 189 0070 40F20003 		movw	r3, #:lower16:Timer
 190 0074 C0F20003 		movt	r3, #:upper16:Timer
 191 0078 4FEA0212 		lsl	r2, r2, #4
 192 007c 9B18     		adds	r3, r3, r2
 193 007e 03F10803 		add	r3, r3, #8
 194 0082 3A7E     		ldrb	r2, [r7, #24]
 195 0084 5A71     		strb	r2, [r3, #5]
  50:.\tmr.c       **** }
 196              		.loc 1 50 0
 197 0086 07F11407 		add	r7, r7, #20
 198 008a BD46     		mov	sp, r7
 199 008c 80BC     		pop	{r7}
 200 008e 7047     		bx	lr
 201              		.cfi_endproc
 202              	.LFE58:
 203              		.size	TMR_SetTimer, .-TMR_SetTimer
 204              		.section	.text.TMR_StartTimer,"ax",%progbits
 205              		.align	2
 206              		.global	TMR_StartTimer
 207              		.thumb
 208              		.thumb_func
 209              		.type	TMR_StartTimer, %function
 210              	TMR_StartTimer:
 211              	.LFB59:
  51:.\tmr.c       **** 
  52:.\tmr.c       **** /*******************************************************/
  53:.\tmr.c       **** void TMR_StartTimer(uint8 numTimer)
  54:.\tmr.c       **** {
 212              		.loc 1 54 0
 213              		.cfi_startproc
 214              		@ args = 0, pretend = 0, frame = 8
 215              		@ frame_needed = 1, uses_anonymous_args = 0
 216              		@ link register save eliminated.
 217 0000 80B4     		push	{r7}
 218              	.LCFI7:
 219              		.cfi_def_cfa_offset 4
 220              		.cfi_offset 7, -4
 221 0002 83B0     		sub	sp, sp, #12
 222              	.LCFI8:
 223              		.cfi_def_cfa_offset 16
 224 0004 00AF     		add	r7, sp, #0
 225              	.LCFI9:
 226              		.cfi_def_cfa_register 7
 227 0006 0346     		mov	r3, r0
ARM GAS  C:\Users\Martin\AppData\Local\Temp\ccS48Jlv.s 			page 6


 228 0008 FB71     		strb	r3, [r7, #7]
  55:.\tmr.c       **** 	Timer[numTimer].count = 0;
 229              		.loc 1 55 0
 230 000a FA79     		ldrb	r2, [r7, #7]	@ zero_extendqisi2
 231 000c 40F20003 		movw	r3, #:lower16:Timer
 232 0010 C0F20003 		movt	r3, #:upper16:Timer
 233 0014 4FEA0212 		lsl	r2, r2, #4
 234 0018 9B18     		adds	r3, r3, r2
 235 001a 4FF00002 		mov	r2, #0
 236 001e 1A60     		str	r2, [r3, #0]
  56:.\tmr.c       **** 	Timer[numTimer].status = TIMER_ENABLED;
 237              		.loc 1 56 0
 238 0020 FA79     		ldrb	r2, [r7, #7]	@ zero_extendqisi2
 239 0022 40F20003 		movw	r3, #:lower16:Timer
 240 0026 C0F20003 		movt	r3, #:upper16:Timer
 241 002a 4FEA0212 		lsl	r2, r2, #4
 242 002e 9B18     		adds	r3, r3, r2
 243 0030 03F10803 		add	r3, r3, #8
 244 0034 4FF00102 		mov	r2, #1
 245 0038 5A71     		strb	r2, [r3, #5]
  57:.\tmr.c       **** }
 246              		.loc 1 57 0
 247 003a 07F10C07 		add	r7, r7, #12
 248 003e BD46     		mov	sp, r7
 249 0040 80BC     		pop	{r7}
 250 0042 7047     		bx	lr
 251              		.cfi_endproc
 252              	.LFE59:
 253              		.size	TMR_StartTimer, .-TMR_StartTimer
 254              		.section	.text.TMR_StopTimer,"ax",%progbits
 255              		.align	2
 256              		.global	TMR_StopTimer
 257              		.thumb
 258              		.thumb_func
 259              		.type	TMR_StopTimer, %function
 260              	TMR_StopTimer:
 261              	.LFB60:
  58:.\tmr.c       **** 
  59:.\tmr.c       **** /*******************************************************/
  60:.\tmr.c       **** void TMR_StopTimer(uint8 numTimer)
  61:.\tmr.c       **** {
 262              		.loc 1 61 0
 263              		.cfi_startproc
 264              		@ args = 0, pretend = 0, frame = 8
 265              		@ frame_needed = 1, uses_anonymous_args = 0
 266              		@ link register save eliminated.
 267 0000 80B4     		push	{r7}
 268              	.LCFI10:
 269              		.cfi_def_cfa_offset 4
 270              		.cfi_offset 7, -4
 271 0002 83B0     		sub	sp, sp, #12
 272              	.LCFI11:
 273              		.cfi_def_cfa_offset 16
 274 0004 00AF     		add	r7, sp, #0
 275              	.LCFI12:
 276              		.cfi_def_cfa_register 7
 277 0006 0346     		mov	r3, r0
ARM GAS  C:\Users\Martin\AppData\Local\Temp\ccS48Jlv.s 			page 7


 278 0008 FB71     		strb	r3, [r7, #7]
  62:.\tmr.c       **** 	Timer[numTimer].count = 0;
 279              		.loc 1 62 0
 280 000a FA79     		ldrb	r2, [r7, #7]	@ zero_extendqisi2
 281 000c 40F20003 		movw	r3, #:lower16:Timer
 282 0010 C0F20003 		movt	r3, #:upper16:Timer
 283 0014 4FEA0212 		lsl	r2, r2, #4
 284 0018 9B18     		adds	r3, r3, r2
 285 001a 4FF00002 		mov	r2, #0
 286 001e 1A60     		str	r2, [r3, #0]
  63:.\tmr.c       **** 	Timer[numTimer].status = TIMER_DISABLED;
 287              		.loc 1 63 0
 288 0020 FA79     		ldrb	r2, [r7, #7]	@ zero_extendqisi2
 289 0022 40F20003 		movw	r3, #:lower16:Timer
 290 0026 C0F20003 		movt	r3, #:upper16:Timer
 291 002a 4FEA0212 		lsl	r2, r2, #4
 292 002e 9B18     		adds	r3, r3, r2
 293 0030 03F10803 		add	r3, r3, #8
 294 0034 4FF00002 		mov	r2, #0
 295 0038 5A71     		strb	r2, [r3, #5]
  64:.\tmr.c       **** }
 296              		.loc 1 64 0
 297 003a 07F10C07 		add	r7, r7, #12
 298 003e BD46     		mov	sp, r7
 299 0040 80BC     		pop	{r7}
 300 0042 7047     		bx	lr
 301              		.cfi_endproc
 302              	.LFE60:
 303              		.size	TMR_StopTimer, .-TMR_StopTimer
 304              		.section	.text.TMR_HandleTask,"ax",%progbits
 305              		.align	2
 306              		.global	TMR_HandleTask
 307              		.thumb
 308              		.thumb_func
 309              		.type	TMR_HandleTask, %function
 310              	TMR_HandleTask:
 311              	.LFB61:
  65:.\tmr.c       **** 
  66:.\tmr.c       **** 
  67:.\tmr.c       **** /*******************************************************/
  68:.\tmr.c       **** void TMR_HandleTask(void)
  69:.\tmr.c       **** {
 312              		.loc 1 69 0
 313              		.cfi_startproc
 314              		@ args = 0, pretend = 0, frame = 8
 315              		@ frame_needed = 1, uses_anonymous_args = 0
 316 0000 80B5     		push	{r7, lr}
 317              	.LCFI13:
 318              		.cfi_def_cfa_offset 8
 319              		.cfi_offset 7, -8
 320              		.cfi_offset 14, -4
 321 0002 82B0     		sub	sp, sp, #8
 322              	.LCFI14:
 323              		.cfi_def_cfa_offset 16
 324 0004 00AF     		add	r7, sp, #0
 325              	.LCFI15:
 326              		.cfi_def_cfa_register 7
ARM GAS  C:\Users\Martin\AppData\Local\Temp\ccS48Jlv.s 			page 8


  70:.\tmr.c       **** 	uint8 i;
  71:.\tmr.c       **** 	uint32 timediff;
  72:.\tmr.c       **** 	
  73:.\tmr.c       **** 	/* get new time */
  74:.\tmr.c       **** 	NewTime = TIMER_ReadCounter();
 327              		.loc 1 74 0
 328 0006 FFF7FEFF 		bl	TIMER_ReadCounter
 329 000a 0246     		mov	r2, r0
 330 000c 40F20003 		movw	r3, #:lower16:NewTime
 331 0010 C0F20003 		movt	r3, #:upper16:NewTime
 332 0014 1A60     		str	r2, [r3, #0]
  75:.\tmr.c       **** 	
  76:.\tmr.c       **** 	/* this variable is set by isr when timer runs over */
  77:.\tmr.c       **** 	if (TimerOverrun == TRUE)
 333              		.loc 1 77 0
 334 0016 40F20003 		movw	r3, #:lower16:TimerOverrun
 335 001a C0F20003 		movt	r3, #:upper16:TimerOverrun
 336 001e 1B78     		ldrb	r3, [r3, #0]	@ zero_extendqisi2
 337 0020 012B     		cmp	r3, #1
 338 0022 18D1     		bne	.L8
  78:.\tmr.c       **** 	{
  79:.\tmr.c       **** 		timediff = TIMER_PERIOD_1000SEC - OldTime + NewTime;
 339              		.loc 1 79 0
 340 0024 40F20003 		movw	r3, #:lower16:NewTime
 341 0028 C0F20003 		movt	r3, #:upper16:NewTime
 342 002c 1A68     		ldr	r2, [r3, #0]
 343 002e 40F20003 		movw	r3, #:lower16:OldTime
 344 0032 C0F20003 		movt	r3, #:upper16:OldTime
 345 0036 1B68     		ldr	r3, [r3, #0]
 346 0038 D21A     		subs	r2, r2, r3
 347 003a 4FF44A43 		mov	r3, #51712
 348 003e C3F69A33 		movt	r3, 15258
 349 0042 D318     		adds	r3, r2, r3
 350 0044 3B60     		str	r3, [r7, #0]
  80:.\tmr.c       **** 		TimerOverrun = FALSE;
 351              		.loc 1 80 0
 352 0046 40F20003 		movw	r3, #:lower16:TimerOverrun
 353 004a C0F20003 		movt	r3, #:upper16:TimerOverrun
 354 004e 4FF00002 		mov	r2, #0
 355 0052 1A70     		strb	r2, [r3, #0]
 356 0054 0BE0     		b	.L9
 357              	.L8:
  81:.\tmr.c       **** 	}
  82:.\tmr.c       **** 	else
  83:.\tmr.c       **** 	{
  84:.\tmr.c       **** 		timediff = NewTime - OldTime;
 358              		.loc 1 84 0
 359 0056 40F20003 		movw	r3, #:lower16:NewTime
 360 005a C0F20003 		movt	r3, #:upper16:NewTime
 361 005e 1A68     		ldr	r2, [r3, #0]
 362 0060 40F20003 		movw	r3, #:lower16:OldTime
 363 0064 C0F20003 		movt	r3, #:upper16:OldTime
 364 0068 1B68     		ldr	r3, [r3, #0]
 365 006a D31A     		subs	r3, r2, r3
 366 006c 3B60     		str	r3, [r7, #0]
 367              	.L9:
  85:.\tmr.c       **** 	}
ARM GAS  C:\Users\Martin\AppData\Local\Temp\ccS48Jlv.s 			page 9


  86:.\tmr.c       **** 	
  87:.\tmr.c       **** 	OldTime = NewTime;
 368              		.loc 1 87 0
 369 006e 40F20003 		movw	r3, #:lower16:NewTime
 370 0072 C0F20003 		movt	r3, #:upper16:NewTime
 371 0076 1A68     		ldr	r2, [r3, #0]
 372 0078 40F20003 		movw	r3, #:lower16:OldTime
 373 007c C0F20003 		movt	r3, #:upper16:OldTime
 374 0080 1A60     		str	r2, [r3, #0]
  88:.\tmr.c       **** 	
  89:.\tmr.c       **** 	/* update timers */
  90:.\tmr.c       **** 	for (i=0; i<MAX_TIMERS; i++)
 375              		.loc 1 90 0
 376 0082 4FF00003 		mov	r3, #0
 377 0086 FB71     		strb	r3, [r7, #7]
 378 0088 6BE0     		b	.L10
 379              	.L13:
  91:.\tmr.c       **** 	{
  92:.\tmr.c       **** 		if (Timer[i].status == TIMER_ENABLED)
 380              		.loc 1 92 0
 381 008a FA79     		ldrb	r2, [r7, #7]	@ zero_extendqisi2
 382 008c 40F20003 		movw	r3, #:lower16:Timer
 383 0090 C0F20003 		movt	r3, #:upper16:Timer
 384 0094 4FEA0212 		lsl	r2, r2, #4
 385 0098 9B18     		adds	r3, r3, r2
 386 009a 03F10803 		add	r3, r3, #8
 387 009e 5B79     		ldrb	r3, [r3, #5]	@ zero_extendqisi2
 388 00a0 012B     		cmp	r3, #1
 389 00a2 5AD1     		bne	.L11
  93:.\tmr.c       **** 		{
  94:.\tmr.c       **** 			/* increase timer */
  95:.\tmr.c       **** 			Timer[i].count += timediff;
 390              		.loc 1 95 0
 391 00a4 F979     		ldrb	r1, [r7, #7]	@ zero_extendqisi2
 392 00a6 FA79     		ldrb	r2, [r7, #7]	@ zero_extendqisi2
 393 00a8 40F20003 		movw	r3, #:lower16:Timer
 394 00ac C0F20003 		movt	r3, #:upper16:Timer
 395 00b0 4FEA0212 		lsl	r2, r2, #4
 396 00b4 9B18     		adds	r3, r3, r2
 397 00b6 1A68     		ldr	r2, [r3, #0]
 398 00b8 3B68     		ldr	r3, [r7, #0]
 399 00ba D218     		adds	r2, r2, r3
 400 00bc 40F20003 		movw	r3, #:lower16:Timer
 401 00c0 C0F20003 		movt	r3, #:upper16:Timer
 402 00c4 4FEA0111 		lsl	r1, r1, #4
 403 00c8 5B18     		adds	r3, r3, r1
 404 00ca 1A60     		str	r2, [r3, #0]
  96:.\tmr.c       **** 			if (Timer[i].count >= Timer[i].value)
 405              		.loc 1 96 0
 406 00cc FA79     		ldrb	r2, [r7, #7]	@ zero_extendqisi2
 407 00ce 40F20003 		movw	r3, #:lower16:Timer
 408 00d2 C0F20003 		movt	r3, #:upper16:Timer
 409 00d6 4FEA0212 		lsl	r2, r2, #4
 410 00da 9B18     		adds	r3, r3, r2
 411 00dc 1A68     		ldr	r2, [r3, #0]
 412 00de F979     		ldrb	r1, [r7, #7]	@ zero_extendqisi2
 413 00e0 40F20003 		movw	r3, #:lower16:Timer
ARM GAS  C:\Users\Martin\AppData\Local\Temp\ccS48Jlv.s 			page 10


 414 00e4 C0F20003 		movt	r3, #:upper16:Timer
 415 00e8 4FEA0111 		lsl	r1, r1, #4
 416 00ec 5B18     		adds	r3, r3, r1
 417 00ee 03F10403 		add	r3, r3, #4
 418 00f2 1B68     		ldr	r3, [r3, #0]
 419 00f4 9A42     		cmp	r2, r3
 420 00f6 30D3     		bcc	.L11
  97:.\tmr.c       **** 			{
  98:.\tmr.c       **** 				/* call timer down function */
  99:.\tmr.c       **** 				Timer[i].func();
 421              		.loc 1 99 0
 422 00f8 FA79     		ldrb	r2, [r7, #7]	@ zero_extendqisi2
 423 00fa 40F20003 		movw	r3, #:lower16:Timer
 424 00fe C0F20003 		movt	r3, #:upper16:Timer
 425 0102 4FEA0212 		lsl	r2, r2, #4
 426 0106 9B18     		adds	r3, r3, r2
 427 0108 03F10803 		add	r3, r3, #8
 428 010c 1B68     		ldr	r3, [r3, #0]
 429 010e 9847     		blx	r3
 100:.\tmr.c       **** 				if (Timer[i].mode != TIMER_MODE_CONTINUOUS)
 430              		.loc 1 100 0
 431 0110 FA79     		ldrb	r2, [r7, #7]	@ zero_extendqisi2
 432 0112 40F20003 		movw	r3, #:lower16:Timer
 433 0116 C0F20003 		movt	r3, #:upper16:Timer
 434 011a 4FEA0212 		lsl	r2, r2, #4
 435 011e 9B18     		adds	r3, r3, r2
 436 0120 03F10803 		add	r3, r3, #8
 437 0124 1B79     		ldrb	r3, [r3, #4]	@ zero_extendqisi2
 438 0126 022B     		cmp	r3, #2
 439 0128 0CD0     		beq	.L12
 101:.\tmr.c       **** 				{
 102:.\tmr.c       **** 					Timer[i].status = TIMER_DISABLED;
 440              		.loc 1 102 0
 441 012a FA79     		ldrb	r2, [r7, #7]	@ zero_extendqisi2
 442 012c 40F20003 		movw	r3, #:lower16:Timer
 443 0130 C0F20003 		movt	r3, #:upper16:Timer
 444 0134 4FEA0212 		lsl	r2, r2, #4
 445 0138 9B18     		adds	r3, r3, r2
 446 013a 03F10803 		add	r3, r3, #8
 447 013e 4FF00002 		mov	r2, #0
 448 0142 5A71     		strb	r2, [r3, #5]
 449              	.L12:
 103:.\tmr.c       **** 				}
 104:.\tmr.c       **** 				Timer[i].count = 0;
 450              		.loc 1 104 0
 451 0144 FA79     		ldrb	r2, [r7, #7]	@ zero_extendqisi2
 452 0146 40F20003 		movw	r3, #:lower16:Timer
 453 014a C0F20003 		movt	r3, #:upper16:Timer
 454 014e 4FEA0212 		lsl	r2, r2, #4
 455 0152 9B18     		adds	r3, r3, r2
 456 0154 4FF00002 		mov	r2, #0
 457 0158 1A60     		str	r2, [r3, #0]
 458              	.L11:
  90:.\tmr.c       **** 	for (i=0; i<MAX_TIMERS; i++)
 459              		.loc 1 90 0
 460 015a FB79     		ldrb	r3, [r7, #7]
 461 015c 03F10103 		add	r3, r3, #1
ARM GAS  C:\Users\Martin\AppData\Local\Temp\ccS48Jlv.s 			page 11


 462 0160 FB71     		strb	r3, [r7, #7]
 463              	.L10:
  90:.\tmr.c       **** 	for (i=0; i<MAX_TIMERS; i++)
 464              		.loc 1 90 0 is_stmt 0 discriminator 1
 465 0162 FB79     		ldrb	r3, [r7, #7]	@ zero_extendqisi2
 466 0164 092B     		cmp	r3, #9
 467 0166 90D9     		bls	.L13
 105:.\tmr.c       **** 			}
 106:.\tmr.c       **** 		}
 107:.\tmr.c       **** 	}
 108:.\tmr.c       **** 	
 109:.\tmr.c       **** 	
 110:.\tmr.c       **** }
 468              		.loc 1 110 0 is_stmt 1
 469 0168 07F10807 		add	r7, r7, #8
 470 016c BD46     		mov	sp, r7
 471 016e 80BD     		pop	{r7, pc}
 472              		.cfi_endproc
 473              	.LFE61:
 474              		.size	TMR_HandleTask, .-TMR_HandleTask
 475              		.text
 476              	.Letext0:
 477              		.file 2 "c:\\program files (x86)\\cypress\\psoc creator\\3.0\\psoc creator\\import\\gnu_cs\\arm\\4
 478              		.file 3 "./Generated_Source/PSoC5/cytypes.h"
 479              		.file 4 ".\\tmr.h"
 480              		.file 5 "./Generated_Source/PSoC5/core_cm3.h"