ARM GAS  C:\Users\Martin\AppData\Local\Temp\ccS48Jlv.s 			page 1


   1              		.syntax unified
   2              		.cpu cortex-m3
   3              		.fpu softvfp
   4              		.eabi_attribute 20, 1
   5              		.eabi_attribute 21, 1
   6              		.eabi_attribute 23, 3
   7              		.eabi_attribute 24, 1
   8              		.eabi_attribute 25, 1
   9              		.eabi_attribute 26, 1
  10              		.eabi_attribute 30, 6
  11              		.eabi_attribute 34, 1
  12              		.eabi_attribute 18, 4
  13              		.thumb
  14              		.file	"tmr.c"
  15              		.text
  16              	.Ltext0:
  17              		.cfi_sections	.debug_frame
  18              		.bss
  19              	TimerOverrun:
  20 0000 00       		.space	1
  21 0001 000000   		.align	2
  22              	Timer:
  23 0004 00000000 		.space	160
  23      00000000 
  23      00000000 
  23      00000000 
  23      00000000 
  24              		.align	2
  25              	NewTime:
  26 00a4 00000000 		.space	4
  27              		.align	2
  28              	OldTime:
  29 00a8 00000000 		.space	4
  30              		.section	.text.isr_timer_routine,"ax",%progbits
  31              		.align	2
  32              		.global	isr_timer_routine
  33              		.thumb
  34              		.thumb_func
  35              		.type	isr_timer_routine, %function
  36              	isr_timer_routine:
  37              	.LFB56:
  38              		.file 1 ".\\tmr.c"
   1:.\tmr.c       **** /* Copyright (C) <2014> <Martin Schalk>
   2:.\tmr.c       ****  * All rights reserved.
   3:.\tmr.c       ****  *
   4:.\tmr.c       ****  * This software may be modified and distributed under the terms
   5:.\tmr.c       ****  * of the BSD license.  See the LICENSE file for details.
   6:.\tmr.c       ****  */
   7:.\tmr.c       **** 
   8:.\tmr.c       **** 
   9:.\tmr.c       **** #include <project.h>
  10:.\tmr.c       **** #include "types.h"
  11:.\tmr.c       **** #include "timer.h"
  12:.\tmr.c       **** #include "tmr.h"
  13:.\tmr.c       **** #include "global.h"
  14:.\tmr.c       **** 
  15:.\tmr.c       **** static BOOL 	TimerOverrun = FALSE;
ARM GAS  C:\Users\Martin\AppData\Local\Temp\ccS48Jlv.s 			page 2


  16:.\tmr.c       **** static TIMER 	Timer[MAX_TIMERS];
  17:.\tmr.c       **** static uint32	NewTime, OldTime;
  18:.\tmr.c       **** 
  19:.\tmr.c       **** /*******************************************************/
  20:.\tmr.c       **** CY_ISR(isr_timer_routine)
  21:.\tmr.c       **** {
  39              		.loc 1 21 0
  40              		.cfi_startproc
  41              		@ args = 0, pretend = 0, frame = 0
  42              		@ frame_needed = 1, uses_anonymous_args = 0
  43              		@ link register save eliminated.
  44 0000 80B4     		push	{r7}
  45              	.LCFI0:
  46              		.cfi_def_cfa_offset 4
  47              		.cfi_offset 7, -4
  48 0002 00AF     		add	r7, sp, #0
  49              	.LCFI1:
  50              		.cfi_def_cfa_register 7
  22:.\tmr.c       **** 	TimerOverrun = TRUE;
  51              		.loc 1 22 0
  52 0004 40F20003 		movw	r3, #:lower16:TimerOverrun
  53 0008 C0F20003 		movt	r3, #:upper16:TimerOverrun
  54 000c 4FF00102 		mov	r2, #1
  55 0010 1A70     		strb	r2, [r3, #0]
  23:.\tmr.c       **** }
  56              		.loc 1 23 0
  57 0012 BD46     		mov	sp, r7
  58 0014 80BC     		pop	{r7}
  59 0016 7047     		bx	lr
  60              		.cfi_endproc
  61              	.LFE56:
  62              		.size	isr_timer_routine, .-isr_timer_routine
  63              		.section	.text.TMR_Init,"ax",%progbits
  64              		.align	2
  65              		.global	TMR_Init
  66              		.thumb
  67              		.thumb_func
  68              		.type	TMR_Init, %function
  69              	TMR_Init:
  70              	.LFB57:
  24:.\tmr.c       **** 
  25:.\tmr.c       **** 
  26:.\tmr.c       **** /*******************************************************/
  27:.\tmr.c       **** STATUS 	TMR_Init(void)
  28:.\tmr.c       **** {
  71              		.loc 1 28 0
  72              		.cfi_startproc
  73              		@ args = 0, pretend = 0, frame = 0
  74              		@ frame_needed = 1, uses_anonymous_args = 0
  75 0000 80B5     		push	{r7, lr}
  76              	.LCFI2:
  77              		.cfi_def_cfa_offset 8
  78              		.cfi_offset 7, -8
  79              		.cfi_offset 14, -4
  80 0002 00AF     		add	r7, sp, #0
  81              	.LCFI3:
  82              		.cfi_def_cfa_register 7
ARM GAS  C:\Users\Martin\AppData\Local\Temp\ccS48Jlv.s 			page 3


  29:.\tmr.c       **** 	NewTime = OldTime = 0;
  83              		.loc 1 29 0
  84 0004 40F20003 		movw	r3, #:lower16:OldTime
  85 0008 C0F20003 		movt	r3, #:upper16:OldTime
  86 000c 4FF00002 		mov	r2, #0
  87 0010 1A60     		str	r2, [r3, #0]
  88 0012 40F20003 		movw	r3, #:lower16:OldTime
  89 0016 C0F20003 		movt	r3, #:upper16:OldTime
  90 001a 1A68     		ldr	r2, [r3, #0]
  91 001c 40F20003 		movw	r3, #:lower16:NewTime
  92 0020 C0F20003 		movt	r3, #:upper16:NewTime
  93 0024 1A60     		str	r2, [r3, #0]
  30:.\tmr.c       **** 	memset(Timer, 0, sizeof(Timer));
  94              		.loc 1 30 0
  95 0026 40F20000 		movw	r0, #:lower16:Timer
  96 002a C0F20000 		movt	r0, #:upper16:Timer
  97 002e 4FF00001 		mov	r1, #0
  98 0032 4FF0A002 		mov	r2, #160
  99 0036 FFF7FEFF 		bl	memset
  31:.\tmr.c       **** 	
  32:.\tmr.c       **** 	TIMER_Init();
 100              		.loc 1 32 0
 101 003a FFF7FEFF 		bl	TIMER_Init
  33:.\tmr.c       **** 	Isr_timer_SetVector(isr_timer_routine);
 102              		.loc 1 33 0
 103 003e 40F20000 		movw	r0, #:lower16:isr_timer_routine
 104 0042 C0F20000 		movt	r0, #:upper16:isr_timer_routine
 105 0046 FFF7FEFF 		bl	Isr_timer_SetVector
  34:.\tmr.c       **** 	Isr_timer_Start();
 106              		.loc 1 34 0
 107 004a FFF7FEFF 		bl	Isr_timer_Start
  35:.\tmr.c       **** 	TIMER_WritePeriod(TIMER_PERIOD_1000SEC); //clock 1MHz
 108              		.loc 1 35 0
 109 004e 4FF44A40 		mov	r0, #51712
 110 0052 C3F69A30 		movt	r0, 15258
 111 0056 FFF7FEFF 		bl	TIMER_WritePeriod
  36:.\tmr.c       **** 	TIMER_Enable();
 112              		.loc 1 36 0
 113 005a FFF7FEFF 		bl	TIMER_Enable
  37:.\tmr.c       **** 	TIMER_CLOCK_Start();
 114              		.loc 1 37 0
 115 005e FFF7FEFF 		bl	TIMER_CLOCK_Start
  38:.\tmr.c       **** 	
  39:.\tmr.c       **** 	return SUCCESS;
 116              		.loc 1 39 0
 117 0062 4FF00003 		mov	r3, #0
  40:.\tmr.c       **** }
 118              		.loc 1 40 0
 119 0066 1846     		mov	r0, r3
 120 0068 80BD     		pop	{r7, pc}
 121              		.cfi_endproc
 122              	.LFE57:
 123              		.size	TMR_Init, .-TMR_Init
 124 006a 00BF     		.section	.text.TMR_SetTimer,"ax",%progbits
 125              		.align	2
 126              		.global	TMR_SetTimer
 127              		.thumb
ARM GAS  C:\Users\Martin\AppData\Local\Temp\ccS48Jlv.s 			page 4


 128              		.thumb_func
 129              		.type	TMR_SetTimer, %function
 130              	TMR_SetTimer:
 131              	.LFB58:
  41:.\tmr.c       **** 
  42:.\tmr.c       **** /*******************************************************/
  43:.\tmr.c       **** void TMR_SetTimer(uint8 numTimer, uint32 us, TMR_FUNC func, uint8 mode, uint8 status)
  44:.\tmr.c       **** {
 132              		.loc 1 44 0
 133              		.cfi_startproc
 134              		@ args = 4, pretend = 0, frame = 16
 135              		@ frame_needed = 1, uses_anonymous_args = 0
 136              		@ link register save eliminated.
 137 0000 80B4     		push	{r7}
 138              	.LCFI4:
 139              		.cfi_def_cfa_offset 4
 140              		.cfi_offset 7, -4
 141 0002 85B0     		sub	sp, sp, #20
 142              	.LCFI5:
 143              		.cfi_def_cfa_offset 24
 144 0004 00AF     		add	r7, sp, #0
 145              	.LCFI6:
 146              		.cfi_def_cfa_register 7
 147 0006 B960     		str	r1, [r7, #8]
 148 0008 7A60     		str	r2, [r7, #4]
 149 000a 0246     		mov	r2, r0
 150 000c FA73     		strb	r2, [r7, #15]
 151 000e BB73     		strb	r3, [r7, #14]
  45:.\tmr.c       **** 	Timer[numTimer].count = 0;
 152              		.loc 1 45 0
 153 0010 FA7B     		ldrb	r2, [r7, #15]	@ zero_extendqisi2
 154 0012 40F20003 		movw	r3, #:lower16:Timer
 155 0016 C0F20003 		movt	r3, #:upper16:Timer
 156 001a 4FEA0212 		lsl	r2, r2, #4
 157 001e 9B18     		adds	r3, r3, r2
 158 0020 4FF00002 		mov	r2, #0
 159 0024 1A60     		str	r2, [r3, #0]
  46:.\tmr.c       **** 	Timer[numTimer].value = us;
 160              		.loc 1 46 0
 161 0026 FA7B     		ldrb	r2, [r7, #15]	@ zero_extendqisi2
 162 0028 40F20003 		movw	r3, #:lower16:Timer
 163 002c C0F20003 		movt	r3, #:upper16:Timer
 164 0030 4FEA0212 		lsl	r2, r2, #4
 165 0034 9B18     		adds	r3, r3, r2
 166 0036 03F10403 		add	r3, r3, #4
 167 003a BA68     		ldr	r2, [r7, #8]
 168 003c 1A60     		str	r2, [r3, #0]
  47:.\tmr.c       **** 	Timer[numTimer].func = func;
 169              		.loc 1 47 0
 170 003e FA7B     		ldrb	r2, [r7, #15]	@ zero_extendqisi2
 171 0040 40F20003 		movw	r3, #:lower16:Timer
 172 0044 C0F20003 		movt	r3, #:upper16:Timer
 173 0048 4FEA0212 		lsl	r2, r2, #4
 174 004c 9B18     		adds	r3, r3, r2
 175 004e 03F10803 		add	r3, r3, #8
 176 0052 7A68     		ldr	r2, [r7, #4]
 177 0054 1A60     		str	r2, [r3, #0]
ARM GAS  C:\Users\Martin\AppData\Local\Temp\ccS48Jlv.s 			page 5


  48:.\tmr.c       **** 	Timer[numTimer].mode = mode;
 178              		.loc 1 48 0
 179 0056 FA7B     		ldrb	r2, [r7, #15]	@ zero_extendqisi2
 180 0058 40F20003 		movw	r3, #:lower16:Timer
 181 005c C0F20003 		movt	r3, #:upper16:Timer
 182 0060 4FEA0212 		lsl	r2, r2, #4
 183 0064 9B18     		adds	r3, r3, r2
 184 0066 03F10803 		add	r3, r3, #8
 185 006a BA7B     		ldrb	r2, [r7, #14]
 186 006c 1A71     		strb	r2, [r3, #4]
  49:.\tmr.c       **** 	Timer[numTimer].status = status;
 187              		.loc 1 49 0
 188 006e FA7B     		ldrb	r2, [r7, #15]	@ zero_extendqisi2
 189 0070 40F20003 		movw	r3, #:lower16:Timer
 190 0074 C0F20003 		movt	r3, #:upper16:Timer
 191 0078 4FEA0212 		lsl	r2, r2, #4
 192 007c 9B18     		adds	r3, r3, r2
 193 007e 03F10803 		add	r3, r3, #8
 194 0082 3A7E     		ldrb	r2, [r7, #24]
 195 0084 5A71     		strb	r2, [r3, #5]
  50:.\tmr.c       **** }
 196              		.loc 1 50 0
 197 0086 07F11407 		add	r7, r7, #20
 198 008a BD46     		mov	sp, r7
 199 008c 80BC     		pop	{r7}
 200 008e 7047     		bx	lr
 201              		.cfi_endproc
 202              	.LFE58:
 203              		.size	TMR_SetTimer, .-TMR_SetTimer
 204              		.section	.text.TMR_StartTimer,"ax",%progbits
 205              		.align	2
 206              		.global	TMR_StartTimer
 207              		.thumb
 208              		.thumb_func
 209              		.type	TMR_StartTimer, %function
 210              	TMR_StartTimer:
 211              	.LFB59:
  51:.\tmr.c       **** 
  52:.\tmr.c       **** /*******************************************************/
  53:.\tmr.c       **** void TMR_StartTimer(uint8 numTimer)
  54:.\tmr.c       **** {
 212              		.loc 1 54 0
 213              		.cfi_startproc
 214              		@ args = 0, pretend = 0, frame = 8
 215              		@ frame_needed = 1, uses_anonymous_args = 0
 216              		@ link register save eliminated.
 217 0000 80B4     		push	{r7}
 218              	.LCFI7:
 219              		.cfi_def_cfa_offset 4
 220              		.cfi_offset 7, -4
 221 0002 83B0     		sub	sp, sp, #12
 222              	.LCFI8:
 223              		.cfi_def_cfa_offset 16
 224 0004 00AF     		add	r7, sp, #0
 225              	.LCFI9:
 226              		.cfi_def_cfa_register 7
 227 0006 0346     		mov	r3, r0
ARM GAS  C:\Users\Martin\AppData\Local\Temp\ccS48Jlv.s 			page 6


 228 0008 FB71     		strb	r3, [r7, #7]
  55:.\tmr.c       **** 	Timer[numTimer].count = 0;
 229              		.loc 1 55 0
 230 000a FA79     		ldrb	r2, [r7, #7]	@ zero_extendqisi2
 231 000c 40F20003 		movw	r3, #:lower16:Timer
 232 0010 C0F20003 		movt	r3, #:upper16:Timer
 233 0014 4FEA0212 		lsl	r2, r2, #4
 234 0018 9B18     		adds	r3, r3, r2
 235 001a 4FF00002 		mov	r2, #0
 236 001e 1A60     		str	r2, [r3, #0]
  56:.\tmr.c       **** 	Timer[numTimer].status = TIMER_ENABLED;
 237              		.loc 1 56 0
 238 0020 FA79     		ldrb	r2, [r7, #7]	@ zero_extendqisi2
 239 0022 40F20003 		movw	r3, #:lower16:Timer
 240 0026 C0F20003 		movt	r3, #:upper16:Timer
 241 002a 4FEA0212 		lsl	r2, r2, #4
 242 002e 9B18     		adds	r3, r3, r2
 243 0030 03F10803 		add	r3, r3, #8
 244 0034 4FF00102 		mov	r2, #1
 245 0038 5A71     		strb	r2, [r3, #5]
  57:.\tmr.c       **** }
 246              		.loc 1 57 0
 247 003a 07F10C07 		add	r7, r7, #12
 248 003e BD46     		mov	sp, r7
 249 0040 80BC     		pop	{r7}
 250 0042 7047     		bx	lr
 251              		.cfi_endproc
 252              	.LFE59:
 253              		.size	TMR_StartTimer, .-TMR_StartTimer
 254              		.section	.text.TMR_StopTimer,"ax",%progbits
 255              		.align	2
 256              		.global	TMR_StopTimer
 257              		.thumb
 258              		.thumb_func
 259              		.type	TMR_StopTimer, %function
 260              	TMR_StopTimer:
 261              	.LFB60:
  58:.\tmr.c       **** 
  59:.\tmr.c       **** /*******************************************************/
  60:.\tmr.c       **** void TMR_StopTimer(uint8 numTimer)
  61:.\tmr.c       **** {
 262              		.loc 1 61 0
 263              		.cfi_startproc
 264              		@ args = 0, pretend = 0, frame = 8
 265              		@ frame_needed = 1, uses_anonymous_args = 0
 266              		@ link register save eliminated.
 267 0000 80B4     		push	{r7}
 268              	.LCFI10:
 269              		.cfi_def_cfa_offset 4
 270              		.cfi_offset 7, -4
 271 0002 83B0     		sub	sp, sp, #12
 272              	.LCFI11:
 273              		.cfi_def_cfa_offset 16
 274 0004 00AF     		add	r7, sp, #0
 275              	.LCFI12:
 276              		.cfi_def_cfa_register 7
 277 0006 0346     		mov	r3, r0
ARM GAS  C:\Users\Martin\AppData\Local\Temp\ccS48Jlv.s 			page 7


 278 0008 FB71     		strb	r3, [r7, #7]
  62:.\tmr.c       **** 	Timer[numTimer].count = 0;
 279              		.loc 1 62 0
 280 000a FA79     		ldrb	r2, [r7, #7]	@ zero_extendqisi2
 281 000c 40F20003 		movw	r3, #:lower16:Timer
 282 0010 C0F20003 		movt	r3, #:upper16:Timer
 283 0014 4FEA0212 		lsl	r2, r2, #4
 284 0018 9B18     		adds	r3, r3, r2
 285 001a 4FF00002 		mov	r2, #0
 286 001e 1A60     		str	r2, [r3, #0]
  63:.\tmr.c       **** 	Timer[numTimer].status = TIMER_DISABLED;
 287              		.loc 1 63 0
 288 0020 FA79     		ldrb	r2, [r7, #7]	@ zero_extendqisi2
 289 0022 40F20003 		movw	r3, #:lower16:Timer
 290 0026 C0F20003 		movt	r3, #:upper16:Timer
 291 002a 4FEA0212 		lsl	r2, r2, #4
 292 002e 9B18     		adds	r3, r3, r2
 293 0030 03F10803 		add	r3, r3, #8
 294 0034 4FF00002 		mov	r2, #0
 295 0038 5A71     		strb	r2, [r3, #5]
  64:.\tmr.c       **** }
 296              		.loc 1 64 0
 297 003a 07F10C07 		add	r7, r7, #12
 298 003e BD46     		mov	sp, r7
 299 0040 80BC     		pop	{r7}
 300 0042 7047     		bx	lr
 301              		.cfi_endproc
 302              	.LFE60:
 303              		.size	TMR_StopTimer, .-TMR_StopTimer
 304              		.section	.text.TMR_HandleTask,"ax",%progbits
 305              		.align	2
 306              		.global	TMR_HandleTask
 307              		.thumb
 308              		.thumb_func
 309              		.type	TMR_HandleTask, %function
 310              	TMR_HandleTask:
 311              	.LFB61:
  65:.\tmr.c       **** 
  66:.\tmr.c       **** 
  67:.\tmr.c       **** /*******************************************************/
  68:.\tmr.c       **** void TMR_HandleTask(void)
  69:.\tmr.c       **** {
 312              		.loc 1 69 0
 313              		.cfi_startproc
 314              		@ args = 0, pretend = 0, frame = 8
 315              		@ frame_needed = 1, uses_anonymous_args = 0
 316 0000 80B5     		push	{r7, lr}
 317              	.LCFI13:
 318              		.cfi_def_cfa_offset 8
 319              		.cfi_offset 7, -8
 320              		.cfi_offset 14, -4
 321 0002 82B0     		sub	sp, sp, #8
 322              	.LCFI14:
 323              		.cfi_def_cfa_offset 16
 324 0004 00AF     		add	r7, sp, #0
 325              	.LCFI15:
 326              		.cfi_def_cfa_register 7
ARM GAS  C:\Users\Martin\AppData\Local\Temp\ccS48Jlv.s 			page 8


  70:.\tmr.c       **** 	uint8 i;
  71:.\tmr.c       **** 	uint32 timediff;
  72:.\tmr.c       **** 	
  73:.\tmr.c       **** 	/* get new time */
  74:.\tmr.c       **** 	NewTime = TIMER_ReadCounter();
 327              		.loc 1 74 0
 328 0006 FFF7FEFF 		bl	TIMER_ReadCounter
 329 000a 0246     		mov	r2, r0
 330 000c 40F20003 		movw	r3, #:lower16:NewTime
 331 0010 C0F20003 		movt	r3, #:upper16:NewTime
 332 0014 1A60     		str	r2, [r3, #0]
  75:.\tmr.c       **** 	
  76:.\tmr.c       **** 	/* this variable is set by isr when timer runs over */
  77:.\tmr.c       **** 	if (TimerOverrun == TRUE)
 333              		.loc 1 77 0
 334 0016 40F20003 		movw	r3, #:lower16:TimerOverrun
 335 001a C0F20003 		movt	r3, #:upper16:TimerOverrun
 336 001e 1B78     		ldrb	r3, [r3, #0]	@ zero_extendqisi2
 337 0020 012B     		cmp	r3, #1
 338 0022 18D1     		bne	.L8
  78:.\tmr.c       **** 	{
  79:.\tmr.c       **** 		timediff = TIMER_PERIOD_1000SEC - OldTime + NewTime;
 339              		.loc 1 79 0
 340 0024 40F20003 		movw	r3, #:lower16:NewTime
 341 0028 C0F20003 		movt	r3, #:upper16:NewTime
 342 002c 1A68     		ldr	r2, [r3, #0]
 343 002e 40F20003 		movw	r3, #:lower16:OldTime
 344 0032 C0F20003 		movt	r3, #:upper16:OldTime
 345 0036 1B68     		ldr	r3, [r3, #0]
 346 0038 D21A     		subs	r2, r2, r3
 347 003a 4FF44A43 		mov	r3, #51712
 348 003e C3F69A33 		movt	r3, 15258
 349 0042 D318     		adds	r3, r2, r3
 350 0044 3B60     		str	r3, [r7, #0]
  80:.\tmr.c       **** 		TimerOverrun = FALSE;
 351              		.loc 1 80 0
 352 0046 40F20003 		movw	r3, #:lower16:TimerOverrun
 353 004a C0F20003 		movt	r3, #:upper16:TimerOverrun
 354 004e 4FF00002 		mov	r2, #0
 355 0052 1A70     		strb	r2, [r3, #0]
 356 0054 0BE0     		b	.L9
 357              	.L8:
  81:.\tmr.c       **** 	}
  82:.\tmr.c       **** 	else
  83:.\tmr.c       **** 	{
  84:.\tmr.c       **** 		timediff = NewTime - OldTime;
 358              		.loc 1 84 0
 359 0056 40F20003 		movw	r3, #:lower16:NewTime
 360 005a C0F20003 		movt	r3, #:upper16:NewTime
 361 005e 1A68     		ldr	r2, [r3, #0]
 362 0060 40F20003 		movw	r3, #:lower16:OldTime
 363 0064 C0F20003 		movt	r3, #:upper16:OldTime
 364 0068 1B68     		ldr	r3, [r3, #0]
 365 006a D31A     		subs	r3, r2, r3
 366 006c 3B60     		str	r3, [r7, #0]
 367              	.L9:
  85:.\tmr.c       **** 	}
ARM GAS  C:\Users\Martin\AppData\Local\Temp\ccS48Jlv.s 			page 9


  86:.\tmr.c       **** 	
  87:.\tmr.c       **** 	OldTime = NewTime;
 368              		.loc 1 87 0
 369 006e 40F20003 		movw	r3, #:lower16:NewTime
 370 0072 C0F20003 		movt	r3, #:upper16:NewTime
 371 0076 1A68     		ldr	r2, [r3, #0]
 372 0078 40F20003 		movw	r3, #:lower16:OldTime
 373 007c C0F20003 		movt	r3, #:upper16:OldTime
 374 0080 1A60     		str	r2, [r3, #0]
  88:.\tmr.c       **** 	
  89:.\tmr.c       **** 	/* update timers */
  90:.\tmr.c       **** 	for (i=0; i<MAX_TIMERS; i++)
 375              		.loc 1 90 0
 376 0082 4FF00003 		mov	r3, #0
 377 0086 FB71     		strb	r3, [r7, #7]
 378 0088 6BE0     		b	.L10
 379              	.L13:
  91:.\tmr.c       **** 	{
  92:.\tmr.c       **** 		if (Timer[i].status == TIMER_ENABLED)
 380              		.loc 1 92 0
 381 008a FA79     		ldrb	r2, [r7, #7]	@ zero_extendqisi2
 382 008c 40F20003 		movw	r3, #:lower16:Timer
 383 0090 C0F20003 		movt	r3, #:upper16:Timer
 384 0094 4FEA0212 		lsl	r2, r2, #4
 385 0098 9B18     		adds	r3, r3, r2
 386 009a 03F10803 		add	r3, r3, #8
 387 009e 5B79     		ldrb	r3, [r3, #5]	@ zero_extendqisi2
 388 00a0 012B     		cmp	r3, #1
 389 00a2 5AD1     		bne	.L11
  93:.\tmr.c       **** 		{
  94:.\tmr.c       **** 			/* increase timer */
  95:.\tmr.c       **** 			Timer[i].count += timediff;
 390              		.loc 1 95 0
 391 00a4 F979     		ldrb	r1, [r7, #7]	@ zero_extendqisi2
 392 00a6 FA79     		ldrb	r2, [r7, #7]	@ zero_extendqisi2
 393 00a8 40F20003 		movw	r3, #:lower16:Timer
 394 00ac C0F20003 		movt	r3, #:upper16:Timer
 395 00b0 4FEA0212 		lsl	r2, r2, #4
 396 00b4 9B18     		adds	r3, r3, r2
 397 00b6 1A68     		ldr	r2, [r3, #0]
 398 00b8 3B68     		ldr	r3, [r7, #0]
 399 00ba D218     		adds	r2, r2, r3
 400 00bc 40F20003 		movw	r3, #:lower16:Timer
 401 00c0 C0F20003 		movt	r3, #:upper16:Timer
 402 00c4 4FEA0111 		lsl	r1, r1, #4
 403 00c8 5B18     		adds	r3, r3, r1
 404 00ca 1A60     		str	r2, [r3, #0]
  96:.\tmr.c       **** 			if (Timer[i].count >= Timer[i].value)
 405              		.loc 1 96 0
 406 00cc FA79     		ldrb	r2, [r7, #7]	@ zero_extendqisi2
 407 00ce 40F20003 		movw	r3, #:lower16:Timer
 408 00d2 C0F20003 		movt	r3, #:upper16:Timer
 409 00d6 4FEA0212 		lsl	r2, r2, #4
 410 00da 9B18     		adds	r3, r3, r2
 411 00dc 1A68     		ldr	r2, [r3, #0]
 412 00de F979     		ldrb	r1, [r7, #7]	@ zero_extendqisi2
 413 00e0 40F20003 		movw	r3, #:lower16:Timer
ARM GAS  C:\Users\Martin\AppData\Local\Temp\ccS48Jlv.s 			page 10


 414 00e4 C0F20003 		movt	r3, #:upper16:Timer
 415 00e8 4FEA0111 		lsl	r1, r1, #4
 416 00ec 5B18     		adds	r3, r3, r1
 417 00ee 03F10403 		add	r3, r3, #4
 418 00f2 1B68     		ldr	r3, [r3, #0]
 419 00f4 9A42     		cmp	r2, r3
 420 00f6 30D3     		bcc	.L11
  97:.\tmr.c       **** 			{
  98:.\tmr.c       **** 				/* call timer down function */
  99:.\tmr.c       **** 				Timer[i].func();
 421              		.loc 1 99 0
 422 00f8 FA79     		ldrb	r2, [r7, #7]	@ zero_extendqisi2
 423 00fa 40F20003 		movw	r3, #:lower16:Timer
 424 00fe C0F20003 		movt	r3, #:upper16:Timer
 425 0102 4FEA0212 		lsl	r2, r2, #4
 426 0106 9B18     		adds	r3, r3, r2
 427 0108 03F10803 		add	r3, r3, #8
 428 010c 1B68     		ldr	r3, [r3, #0]
 429 010e 9847     		blx	r3
 100:.\tmr.c       **** 				if (Timer[i].mode != TIMER_MODE_CONTINUOUS)
 430              		.loc 1 100 0
 431 0110 FA79     		ldrb	r2, [r7, #7]	@ zero_extendqisi2
 432 0112 40F20003 		movw	r3, #:lower16:Timer
 433 0116 C0F20003 		movt	r3, #:upper16:Timer
 434 011a 4FEA0212 		lsl	r2, r2, #4
 435 011e 9B18     		adds	r3, r3, r2
 436 0120 03F10803 		add	r3, r3, #8
 437 0124 1B79     		ldrb	r3, [r3, #4]	@ zero_extendqisi2
 438 0126 022B     		cmp	r3, #2
 439 0128 0CD0     		beq	.L12
 101:.\tmr.c       **** 				{
 102:.\tmr.c       **** 					Timer[i].status = TIMER_DISABLED;
 440              		.loc 1 102 0
 441 012a FA79     		ldrb	r2, [r7, #7]	@ zero_extendqisi2
 442 012c 40F20003 		movw	r3, #:lower16:Timer
 443 0130 C0F20003 		movt	r3, #:upper16:Timer
 444 0134 4FEA0212 		lsl	r2, r2, #4
 445 0138 9B18     		adds	r3, r3, r2
 446 013a 03F10803 		add	r3, r3, #8
 447 013e 4FF00002 		mov	r2, #0
 448 0142 5A71     		strb	r2, [r3, #5]
 449              	.L12:
 103:.\tmr.c       **** 				}
 104:.\tmr.c       **** 				Timer[i].count = 0;
 450              		.loc 1 104 0
 451 0144 FA79     		ldrb	r2, [r7, #7]	@ zero_extendqisi2
 452 0146 40F20003 		movw	r3, #:lower16:Timer
 453 014a C0F20003 		movt	r3, #:upper16:Timer
 454 014e 4FEA0212 		lsl	r2, r2, #4
 455 0152 9B18     		adds	r3, r3, r2
 456 0154 4FF00002 		mov	r2, #0
 457 0158 1A60     		str	r2, [r3, #0]
 458              	.L11:
  90:.\tmr.c       **** 	for (i=0; i<MAX_TIMERS; i++)
 459              		.loc 1 90 0
 460 015a FB79     		ldrb	r3, [r7, #7]
 461 015c 03F10103 		add	r3, r3, #1
ARM GAS  C:\Users\Martin\AppData\Local\Temp\ccS48Jlv.s 			page 11


 462 0160 FB71     		strb	r3, [r7, #7]
 463              	.L10:
  90:.\tmr.c       **** 	for (i=0; i<MAX_TIMERS; i++)
 464              		.loc 1 90 0 is_stmt 0 discriminator 1
 465 0162 FB79     		ldrb	r3, [r7, #7]	@ zero_extendqisi2
 466 0164 092B     		cmp	r3, #9
 467 0166 90D9     		bls	.L13
 105:.\tmr.c       **** 			}
 106:.\tmr.c       **** 		}
 107:.\tmr.c       **** 	}
 108:.\tmr.c       **** 	
 109:.\tmr.c       **** 	
 110:.\tmr.c       **** }
 468              		.loc 1 110 0 is_stmt 1
 469 0168 07F10807 		add	r7, r7, #8
 470 016c BD46     		mov	sp, r7
 471 016e 80BD     		pop	{r7, pc}
 472              		.cfi_endproc
 473              	.LFE61:
 474              		.size	TMR_HandleTask, .-TMR_HandleTask
 475              		.text
 476              	.Letext0:
 477              		.file 2 "c:\\program files (x86)\\cypress\\psoc creator\\3.0\\psoc creator\\import\\gnu_cs\\arm\\4
 478              		.file 3 "./Generated_Source/PSoC5/cytypes.h"
 479              		.file 4 ".\\tmr.h"
 480              		.file 5 "./Generated_Source/PSoC5/core_cm3.h"
 481              		.section	.debug_info,"",%progbits
 482              	.Ldebug_info0:
 483 0000 A3020000 		.4byte	0x2a3
 484 0004 0200     		.2byte	0x2
 485 0006 00000000 		.4byte	.Ldebug_abbrev0
 486 000a 04       		.byte	0x4
 487 000b 01       		.uleb128 0x1
 488 000c B3010000 		.4byte	.LASF34
 489 0010 01       		.byte	0x1
 490 0011 00000000 		.4byte	.LASF35
 491 0015 49010000 		.4byte	.LASF36
 492 0019 00000000 		.4byte	.Ldebug_ranges0+0
 493 001d 00000000 		.4byte	0
 494 0021 00000000 		.4byte	0
 495 0025 00000000 		.4byte	.Ldebug_line0
 496 0029 02       		.uleb128 0x2
 497 002a 01       		.byte	0x1
 498 002b 06       		.byte	0x6
 499 002c 05020000 		.4byte	.LASF0
 500 0030 03       		.uleb128 0x3
 501 0031 FB000000 		.4byte	.LASF4
 502 0035 02       		.byte	0x2
 503 0036 2A       		.byte	0x2a
 504 0037 3B000000 		.4byte	0x3b
 505 003b 02       		.uleb128 0x2
 506 003c 01       		.byte	0x1
 507 003d 08       		.byte	0x8
 508 003e 43000000 		.4byte	.LASF1
 509 0042 02       		.uleb128 0x2
 510 0043 02       		.byte	0x2
 511 0044 05       		.byte	0x5
ARM GAS  C:\Users\Martin\AppData\Local\Temp\ccS48Jlv.s 			page 12


 512 0045 A3010000 		.4byte	.LASF2
 513 0049 02       		.uleb128 0x2
 514 004a 02       		.byte	0x2
 515 004b 07       		.byte	0x7
 516 004c 71000000 		.4byte	.LASF3
 517 0050 03       		.uleb128 0x3
 518 0051 23010000 		.4byte	.LASF5
 519 0055 02       		.byte	0x2
 520 0056 4F       		.byte	0x4f
 521 0057 5B000000 		.4byte	0x5b
 522 005b 02       		.uleb128 0x2
 523 005c 04       		.byte	0x4
 524 005d 05       		.byte	0x5
 525 005e FC010000 		.4byte	.LASF6
 526 0062 02       		.uleb128 0x2
 527 0063 04       		.byte	0x4
 528 0064 07       		.byte	0x7
 529 0065 5F000000 		.4byte	.LASF7
 530 0069 02       		.uleb128 0x2
 531 006a 08       		.byte	0x8
 532 006b 05       		.byte	0x5
 533 006c 3B010000 		.4byte	.LASF8
 534 0070 02       		.uleb128 0x2
 535 0071 08       		.byte	0x8
 536 0072 07       		.byte	0x7
 537 0073 E4000000 		.4byte	.LASF9
 538 0077 04       		.uleb128 0x4
 539 0078 04       		.byte	0x4
 540 0079 05       		.byte	0x5
 541 007a 696E7400 		.ascii	"int\000"
 542 007e 02       		.uleb128 0x2
 543 007f 04       		.byte	0x4
 544 0080 07       		.byte	0x7
 545 0081 CE000000 		.4byte	.LASF10
 546 0085 03       		.uleb128 0x3
 547 0086 AD010000 		.4byte	.LASF11
 548 008a 03       		.byte	0x3
 549 008b 5B       		.byte	0x5b
 550 008c 3B000000 		.4byte	0x3b
 551 0090 03       		.uleb128 0x3
 552 0091 C7000000 		.4byte	.LASF12
 553 0095 03       		.byte	0x3
 554 0096 5D       		.byte	0x5d
 555 0097 62000000 		.4byte	0x62
 556 009b 02       		.uleb128 0x2
 557 009c 04       		.byte	0x4
 558 009d 04       		.byte	0x4
 559 009e 3D000000 		.4byte	.LASF13
 560 00a2 02       		.uleb128 0x2
 561 00a3 08       		.byte	0x8
 562 00a4 04       		.byte	0x4
 563 00a5 B2000000 		.4byte	.LASF14
 564 00a9 02       		.uleb128 0x2
 565 00aa 01       		.byte	0x1
 566 00ab 08       		.byte	0x8
 567 00ac 91010000 		.4byte	.LASF15
 568 00b0 05       		.uleb128 0x5
ARM GAS  C:\Users\Martin\AppData\Local\Temp\ccS48Jlv.s 			page 13


 569 00b1 04       		.byte	0x4
 570 00b2 B6000000 		.4byte	0xb6
 571 00b6 06       		.uleb128 0x6
 572 00b7 01       		.byte	0x1
 573 00b8 02       		.uleb128 0x2
 574 00b9 04       		.byte	0x4
 575 00ba 07       		.byte	0x7
 576 00bb 2B010000 		.4byte	.LASF16
 577 00bf 03       		.uleb128 0x3
 578 00c0 DB000000 		.4byte	.LASF17
 579 00c4 04       		.byte	0x4
 580 00c5 1C       		.byte	0x1c
 581 00c6 B0000000 		.4byte	0xb0
 582 00ca 07       		.uleb128 0x7
 583 00cb 34010000 		.4byte	.LASF37
 584 00cf 10       		.byte	0x10
 585 00d0 04       		.byte	0x4
 586 00d1 1F       		.byte	0x1f
 587 00d2 1D010000 		.4byte	0x11d
 588 00d6 08       		.uleb128 0x8
 589 00d7 1D000000 		.4byte	.LASF18
 590 00db 04       		.byte	0x4
 591 00dc 21       		.byte	0x21
 592 00dd 90000000 		.4byte	0x90
 593 00e1 02       		.byte	0x2
 594 00e2 23       		.byte	0x23
 595 00e3 00       		.uleb128 0
 596 00e4 08       		.uleb128 0x8
 597 00e5 17000000 		.4byte	.LASF19
 598 00e9 04       		.byte	0x4
 599 00ea 22       		.byte	0x22
 600 00eb 90000000 		.4byte	0x90
 601 00ef 02       		.byte	0x2
 602 00f0 23       		.byte	0x23
 603 00f1 04       		.uleb128 0x4
 604 00f2 08       		.uleb128 0x8
 605 00f3 B9000000 		.4byte	.LASF20
 606 00f7 04       		.byte	0x4
 607 00f8 23       		.byte	0x23
 608 00f9 BF000000 		.4byte	0xbf
 609 00fd 02       		.byte	0x2
 610 00fe 23       		.byte	0x23
 611 00ff 08       		.uleb128 0x8
 612 0100 08       		.uleb128 0x8
 613 0101 09010000 		.4byte	.LASF21
 614 0105 04       		.byte	0x4
 615 0106 24       		.byte	0x24
 616 0107 85000000 		.4byte	0x85
 617 010b 02       		.byte	0x2
 618 010c 23       		.byte	0x23
 619 010d 0C       		.uleb128 0xc
 620 010e 08       		.uleb128 0x8
 621 010f 10000000 		.4byte	.LASF22
 622 0113 04       		.byte	0x4
 623 0114 25       		.byte	0x25
 624 0115 85000000 		.4byte	0x85
 625 0119 02       		.byte	0x2
ARM GAS  C:\Users\Martin\AppData\Local\Temp\ccS48Jlv.s 			page 14


 626 011a 23       		.byte	0x23
 627 011b 0D       		.uleb128 0xd
 628 011c 00       		.byte	0
 629 011d 03       		.uleb128 0x3
 630 011e 03010000 		.4byte	.LASF23
 631 0122 04       		.byte	0x4
 632 0123 26       		.byte	0x26
 633 0124 CA000000 		.4byte	0xca
 634 0128 09       		.uleb128 0x9
 635 0129 01       		.byte	0x1
 636 012a 84000000 		.4byte	.LASF38
 637 012e 01       		.byte	0x1
 638 012f 14       		.byte	0x14
 639 0130 01       		.byte	0x1
 640 0131 00000000 		.4byte	.LFB56
 641 0135 18000000 		.4byte	.LFE56
 642 0139 00000000 		.4byte	.LLST0
 643 013d 01       		.byte	0x1
 644 013e 0A       		.uleb128 0xa
 645 013f 01       		.byte	0x1
 646 0140 BE000000 		.4byte	.LASF39
 647 0144 01       		.byte	0x1
 648 0145 1B       		.byte	0x1b
 649 0146 01       		.byte	0x1
 650 0147 85000000 		.4byte	0x85
 651 014b 00000000 		.4byte	.LFB57
 652 014f 6A000000 		.4byte	.LFE57
 653 0153 2C000000 		.4byte	.LLST1
 654 0157 01       		.byte	0x1
 655 0158 0B       		.uleb128 0xb
 656 0159 01       		.byte	0x1
 657 015a 96010000 		.4byte	.LASF25
 658 015e 01       		.byte	0x1
 659 015f 2B       		.byte	0x2b
 660 0160 01       		.byte	0x1
 661 0161 00000000 		.4byte	.LFB58
 662 0165 90000000 		.4byte	.LFE58
 663 0169 58000000 		.4byte	.LLST2
 664 016d 01       		.byte	0x1
 665 016e B8010000 		.4byte	0x1b8
 666 0172 0C       		.uleb128 0xc
 667 0173 34000000 		.4byte	.LASF24
 668 0177 01       		.byte	0x1
 669 0178 2B       		.byte	0x2b
 670 0179 85000000 		.4byte	0x85
 671 017d 02       		.byte	0x2
 672 017e 91       		.byte	0x91
 673 017f 77       		.sleb128 -9
 674 0180 0D       		.uleb128 0xd
 675 0181 757300   		.ascii	"us\000"
 676 0184 01       		.byte	0x1
 677 0185 2B       		.byte	0x2b
 678 0186 90000000 		.4byte	0x90
 679 018a 02       		.byte	0x2
 680 018b 91       		.byte	0x91
 681 018c 70       		.sleb128 -16
 682 018d 0C       		.uleb128 0xc
ARM GAS  C:\Users\Martin\AppData\Local\Temp\ccS48Jlv.s 			page 15


 683 018e B9000000 		.4byte	.LASF20
 684 0192 01       		.byte	0x1
 685 0193 2B       		.byte	0x2b
 686 0194 BF000000 		.4byte	0xbf
 687 0198 02       		.byte	0x2
 688 0199 91       		.byte	0x91
 689 019a 6C       		.sleb128 -20
 690 019b 0C       		.uleb128 0xc
 691 019c 09010000 		.4byte	.LASF21
 692 01a0 01       		.byte	0x1
 693 01a1 2B       		.byte	0x2b
 694 01a2 85000000 		.4byte	0x85
 695 01a6 02       		.byte	0x2
 696 01a7 91       		.byte	0x91
 697 01a8 76       		.sleb128 -10
 698 01a9 0C       		.uleb128 0xc
 699 01aa 10000000 		.4byte	.LASF22
 700 01ae 01       		.byte	0x1
 701 01af 2B       		.byte	0x2b
 702 01b0 85000000 		.4byte	0x85
 703 01b4 02       		.byte	0x2
 704 01b5 91       		.byte	0x91
 705 01b6 00       		.sleb128 0
 706 01b7 00       		.byte	0
 707 01b8 0B       		.uleb128 0xb
 708 01b9 01       		.byte	0x1
 709 01ba 14010000 		.4byte	.LASF26
 710 01be 01       		.byte	0x1
 711 01bf 35       		.byte	0x35
 712 01c0 01       		.byte	0x1
 713 01c1 00000000 		.4byte	.LFB59
 714 01c5 44000000 		.4byte	.LFE59
 715 01c9 90000000 		.4byte	.LLST3
 716 01cd 01       		.byte	0x1
 717 01ce E1010000 		.4byte	0x1e1
 718 01d2 0C       		.uleb128 0xc
 719 01d3 34000000 		.4byte	.LASF24
 720 01d7 01       		.byte	0x1
 721 01d8 35       		.byte	0x35
 722 01d9 85000000 		.4byte	0x85
 723 01dd 02       		.byte	0x2
 724 01de 91       		.byte	0x91
 725 01df 77       		.sleb128 -9
 726 01e0 00       		.byte	0
 727 01e1 0B       		.uleb128 0xb
 728 01e2 01       		.byte	0x1
 729 01e3 51000000 		.4byte	.LASF27
 730 01e7 01       		.byte	0x1
 731 01e8 3C       		.byte	0x3c
 732 01e9 01       		.byte	0x1
 733 01ea 00000000 		.4byte	.LFB60
 734 01ee 44000000 		.4byte	.LFE60
 735 01f2 C8000000 		.4byte	.LLST4
 736 01f6 01       		.byte	0x1
 737 01f7 0A020000 		.4byte	0x20a
 738 01fb 0C       		.uleb128 0xc
 739 01fc 34000000 		.4byte	.LASF24
ARM GAS  C:\Users\Martin\AppData\Local\Temp\ccS48Jlv.s 			page 16


 740 0200 01       		.byte	0x1
 741 0201 3C       		.byte	0x3c
 742 0202 85000000 		.4byte	0x85
 743 0206 02       		.byte	0x2
 744 0207 91       		.byte	0x91
 745 0208 77       		.sleb128 -9
 746 0209 00       		.byte	0
 747 020a 0E       		.uleb128 0xe
 748 020b 01       		.byte	0x1
 749 020c A3000000 		.4byte	.LASF28
 750 0210 01       		.byte	0x1
 751 0211 44       		.byte	0x44
 752 0212 01       		.byte	0x1
 753 0213 00000000 		.4byte	.LFB61
 754 0217 70010000 		.4byte	.LFE61
 755 021b 00010000 		.4byte	.LLST5
 756 021f 01       		.byte	0x1
 757 0220 3F020000 		.4byte	0x23f
 758 0224 0F       		.uleb128 0xf
 759 0225 6900     		.ascii	"i\000"
 760 0227 01       		.byte	0x1
 761 0228 46       		.byte	0x46
 762 0229 85000000 		.4byte	0x85
 763 022d 02       		.byte	0x2
 764 022e 91       		.byte	0x91
 765 022f 77       		.sleb128 -9
 766 0230 10       		.uleb128 0x10
 767 0231 23000000 		.4byte	.LASF29
 768 0235 01       		.byte	0x1
 769 0236 47       		.byte	0x47
 770 0237 90000000 		.4byte	0x90
 771 023b 02       		.byte	0x2
 772 023c 91       		.byte	0x91
 773 023d 70       		.sleb128 -16
 774 023e 00       		.byte	0
 775 023f 10       		.uleb128 0x10
 776 0240 84010000 		.4byte	.LASF30
 777 0244 01       		.byte	0x1
 778 0245 0F       		.byte	0xf
 779 0246 30000000 		.4byte	0x30
 780 024a 05       		.byte	0x5
 781 024b 03       		.byte	0x3
 782 024c 00000000 		.4byte	TimerOverrun
 783 0250 11       		.uleb128 0x11
 784 0251 1D010000 		.4byte	0x11d
 785 0255 60020000 		.4byte	0x260
 786 0259 12       		.uleb128 0x12
 787 025a B8000000 		.4byte	0xb8
 788 025e 09       		.byte	0x9
 789 025f 00       		.byte	0
 790 0260 10       		.uleb128 0x10
 791 0261 0E010000 		.4byte	.LASF31
 792 0265 01       		.byte	0x1
 793 0266 10       		.byte	0x10
 794 0267 50020000 		.4byte	0x250
 795 026b 05       		.byte	0x5
 796 026c 03       		.byte	0x3
ARM GAS  C:\Users\Martin\AppData\Local\Temp\ccS48Jlv.s 			page 17


 797 026d 04000000 		.4byte	Timer
 798 0271 10       		.uleb128 0x10
 799 0272 2C000000 		.4byte	.LASF32
 800 0276 01       		.byte	0x1
 801 0277 11       		.byte	0x11
 802 0278 90000000 		.4byte	0x90
 803 027c 05       		.byte	0x5
 804 027d 03       		.byte	0x3
 805 027e A4000000 		.4byte	NewTime
 806 0282 10       		.uleb128 0x10
 807 0283 08000000 		.4byte	.LASF33
 808 0287 01       		.byte	0x1
 809 0288 11       		.byte	0x11
 810 0289 90000000 		.4byte	0x90
 811 028d 05       		.byte	0x5
 812 028e 03       		.byte	0x3
 813 028f A8000000 		.4byte	OldTime
 814 0293 13       		.uleb128 0x13
 815 0294 96000000 		.4byte	.LASF40
 816 0298 05       		.byte	0x5
 817 0299 1606     		.2byte	0x616
 818 029b A1020000 		.4byte	0x2a1
 819 029f 01       		.byte	0x1
 820 02a0 01       		.byte	0x1
 821 02a1 14       		.uleb128 0x14
 822 02a2 50000000 		.4byte	0x50
 823 02a6 00       		.byte	0
 824              		.section	.debug_abbrev,"",%progbits
 825              	.Ldebug_abbrev0:
 826 0000 01       		.uleb128 0x1
 827 0001 11       		.uleb128 0x11
 828 0002 01       		.byte	0x1
 829 0003 25       		.uleb128 0x25
 830 0004 0E       		.uleb128 0xe
 831 0005 13       		.uleb128 0x13
 832 0006 0B       		.uleb128 0xb
 833 0007 03       		.uleb128 0x3
 834 0008 0E       		.uleb128 0xe
 835 0009 1B       		.uleb128 0x1b
 836 000a 0E       		.uleb128 0xe
 837 000b 55       		.uleb128 0x55
 838 000c 06       		.uleb128 0x6
 839 000d 11       		.uleb128 0x11
 840 000e 01       		.uleb128 0x1
 841 000f 52       		.uleb128 0x52
 842 0010 01       		.uleb128 0x1
 843 0011 10       		.uleb128 0x10
 844 0012 06       		.uleb128 0x6
 845 0013 00       		.byte	0
 846 0014 00       		.byte	0
 847 0015 02       		.uleb128 0x2
 848 0016 24       		.uleb128 0x24
 849 0017 00       		.byte	0
 850 0018 0B       		.uleb128 0xb
 851 0019 0B       		.uleb128 0xb
 852 001a 3E       		.uleb128 0x3e
 853 001b 0B       		.uleb128 0xb
ARM GAS  C:\Users\Martin\AppData\Local\Temp\ccS48Jlv.s 			page 18


 854 001c 03       		.uleb128 0x3
 855 001d 0E       		.uleb128 0xe
 856 001e 00       		.byte	0
 857 001f 00       		.byte	0
 858 0020 03       		.uleb128 0x3
 859 0021 16       		.uleb128 0x16
 860 0022 00       		.byte	0
 861 0023 03       		.uleb128 0x3
 862 0024 0E       		.uleb128 0xe
 863 0025 3A       		.uleb128 0x3a
 864 0026 0B       		.uleb128 0xb
 865 0027 3B       		.uleb128 0x3b
 866 0028 0B       		.uleb128 0xb
 867 0029 49       		.uleb128 0x49
 868 002a 13       		.uleb128 0x13
 869 002b 00       		.byte	0
 870 002c 00       		.byte	0
 871 002d 04       		.uleb128 0x4
 872 002e 24       		.uleb128 0x24
 873 002f 00       		.byte	0
 874 0030 0B       		.uleb128 0xb
 875 0031 0B       		.uleb128 0xb
 876 0032 3E       		.uleb128 0x3e
 877 0033 0B       		.uleb128 0xb
 878 0034 03       		.uleb128 0x3
 879 0035 08       		.uleb128 0x8
 880 0036 00       		.byte	0
 881 0037 00       		.byte	0
 882 0038 05       		.uleb128 0x5
 883 0039 0F       		.uleb128 0xf
 884 003a 00       		.byte	0
 885 003b 0B       		.uleb128 0xb
 886 003c 0B       		.uleb128 0xb
 887 003d 49       		.uleb128 0x49
 888 003e 13       		.uleb128 0x13
 889 003f 00       		.byte	0
 890 0040 00       		.byte	0
 891 0041 06       		.uleb128 0x6
 892 0042 15       		.uleb128 0x15
 893 0043 00       		.byte	0
 894 0044 27       		.uleb128 0x27
 895 0045 0C       		.uleb128 0xc
 896 0046 00       		.byte	0
 897 0047 00       		.byte	0
 898 0048 07       		.uleb128 0x7
 899 0049 13       		.uleb128 0x13
 900 004a 01       		.byte	0x1
 901 004b 03       		.uleb128 0x3
 902 004c 0E       		.uleb128 0xe
 903 004d 0B       		.uleb128 0xb
 904 004e 0B       		.uleb128 0xb
 905 004f 3A       		.uleb128 0x3a
 906 0050 0B       		.uleb128 0xb
 907 0051 3B       		.uleb128 0x3b
 908 0052 0B       		.uleb128 0xb
 909 0053 01       		.uleb128 0x1
 910 0054 13       		.uleb128 0x13
ARM GAS  C:\Users\Martin\AppData\Local\Temp\ccS48Jlv.s 			page 19


 911 0055 00       		.byte	0
 912 0056 00       		.byte	0
 913 0057 08       		.uleb128 0x8
 914 0058 0D       		.uleb128 0xd
 915 0059 00       		.byte	0
 916 005a 03       		.uleb128 0x3
 917 005b 0E       		.uleb128 0xe
 918 005c 3A       		.uleb128 0x3a
 919 005d 0B       		.uleb128 0xb
 920 005e 3B       		.uleb128 0x3b
 921 005f 0B       		.uleb128 0xb
 922 0060 49       		.uleb128 0x49
 923 0061 13       		.uleb128 0x13
 924 0062 38       		.uleb128 0x38
 925 0063 0A       		.uleb128 0xa
 926 0064 00       		.byte	0
 927 0065 00       		.byte	0
 928 0066 09       		.uleb128 0x9
 929 0067 2E       		.uleb128 0x2e
 930 0068 00       		.byte	0
 931 0069 3F       		.uleb128 0x3f
 932 006a 0C       		.uleb128 0xc
 933 006b 03       		.uleb128 0x3
 934 006c 0E       		.uleb128 0xe
 935 006d 3A       		.uleb128 0x3a
 936 006e 0B       		.uleb128 0xb
 937 006f 3B       		.uleb128 0x3b
 938 0070 0B       		.uleb128 0xb
 939 0071 27       		.uleb128 0x27
 940 0072 0C       		.uleb128 0xc
 941 0073 11       		.uleb128 0x11
 942 0074 01       		.uleb128 0x1
 943 0075 12       		.uleb128 0x12
 944 0076 01       		.uleb128 0x1
 945 0077 40       		.uleb128 0x40
 946 0078 06       		.uleb128 0x6
 947 0079 9742     		.uleb128 0x2117
 948 007b 0C       		.uleb128 0xc
 949 007c 00       		.byte	0
 950 007d 00       		.byte	0
 951 007e 0A       		.uleb128 0xa
 952 007f 2E       		.uleb128 0x2e
 953 0080 00       		.byte	0
 954 0081 3F       		.uleb128 0x3f
 955 0082 0C       		.uleb128 0xc
 956 0083 03       		.uleb128 0x3
 957 0084 0E       		.uleb128 0xe
 958 0085 3A       		.uleb128 0x3a
 959 0086 0B       		.uleb128 0xb
 960 0087 3B       		.uleb128 0x3b
 961 0088 0B       		.uleb128 0xb
 962 0089 27       		.uleb128 0x27
 963 008a 0C       		.uleb128 0xc
 964 008b 49       		.uleb128 0x49
 965 008c 13       		.uleb128 0x13
 966 008d 11       		.uleb128 0x11
 967 008e 01       		.uleb128 0x1
ARM GAS  C:\Users\Martin\AppData\Local\Temp\ccS48Jlv.s 			page 20


 968 008f 12       		.uleb128 0x12
 969 0090 01       		.uleb128 0x1
 970 0091 40       		.uleb128 0x40
 971 0092 06       		.uleb128 0x6
 972 0093 9642     		.uleb128 0x2116
 973 0095 0C       		.uleb128 0xc
 974 0096 00       		.byte	0
 975 0097 00       		.byte	0
 976 0098 0B       		.uleb128 0xb
 977 0099 2E       		.uleb128 0x2e
 978 009a 01       		.byte	0x1
 979 009b 3F       		.uleb128 0x3f
 980 009c 0C       		.uleb128 0xc
 981 009d 03       		.uleb128 0x3
 982 009e 0E       		.uleb128 0xe
 983 009f 3A       		.uleb128 0x3a
 984 00a0 0B       		.uleb128 0xb
 985 00a1 3B       		.uleb128 0x3b
 986 00a2 0B       		.uleb128 0xb
 987 00a3 27       		.uleb128 0x27
 988 00a4 0C       		.uleb128 0xc
 989 00a5 11       		.uleb128 0x11
 990 00a6 01       		.uleb128 0x1
 991 00a7 12       		.uleb128 0x12
 992 00a8 01       		.uleb128 0x1
 993 00a9 40       		.uleb128 0x40
 994 00aa 06       		.uleb128 0x6
 995 00ab 9742     		.uleb128 0x2117
 996 00ad 0C       		.uleb128 0xc
 997 00ae 01       		.uleb128 0x1
 998 00af 13       		.uleb128 0x13
 999 00b0 00       		.byte	0
 1000 00b1 00       		.byte	0
 1001 00b2 0C       		.uleb128 0xc
 1002 00b3 05       		.uleb128 0x5
 1003 00b4 00       		.byte	0
 1004 00b5 03       		.uleb128 0x3
 1005 00b6 0E       		.uleb128 0xe
 1006 00b7 3A       		.uleb128 0x3a
 1007 00b8 0B       		.uleb128 0xb
 1008 00b9 3B       		.uleb128 0x3b
 1009 00ba 0B       		.uleb128 0xb
 1010 00bb 49       		.uleb128 0x49
 1011 00bc 13       		.uleb128 0x13
 1012 00bd 02       		.uleb128 0x2
 1013 00be 0A       		.uleb128 0xa
 1014 00bf 00       		.byte	0
 1015 00c0 00       		.byte	0
 1016 00c1 0D       		.uleb128 0xd
 1017 00c2 05       		.uleb128 0x5
 1018 00c3 00       		.byte	0
 1019 00c4 03       		.uleb128 0x3
 1020 00c5 08       		.uleb128 0x8
 1021 00c6 3A       		.uleb128 0x3a
 1022 00c7 0B       		.uleb128 0xb
 1023 00c8 3B       		.uleb128 0x3b
 1024 00c9 0B       		.uleb128 0xb
ARM GAS  C:\Users\Martin\AppData\Local\Temp\ccS48Jlv.s 			page 21


 1025 00ca 49       		.uleb128 0x49
 1026 00cb 13       		.uleb128 0x13
 1027 00cc 02       		.uleb128 0x2
 1028 00cd 0A       		.uleb128 0xa
 1029 00ce 00       		.byte	0
 1030 00cf 00       		.byte	0
 1031 00d0 0E       		.uleb128 0xe
 1032 00d1 2E       		.uleb128 0x2e
 1033 00d2 01       		.byte	0x1
 1034 00d3 3F       		.uleb128 0x3f
 1035 00d4 0C       		.uleb128 0xc
 1036 00d5 03       		.uleb128 0x3
 1037 00d6 0E       		.uleb128 0xe
 1038 00d7 3A       		.uleb128 0x3a
 1039 00d8 0B       		.uleb128 0xb
 1040 00d9 3B       		.uleb128 0x3b
 1041 00da 0B       		.uleb128 0xb
 1042 00db 27       		.uleb128 0x27
 1043 00dc 0C       		.uleb128 0xc
 1044 00dd 11       		.uleb128 0x11
 1045 00de 01       		.uleb128 0x1
 1046 00df 12       		.uleb128 0x12
 1047 00e0 01       		.uleb128 0x1
 1048 00e1 40       		.uleb128 0x40
 1049 00e2 06       		.uleb128 0x6
 1050 00e3 9642     		.uleb128 0x2116
 1051 00e5 0C       		.uleb128 0xc
 1052 00e6 01       		.uleb128 0x1
 1053 00e7 13       		.uleb128 0x13
 1054 00e8 00       		.byte	0
 1055 00e9 00       		.byte	0
 1056 00ea 0F       		.uleb128 0xf
 1057 00eb 34       		.uleb128 0x34
 1058 00ec 00       		.byte	0
 1059 00ed 03       		.uleb128 0x3
 1060 00ee 08       		.uleb128 0x8
 1061 00ef 3A       		.uleb128 0x3a
 1062 00f0 0B       		.uleb128 0xb
 1063 00f1 3B       		.uleb128 0x3b
 1064 00f2 0B       		.uleb128 0xb
 1065 00f3 49       		.uleb128 0x49
 1066 00f4 13       		.uleb128 0x13
 1067 00f5 02       		.uleb128 0x2
 1068 00f6 0A       		.uleb128 0xa
 1069 00f7 00       		.byte	0
 1070 00f8 00       		.byte	0
 1071 00f9 10       		.uleb128 0x10
 1072 00fa 34       		.uleb128 0x34
 1073 00fb 00       		.byte	0
 1074 00fc 03       		.uleb128 0x3
 1075 00fd 0E       		.uleb128 0xe
 1076 00fe 3A       		.uleb128 0x3a
 1077 00ff 0B       		.uleb128 0xb
 1078 0100 3B       		.uleb128 0x3b
 1079 0101 0B       		.uleb128 0xb
 1080 0102 49       		.uleb128 0x49
 1081 0103 13       		.uleb128 0x13
ARM GAS  C:\Users\Martin\AppData\Local\Temp\ccS48Jlv.s 			page 22


 1082 0104 02       		.uleb128 0x2
 1083 0105 0A       		.uleb128 0xa
 1084 0106 00       		.byte	0
 1085 0107 00       		.byte	0
 1086 0108 11       		.uleb128 0x11
 1087 0109 01       		.uleb128 0x1
 1088 010a 01       		.byte	0x1
 1089 010b 49       		.uleb128 0x49
 1090 010c 13       		.uleb128 0x13
 1091 010d 01       		.uleb128 0x1
 1092 010e 13       		.uleb128 0x13
 1093 010f 00       		.byte	0
 1094 0110 00       		.byte	0
 1095 0111 12       		.uleb128 0x12
 1096 0112 21       		.uleb128 0x21
 1097 0113 00       		.byte	0
 1098 0114 49       		.uleb128 0x49
 1099 0115 13       		.uleb128 0x13
 1100 0116 2F       		.uleb128 0x2f
 1101 0117 0B       		.uleb128 0xb
 1102 0118 00       		.byte	0
 1103 0119 00       		.byte	0
 1104 011a 13       		.uleb128 0x13
 1105 011b 34       		.uleb128 0x34
 1106 011c 00       		.byte	0
 1107 011d 03       		.uleb128 0x3
 1108 011e 0E       		.uleb128 0xe
 1109 011f 3A       		.uleb128 0x3a
 1110 0120 0B       		.uleb128 0xb
 1111 0121 3B       		.uleb128 0x3b
 1112 0122 05       		.uleb128 0x5
 1113 0123 49       		.uleb128 0x49
 1114 0124 13       		.uleb128 0x13
 1115 0125 3F       		.uleb128 0x3f
 1116 0126 0C       		.uleb128 0xc
 1117 0127 3C       		.uleb128 0x3c
 1118 0128 0C       		.uleb128 0xc
 1119 0129 00       		.byte	0
 1120 012a 00       		.byte	0
 1121 012b 14       		.uleb128 0x14
 1122 012c 35       		.uleb128 0x35
 1123 012d 00       		.byte	0
 1124 012e 49       		.uleb128 0x49
 1125 012f 13       		.uleb128 0x13
 1126 0130 00       		.byte	0
 1127 0131 00       		.byte	0
 1128 0132 00       		.byte	0
 1129              		.section	.debug_loc,"",%progbits
 1130              	.Ldebug_loc0:
 1131              	.LLST0:
 1132 0000 00000000 		.4byte	.LFB56
 1133 0004 02000000 		.4byte	.LCFI0
 1134 0008 0200     		.2byte	0x2
 1135 000a 7D       		.byte	0x7d
 1136 000b 00       		.sleb128 0
 1137 000c 02000000 		.4byte	.LCFI0
 1138 0010 04000000 		.4byte	.LCFI1
ARM GAS  C:\Users\Martin\AppData\Local\Temp\ccS48Jlv.s 			page 23


 1139 0014 0200     		.2byte	0x2
 1140 0016 7D       		.byte	0x7d
 1141 0017 04       		.sleb128 4
 1142 0018 04000000 		.4byte	.LCFI1
 1143 001c 18000000 		.4byte	.LFE56
 1144 0020 0200     		.2byte	0x2
 1145 0022 77       		.byte	0x77
 1146 0023 04       		.sleb128 4
 1147 0024 00000000 		.4byte	0
 1148 0028 00000000 		.4byte	0
 1149              	.LLST1:
 1150 002c 00000000 		.4byte	.LFB57
 1151 0030 02000000 		.4byte	.LCFI2
 1152 0034 0200     		.2byte	0x2
 1153 0036 7D       		.byte	0x7d
 1154 0037 00       		.sleb128 0
 1155 0038 02000000 		.4byte	.LCFI2
 1156 003c 04000000 		.4byte	.LCFI3
 1157 0040 0200     		.2byte	0x2
 1158 0042 7D       		.byte	0x7d
 1159 0043 08       		.sleb128 8
 1160 0044 04000000 		.4byte	.LCFI3
 1161 0048 6A000000 		.4byte	.LFE57
 1162 004c 0200     		.2byte	0x2
 1163 004e 77       		.byte	0x77
 1164 004f 08       		.sleb128 8
 1165 0050 00000000 		.4byte	0
 1166 0054 00000000 		.4byte	0
 1167              	.LLST2:
 1168 0058 00000000 		.4byte	.LFB58
 1169 005c 02000000 		.4byte	.LCFI4
 1170 0060 0200     		.2byte	0x2
 1171 0062 7D       		.byte	0x7d
 1172 0063 00       		.sleb128 0
 1173 0064 02000000 		.4byte	.LCFI4
 1174 0068 04000000 		.4byte	.LCFI5
 1175 006c 0200     		.2byte	0x2
 1176 006e 7D       		.byte	0x7d
 1177 006f 04       		.sleb128 4
 1178 0070 04000000 		.4byte	.LCFI5
 1179 0074 06000000 		.4byte	.LCFI6
 1180 0078 0200     		.2byte	0x2
 1181 007a 7D       		.byte	0x7d
 1182 007b 18       		.sleb128 24
 1183 007c 06000000 		.4byte	.LCFI6
 1184 0080 90000000 		.4byte	.LFE58
 1185 0084 0200     		.2byte	0x2
 1186 0086 77       		.byte	0x77
 1187 0087 18       		.sleb128 24
 1188 0088 00000000 		.4byte	0
 1189 008c 00000000 		.4byte	0
 1190              	.LLST3:
 1191 0090 00000000 		.4byte	.LFB59
 1192 0094 02000000 		.4byte	.LCFI7
 1193 0098 0200     		.2byte	0x2
 1194 009a 7D       		.byte	0x7d
 1195 009b 00       		.sleb128 0
ARM GAS  C:\Users\Martin\AppData\Local\Temp\ccS48Jlv.s 			page 24


 1196 009c 02000000 		.4byte	.LCFI7
 1197 00a0 04000000 		.4byte	.LCFI8
 1198 00a4 0200     		.2byte	0x2
 1199 00a6 7D       		.byte	0x7d
 1200 00a7 04       		.sleb128 4
 1201 00a8 04000000 		.4byte	.LCFI8
 1202 00ac 06000000 		.4byte	.LCFI9
 1203 00b0 0200     		.2byte	0x2
 1204 00b2 7D       		.byte	0x7d
 1205 00b3 10       		.sleb128 16
 1206 00b4 06000000 		.4byte	.LCFI9
 1207 00b8 44000000 		.4byte	.LFE59
 1208 00bc 0200     		.2byte	0x2
 1209 00be 77       		.byte	0x77
 1210 00bf 10       		.sleb128 16
 1211 00c0 00000000 		.4byte	0
 1212 00c4 00000000 		.4byte	0
 1213              	.LLST4:
 1214 00c8 00000000 		.4byte	.LFB60
 1215 00cc 02000000 		.4byte	.LCFI10
 1216 00d0 0200     		.2byte	0x2
 1217 00d2 7D       		.byte	0x7d
 1218 00d3 00       		.sleb128 0
 1219 00d4 02000000 		.4byte	.LCFI10
 1220 00d8 04000000 		.4byte	.LCFI11
 1221 00dc 0200     		.2byte	0x2
 1222 00de 7D       		.byte	0x7d
 1223 00df 04       		.sleb128 4
 1224 00e0 04000000 		.4byte	.LCFI11
 1225 00e4 06000000 		.4byte	.LCFI12
 1226 00e8 0200     		.2byte	0x2
 1227 00ea 7D       		.byte	0x7d
 1228 00eb 10       		.sleb128 16
 1229 00ec 06000000 		.4byte	.LCFI12
 1230 00f0 44000000 		.4byte	.LFE60
 1231 00f4 0200     		.2byte	0x2
 1232 00f6 77       		.byte	0x77
 1233 00f7 10       		.sleb128 16
 1234 00f8 00000000 		.4byte	0
 1235 00fc 00000000 		.4byte	0
 1236              	.LLST5:
 1237 0100 00000000 		.4byte	.LFB61
 1238 0104 02000000 		.4byte	.LCFI13
 1239 0108 0200     		.2byte	0x2
 1240 010a 7D       		.byte	0x7d
 1241 010b 00       		.sleb128 0
 1242 010c 02000000 		.4byte	.LCFI13
 1243 0110 04000000 		.4byte	.LCFI14
 1244 0114 0200     		.2byte	0x2
 1245 0116 7D       		.byte	0x7d
 1246 0117 08       		.sleb128 8
 1247 0118 04000000 		.4byte	.LCFI14
 1248 011c 06000000 		.4byte	.LCFI15
 1249 0120 0200     		.2byte	0x2
 1250 0122 7D       		.byte	0x7d
 1251 0123 10       		.sleb128 16
 1252 0124 06000000 		.4byte	.LCFI15
ARM GAS  C:\Users\Martin\AppData\Local\Temp\ccS48Jlv.s 			page 25


 1253 0128 70010000 		.4byte	.LFE61
 1254 012c 0200     		.2byte	0x2
 1255 012e 77       		.byte	0x77
 1256 012f 10       		.sleb128 16
 1257 0130 00000000 		.4byte	0
 1258 0134 00000000 		.4byte	0
 1259              		.section	.debug_aranges,"",%progbits
 1260 0000 44000000 		.4byte	0x44
 1261 0004 0200     		.2byte	0x2
 1262 0006 00000000 		.4byte	.Ldebug_info0
 1263 000a 04       		.byte	0x4
 1264 000b 00       		.byte	0
 1265 000c 0000     		.2byte	0
 1266 000e 0000     		.2byte	0
 1267 0010 00000000 		.4byte	.LFB56
 1268 0014 18000000 		.4byte	.LFE56-.LFB56
 1269 0018 00000000 		.4byte	.LFB57
 1270 001c 6A000000 		.4byte	.LFE57-.LFB57
 1271 0020 00000000 		.4byte	.LFB58
 1272 0024 90000000 		.4byte	.LFE58-.LFB58
 1273 0028 00000000 		.4byte	.LFB59
 1274 002c 44000000 		.4byte	.LFE59-.LFB59
 1275 0030 00000000 		.4byte	.LFB60
 1276 0034 44000000 		.4byte	.LFE60-.LFB60
 1277 0038 00000000 		.4byte	.LFB61
 1278 003c 70010000 		.4byte	.LFE61-.LFB61
 1279 0040 00000000 		.4byte	0
 1280 0044 00000000 		.4byte	0
 1281              		.section	.debug_ranges,"",%progbits
 1282              	.Ldebug_ranges0:
 1283 0000 00000000 		.4byte	.LFB56
 1284 0004 18000000 		.4byte	.LFE56
 1285 0008 00000000 		.4byte	.LFB57
 1286 000c 6A000000 		.4byte	.LFE57
 1287 0010 00000000 		.4byte	.LFB58
 1288 0014 90000000 		.4byte	.LFE58
 1289 0018 00000000 		.4byte	.LFB59
 1290 001c 44000000 		.4byte	.LFE59
 1291 0020 00000000 		.4byte	.LFB60
 1292 0024 44000000 		.4byte	.LFE60
 1293 0028 00000000 		.4byte	.LFB61
 1294 002c 70010000 		.4byte	.LFE61
 1295 0030 00000000 		.4byte	0
 1296 0034 00000000 		.4byte	0
 1297              		.section	.debug_line,"",%progbits
 1298              	.Ldebug_line0:
 1299 0000 9B010000 		.section	.debug_str,"MS",%progbits,1
 1299      02000301 
 1299      00000201 
 1299      FB0E0D00 
 1299      01010101 
 1300              	.LASF35:
 1301 0000 2E5C746D 		.ascii	".\\tmr.c\000"
 1301      722E6300 
 1302              	.LASF33:
 1303 0008 4F6C6454 		.ascii	"OldTime\000"
 1303      696D6500 
ARM GAS  C:\Users\Martin\AppData\Local\Temp\ccS48Jlv.s 			page 26


 1304              	.LASF22:
 1305 0010 73746174 		.ascii	"status\000"
 1305      757300
 1306              	.LASF19:
 1307 0017 76616C75 		.ascii	"value\000"
 1307      6500
 1308              	.LASF18:
 1309 001d 636F756E 		.ascii	"count\000"
 1309      7400
 1310              	.LASF29:
 1311 0023 74696D65 		.ascii	"timediff\000"
 1311      64696666 
 1311      00
 1312              	.LASF32:
 1313 002c 4E657754 		.ascii	"NewTime\000"
 1313      696D6500 
 1314              	.LASF24:
 1315 0034 6E756D54 		.ascii	"numTimer\000"
 1315      696D6572 
 1315      00
 1316              	.LASF13:
 1317 003d 666C6F61 		.ascii	"float\000"
 1317      7400
 1318              	.LASF1:
 1319 0043 756E7369 		.ascii	"unsigned char\000"
 1319      676E6564 
 1319      20636861 
 1319      7200
 1320              	.LASF27:
 1321 0051 544D525F 		.ascii	"TMR_StopTimer\000"
 1321      53746F70 
 1321      54696D65 
 1321      7200
 1322              	.LASF7:
 1323 005f 6C6F6E67 		.ascii	"long unsigned int\000"
 1323      20756E73 
 1323      69676E65 
 1323      6420696E 
 1323      7400
 1324              	.LASF3:
 1325 0071 73686F72 		.ascii	"short unsigned int\000"
 1325      7420756E 
 1325      7369676E 
 1325      65642069 
 1325      6E7400
 1326              	.LASF38:
 1327 0084 6973725F 		.ascii	"isr_timer_routine\000"
 1327      74696D65 
 1327      725F726F 
 1327      7574696E 
 1327      6500
 1328              	.LASF40:
 1329 0096 49544D5F 		.ascii	"ITM_RxBuffer\000"
 1329      52784275 
 1329      66666572 
 1329      00
 1330              	.LASF28:
ARM GAS  C:\Users\Martin\AppData\Local\Temp\ccS48Jlv.s 			page 27


 1331 00a3 544D525F 		.ascii	"TMR_HandleTask\000"
 1331      48616E64 
 1331      6C655461 
 1331      736B00
 1332              	.LASF14:
 1333 00b2 646F7562 		.ascii	"double\000"
 1333      6C6500
 1334              	.LASF20:
 1335 00b9 66756E63 		.ascii	"func\000"
 1335      00
 1336              	.LASF39:
 1337 00be 544D525F 		.ascii	"TMR_Init\000"
 1337      496E6974 
 1337      00
 1338              	.LASF12:
 1339 00c7 75696E74 		.ascii	"uint32\000"
 1339      333200
 1340              	.LASF10:
 1341 00ce 756E7369 		.ascii	"unsigned int\000"
 1341      676E6564 
 1341      20696E74 
 1341      00
 1342              	.LASF17:
 1343 00db 544D525F 		.ascii	"TMR_FUNC\000"
 1343      46554E43 
 1343      00
 1344              	.LASF9:
 1345 00e4 6C6F6E67 		.ascii	"long long unsigned int\000"
 1345      206C6F6E 
 1345      6720756E 
 1345      7369676E 
 1345      65642069 
 1346              	.LASF4:
 1347 00fb 75696E74 		.ascii	"uint8_t\000"
 1347      385F7400 
 1348              	.LASF23:
 1349 0103 54494D45 		.ascii	"TIMER\000"
 1349      5200
 1350              	.LASF21:
 1351 0109 6D6F6465 		.ascii	"mode\000"
 1351      00
 1352              	.LASF31:
 1353 010e 54696D65 		.ascii	"Timer\000"
 1353      7200
 1354              	.LASF26:
 1355 0114 544D525F 		.ascii	"TMR_StartTimer\000"
 1355      53746172 
 1355      7454696D 
 1355      657200
 1356              	.LASF5:
 1357 0123 696E7433 		.ascii	"int32_t\000"
 1357      325F7400 
 1358              	.LASF16:
 1359 012b 73697A65 		.ascii	"sizetype\000"
 1359      74797065 
 1359      00
 1360              	.LASF37:
ARM GAS  C:\Users\Martin\AppData\Local\Temp\ccS48Jlv.s 			page 28


 1361 0134 5F74696D 		.ascii	"_timer\000"
 1361      657200
 1362              	.LASF8:
 1363 013b 6C6F6E67 		.ascii	"long long int\000"
 1363      206C6F6E 
 1363      6720696E 
 1363      7400
 1364              	.LASF36:
 1365 0149 583A5C72 		.ascii	"X:\\roboticscode\\trunk\\Servo\\SW\\ServoMotor\\Ser"
 1365      6F626F74 
 1365      69637363 
 1365      6F64655C 
 1365      7472756E 
 1366 0176 766F4D6F 		.ascii	"voMotor.cydsn\000"
 1366      746F722E 
 1366      63796473 
 1366      6E00
 1367              	.LASF30:
 1368 0184 54696D65 		.ascii	"TimerOverrun\000"
 1368      724F7665 
 1368      7272756E 
 1368      00
 1369              	.LASF15:
 1370 0191 63686172 		.ascii	"char\000"
 1370      00
 1371              	.LASF25:
 1372 0196 544D525F 		.ascii	"TMR_SetTimer\000"
 1372      53657454 
 1372      696D6572 
 1372      00
 1373              	.LASF2:
 1374 01a3 73686F72 		.ascii	"short int\000"
 1374      7420696E 
 1374      7400
 1375              	.LASF11:
 1376 01ad 75696E74 		.ascii	"uint8\000"
 1376      3800
 1377              	.LASF34:
 1378 01b3 474E5520 		.ascii	"GNU C 4.7.3 20130312 (release) [ARM/embedded-4_7-br"
 1378      4320342E 
 1378      372E3320 
 1378      32303133 
 1378      30333132 
 1379 01e6 616E6368 		.ascii	"anch revision 196615]\000"
 1379      20726576 
 1379      6973696F 
 1379      6E203139 
 1379      36363135 
 1380              	.LASF6:
 1381 01fc 6C6F6E67 		.ascii	"long int\000"
 1381      20696E74 
 1381      00
 1382              	.LASF0:
 1383 0205 7369676E 		.ascii	"signed char\000"
 1383      65642063 
 1383      68617200 
 1384              		.ident	"GCC: (GNU Tools for ARM Embedded Processors) 4.7.3 20130312 (release) [ARM/embedded-4_7-br
ARM GAS  C:\Users\Martin\AppData\Local\Temp\ccS48Jlv.s 			page 29


