ARM GAS  C:\Users\Martin\AppData\Local\Temp\ccrekHWt.s 			page 1


   1              		.syntax unified
   2              		.cpu cortex-m3
   3              		.fpu softvfp
   4              		.eabi_attribute 20, 1
   5              		.eabi_attribute 21, 1
   6              		.eabi_attribute 23, 3
   7              		.eabi_attribute 24, 1
   8              		.eabi_attribute 25, 1
   9              		.eabi_attribute 26, 1
  10              		.eabi_attribute 30, 6
  11              		.eabi_attribute 18, 4
  12              		.thumb
  13              		.file	"bpl.c"
  14              		.section	.debug_abbrev,"",%progbits
  15              	.Ldebug_abbrev0:
  16              		.section	.debug_info,"",%progbits
  17              	.Ldebug_info0:
  18              		.section	.debug_line,"",%progbits
  19              	.Ldebug_line0:
  20 0000 D4000000 		.text
  20      02006000 
  20      00000201 
  20      FB0E0D00 
  20      01010101 
  21              	.Ltext0:
  22              		.cfi_sections	.debug_frame
  23              		.bss
  24              		.align	2
  25              	ReceiveBuffer:
  26 0000 00000000 		.space	256
  26      00000000 
  26      00000000 
  26      00000000 
  26      00000000 
  27              		.align	2
  28              	TransmitBuffer:
  29 0100 00000000 		.space	256
  29      00000000 
  29      00000000 
  29      00000000 
  29      00000000 
  30              	ReceiveMsgCount:
  31 0200 00       		.space	1
  32              	TransmitMsgCount:
  33 0201 00       		.space	1
  34              	ReceiveBytesCount:
  35 0202 00       		.space	1
  36              	TransmitBytesCount:
  37 0203 00       		.space	1
  38              		.data
  39              		.align	2
  40              		.type	RBHead, %object
  41              		.size	RBHead, 4
  42              	RBHead:
  43 0000 00000000 		.word	ReceiveBuffer
  44              		.align	2
  45              		.type	RBTail, %object
ARM GAS  C:\Users\Martin\AppData\Local\Temp\ccrekHWt.s 			page 2


  46              		.size	RBTail, 4
  47              	RBTail:
  48 0004 00000000 		.word	ReceiveBuffer
  49              		.align	2
  50              		.type	TBHead, %object
  51              		.size	TBHead, 4
  52              	TBHead:
  53 0008 00010000 		.word	TransmitBuffer
  54              		.align	2
  55              		.type	TBTail, %object
  56              		.size	TBTail, 4
  57              	TBTail:
  58 000c 00010000 		.word	TransmitBuffer
  59              		.bss
  60              	BplStatus:
  61 0204 00       		.space	1
  62 0205 000000   		.section	.text.BPL_GetReceiveMsgCount,"ax",%progbits
  63              		.align	2
  64              		.global	BPL_GetReceiveMsgCount
  65              		.thumb
  66              		.thumb_func
  67              		.type	BPL_GetReceiveMsgCount, %function
  68              	BPL_GetReceiveMsgCount:
  69              	.LFB29:
  70              		.file 1 ".\\bpl.c"
   1:.\bpl.c       **** /* Copyright (C) <2014> <Martin Schalk>
   2:.\bpl.c       ****  * All rights reserved.
   3:.\bpl.c       ****  *
   4:.\bpl.c       ****  * This software may be modified and distributed under the terms
   5:.\bpl.c       ****  * of the BSD license.  See the LICENSE file for details.
   6:.\bpl.c       ****  */
   7:.\bpl.c       **** 
   8:.\bpl.c       **** 
   9:.\bpl.c       **** #include <project.h>
  10:.\bpl.c       **** #include "global.h"
  11:.\bpl.c       **** #include <stdio.h>
  12:.\bpl.c       **** 
  13:.\bpl.c       **** #include "hal.h"
  14:.\bpl.c       **** #include "bpl.h"
  15:.\bpl.c       **** 
  16:.\bpl.c       **** /* Ring buffers */
  17:.\bpl.c       **** static uint8 	ReceiveBuffer[RX_BUFFER_SIZE];	//RB
  18:.\bpl.c       **** static uint8 	TransmitBuffer[TX_BUFFER_SIZE];	//TB
  19:.\bpl.c       **** static uint8 	ReceiveMsgCount = 0;
  20:.\bpl.c       **** static uint8 	TransmitMsgCount = 0;
  21:.\bpl.c       **** static uint8    ReceiveBytesCount = 0;
  22:.\bpl.c       **** static uint8    TransmitBytesCount = 0;
  23:.\bpl.c       **** 
  24:.\bpl.c       **** static uint8* 	RBHead = ReceiveBuffer;
  25:.\bpl.c       **** static uint8* 	RBTail = ReceiveBuffer;
  26:.\bpl.c       **** static uint8* 	TBHead = TransmitBuffer;
  27:.\bpl.c       **** static uint8* 	TBTail = TransmitBuffer;
  28:.\bpl.c       **** 
  29:.\bpl.c       **** static STATUS BplStatus = BPL_STATUS_OK;
  30:.\bpl.c       **** 
  31:.\bpl.c       **** /*******************************************************/
  32:.\bpl.c       **** uint8 BPL_GetReceiveMsgCount(void)
ARM GAS  C:\Users\Martin\AppData\Local\Temp\ccrekHWt.s 			page 3


  33:.\bpl.c       **** {
  71              		.loc 1 33 0
  72              		.cfi_startproc
  73              		@ args = 0, pretend = 0, frame = 0
  74              		@ frame_needed = 1, uses_anonymous_args = 0
  75              		@ link register save eliminated.
  76 0000 80B4     		push	{r7}
  77              	.LCFI0:
  78              		.cfi_def_cfa_offset 4
  79 0002 00AF     		add	r7, sp, #0
  80              		.cfi_offset 7, -4
  81              	.LCFI1:
  82              		.cfi_def_cfa_register 7
  34:.\bpl.c       ****     return ReceiveMsgCount;	
  83              		.loc 1 34 0
  84 0004 40F20003 		movw	r3, #:lower16:ReceiveMsgCount
  85 0008 C0F20003 		movt	r3, #:upper16:ReceiveMsgCount
  86 000c 1B78     		ldrb	r3, [r3, #0]	@ zero_extendqisi2
  35:.\bpl.c       **** }
  87              		.loc 1 35 0
  88 000e 1846     		mov	r0, r3
  89 0010 BD46     		mov	sp, r7
  90 0012 80BC     		pop	{r7}
  91 0014 7047     		bx	lr
  92              		.cfi_endproc
  93              	.LFE29:
  94              		.size	BPL_GetReceiveMsgCount, .-BPL_GetReceiveMsgCount
  95 0016 00BF     		.section	.text.BPL_GetMessage,"ax",%progbits
  96              		.align	2
  97              		.global	BPL_GetMessage
  98              		.thumb
  99              		.thumb_func
 100              		.type	BPL_GetMessage, %function
 101              	BPL_GetMessage:
 102              	.LFB30:
  36:.\bpl.c       **** 
  37:.\bpl.c       **** /*******************************************************/
  38:.\bpl.c       **** uint8 BPL_GetMessage(uint8* target)
  39:.\bpl.c       **** {
 103              		.loc 1 39 0
 104              		.cfi_startproc
 105              		@ args = 0, pretend = 0, frame = 16
 106              		@ frame_needed = 1, uses_anonymous_args = 0
 107 0000 80B5     		push	{r7, lr}
 108              	.LCFI2:
 109              		.cfi_def_cfa_offset 8
 110 0002 84B0     		sub	sp, sp, #16
 111              	.LCFI3:
 112              		.cfi_def_cfa_offset 24
 113 0004 00AF     		add	r7, sp, #0
 114              		.cfi_offset 14, -4
 115              		.cfi_offset 7, -8
 116              	.LCFI4:
 117              		.cfi_def_cfa_register 7
 118 0006 7860     		str	r0, [r7, #4]
  40:.\bpl.c       ****     uint8 msgLength;
  41:.\bpl.c       ****     
ARM GAS  C:\Users\Martin\AppData\Local\Temp\ccrekHWt.s 			page 4


  42:.\bpl.c       ****     /* check if messages in pipe */
  43:.\bpl.c       ****     if (ReceiveMsgCount==0)
 119              		.loc 1 43 0
 120 0008 40F20003 		movw	r3, #:lower16:ReceiveMsgCount
 121 000c C0F20003 		movt	r3, #:upper16:ReceiveMsgCount
 122 0010 1B78     		ldrb	r3, [r3, #0]	@ zero_extendqisi2
 123 0012 002B     		cmp	r3, #0
 124 0014 02D1     		bne	.L4
  44:.\bpl.c       ****         return 0;
 125              		.loc 1 44 0
 126 0016 4FF00003 		mov	r3, #0
 127 001a 2FE0     		b	.L5
 128              	.L4:
  45:.\bpl.c       ****     
  46:.\bpl.c       ****     /* get message length and copy data to target */
  47:.\bpl.c       ****     msgLength = RBTail[0];
 129              		.loc 1 47 0
 130 001c 40F20003 		movw	r3, #:lower16:RBTail
 131 0020 C0F20003 		movt	r3, #:upper16:RBTail
 132 0024 1B68     		ldr	r3, [r3, #0]
 133 0026 1B78     		ldrb	r3, [r3, #0]
 134 0028 FB73     		strb	r3, [r7, #15]
  48:.\bpl.c       ****     memcpy(target, RBTail+1, msgLength);
 135              		.loc 1 48 0
 136 002a 40F20003 		movw	r3, #:lower16:RBTail
 137 002e C0F20003 		movt	r3, #:upper16:RBTail
 138 0032 1B68     		ldr	r3, [r3, #0]
 139 0034 03F10102 		add	r2, r3, #1
 140 0038 FB7B     		ldrb	r3, [r7, #15]	@ zero_extendqisi2
 141 003a 7868     		ldr	r0, [r7, #4]
 142 003c 1146     		mov	r1, r2
 143 003e 1A46     		mov	r2, r3
 144 0040 FFF7FEFF 		bl	memcpy
  49:.\bpl.c       ****     
  50:.\bpl.c       ****     /* update parameters */
  51:.\bpl.c       ****     RBTail += msgLength + 1;
 145              		.loc 1 51 0
 146 0044 40F20003 		movw	r3, #:lower16:RBTail
 147 0048 C0F20003 		movt	r3, #:upper16:RBTail
 148 004c 1A68     		ldr	r2, [r3, #0]
 149 004e FB7B     		ldrb	r3, [r7, #15]	@ zero_extendqisi2
 150 0050 03F10103 		add	r3, r3, #1
 151 0054 1A44     		add	r2, r2, r3
 152 0056 40F20003 		movw	r3, #:lower16:RBTail
 153 005a C0F20003 		movt	r3, #:upper16:RBTail
 154 005e 1A60     		str	r2, [r3, #0]
  52:.\bpl.c       ****     ReceiveMsgCount--;	
 155              		.loc 1 52 0
 156 0060 40F20003 		movw	r3, #:lower16:ReceiveMsgCount
 157 0064 C0F20003 		movt	r3, #:upper16:ReceiveMsgCount
 158 0068 1B78     		ldrb	r3, [r3, #0]	@ zero_extendqisi2
 159 006a 03F1FF33 		add	r3, r3, #-1
 160 006e DAB2     		uxtb	r2, r3
 161 0070 40F20003 		movw	r3, #:lower16:ReceiveMsgCount
 162 0074 C0F20003 		movt	r3, #:upper16:ReceiveMsgCount
 163 0078 1A70     		strb	r2, [r3, #0]
  53:.\bpl.c       ****     
ARM GAS  C:\Users\Martin\AppData\Local\Temp\ccrekHWt.s 			page 5


  54:.\bpl.c       ****     return msgLength;
 164              		.loc 1 54 0
 165 007a FB7B     		ldrb	r3, [r7, #15]	@ zero_extendqisi2
 166              	.L5:
  55:.\bpl.c       **** }
 167              		.loc 1 55 0
 168 007c 1846     		mov	r0, r3
 169 007e 07F11007 		add	r7, r7, #16
 170 0082 BD46     		mov	sp, r7
 171 0084 80BD     		pop	{r7, pc}
 172              		.cfi_endproc
 173              	.LFE30:
 174              		.size	BPL_GetMessage, .-BPL_GetMessage
 175 0086 00BF     		.section	.text.BPL_TransmitMessage,"ax",%progbits
 176              		.align	2
 177              		.global	BPL_TransmitMessage
 178              		.thumb
 179              		.thumb_func
 180              		.type	BPL_TransmitMessage, %function
 181              	BPL_TransmitMessage:
 182              	.LFB31:
  56:.\bpl.c       **** 
  57:.\bpl.c       **** /*******************************************************/
  58:.\bpl.c       **** STATUS BPL_TransmitMessage(uint8* source, uint8 msgLength)
  59:.\bpl.c       **** {
 183              		.loc 1 59 0
 184              		.cfi_startproc
 185              		@ args = 0, pretend = 0, frame = 8
 186              		@ frame_needed = 1, uses_anonymous_args = 0
 187 0000 80B5     		push	{r7, lr}
 188              	.LCFI5:
 189              		.cfi_def_cfa_offset 8
 190 0002 82B0     		sub	sp, sp, #8
 191              	.LCFI6:
 192              		.cfi_def_cfa_offset 16
 193 0004 00AF     		add	r7, sp, #0
 194              		.cfi_offset 14, -4
 195              		.cfi_offset 7, -8
 196              	.LCFI7:
 197              		.cfi_def_cfa_register 7
 198 0006 7860     		str	r0, [r7, #4]
 199 0008 0B46     		mov	r3, r1
 200 000a FB70     		strb	r3, [r7, #3]
  60:.\bpl.c       ****     /* check if message fits in transmit buffer */
  61:.\bpl.c       ****     if (TransmitBytesCount + msgLength + 1 > TX_BUFFER_SIZE)
 201              		.loc 1 61 0
 202 000c 40F20003 		movw	r3, #:lower16:TransmitBytesCount
 203 0010 C0F20003 		movt	r3, #:upper16:TransmitBytesCount
 204 0014 1B78     		ldrb	r3, [r3, #0]	@ zero_extendqisi2
 205 0016 1A46     		mov	r2, r3
 206 0018 FB78     		ldrb	r3, [r7, #3]	@ zero_extendqisi2
 207 001a 1344     		add	r3, r2, r3
 208 001c 03F10103 		add	r3, r3, #1
 209 0020 B3F5807F 		cmp	r3, #256
 210 0024 02DD     		ble	.L8
  62:.\bpl.c       ****         return BPL_STATUS_TX_BUFFER_FULL;
 211              		.loc 1 62 0
ARM GAS  C:\Users\Martin\AppData\Local\Temp\ccrekHWt.s 			page 6


 212 0026 4FF0FE03 		mov	r3, #254
 213 002a 40E0     		b	.L9
 214              	.L8:
  63:.\bpl.c       **** 
  64:.\bpl.c       ****     /* copy message to transmit buffer, 1st byte = message bytes */
  65:.\bpl.c       ****     TBHead[0] = msgLength;
 215              		.loc 1 65 0
 216 002c 40F20003 		movw	r3, #:lower16:TBHead
 217 0030 C0F20003 		movt	r3, #:upper16:TBHead
 218 0034 1B68     		ldr	r3, [r3, #0]
 219 0036 FA78     		ldrb	r2, [r7, #3]
 220 0038 1A70     		strb	r2, [r3, #0]
  66:.\bpl.c       ****     memcpy(TBHead+1, source, msgLength);
 221              		.loc 1 66 0
 222 003a 40F20003 		movw	r3, #:lower16:TBHead
 223 003e C0F20003 		movt	r3, #:upper16:TBHead
 224 0042 1B68     		ldr	r3, [r3, #0]
 225 0044 03F10102 		add	r2, r3, #1
 226 0048 FB78     		ldrb	r3, [r7, #3]	@ zero_extendqisi2
 227 004a 1046     		mov	r0, r2
 228 004c 7968     		ldr	r1, [r7, #4]
 229 004e 1A46     		mov	r2, r3
 230 0050 FFF7FEFF 		bl	memcpy
  67:.\bpl.c       ****     
  68:.\bpl.c       ****     /* update parameters */
  69:.\bpl.c       ****     TBHead += msgLength + 1;
 231              		.loc 1 69 0
 232 0054 40F20003 		movw	r3, #:lower16:TBHead
 233 0058 C0F20003 		movt	r3, #:upper16:TBHead
 234 005c 1A68     		ldr	r2, [r3, #0]
 235 005e FB78     		ldrb	r3, [r7, #3]	@ zero_extendqisi2
 236 0060 03F10103 		add	r3, r3, #1
 237 0064 1A44     		add	r2, r2, r3
 238 0066 40F20003 		movw	r3, #:lower16:TBHead
 239 006a C0F20003 		movt	r3, #:upper16:TBHead
 240 006e 1A60     		str	r2, [r3, #0]
  70:.\bpl.c       ****     TransmitBytesCount += msgLength + 1;
 241              		.loc 1 70 0
 242 0070 40F20003 		movw	r3, #:lower16:TransmitBytesCount
 243 0074 C0F20003 		movt	r3, #:upper16:TransmitBytesCount
 244 0078 1A78     		ldrb	r2, [r3, #0]	@ zero_extendqisi2
 245 007a FB78     		ldrb	r3, [r7, #3]
 246 007c 1344     		add	r3, r2, r3
 247 007e DBB2     		uxtb	r3, r3
 248 0080 03F10103 		add	r3, r3, #1
 249 0084 DAB2     		uxtb	r2, r3
 250 0086 40F20003 		movw	r3, #:lower16:TransmitBytesCount
 251 008a C0F20003 		movt	r3, #:upper16:TransmitBytesCount
 252 008e 1A70     		strb	r2, [r3, #0]
  71:.\bpl.c       ****     TransmitMsgCount++;
 253              		.loc 1 71 0
 254 0090 40F20003 		movw	r3, #:lower16:TransmitMsgCount
 255 0094 C0F20003 		movt	r3, #:upper16:TransmitMsgCount
 256 0098 1B78     		ldrb	r3, [r3, #0]	@ zero_extendqisi2
 257 009a 03F10103 		add	r3, r3, #1
 258 009e DAB2     		uxtb	r2, r3
 259 00a0 40F20003 		movw	r3, #:lower16:TransmitMsgCount
ARM GAS  C:\Users\Martin\AppData\Local\Temp\ccrekHWt.s 			page 7


 260 00a4 C0F20003 		movt	r3, #:upper16:TransmitMsgCount
 261 00a8 1A70     		strb	r2, [r3, #0]
  72:.\bpl.c       **** 
  73:.\bpl.c       ****     return SUCCESS;	
 262              		.loc 1 73 0
 263 00aa 4FF00003 		mov	r3, #0
 264              	.L9:
  74:.\bpl.c       **** }
 265              		.loc 1 74 0
 266 00ae 1846     		mov	r0, r3
 267 00b0 07F10807 		add	r7, r7, #8
 268 00b4 BD46     		mov	sp, r7
 269 00b6 80BD     		pop	{r7, pc}
 270              		.cfi_endproc
 271              	.LFE31:
 272              		.size	BPL_TransmitMessage, .-BPL_TransmitMessage
 273              		.section	.text.BPL_HandleTask,"ax",%progbits
 274              		.align	2
 275              		.global	BPL_HandleTask
 276              		.thumb
 277              		.thumb_func
 278              		.type	BPL_HandleTask, %function
 279              	BPL_HandleTask:
 280              	.LFB32:
  75:.\bpl.c       **** 
  76:.\bpl.c       **** /*******************************************************/
  77:.\bpl.c       **** void BPL_HandleTask(void)
  78:.\bpl.c       **** {
 281              		.loc 1 78 0
 282              		.cfi_startproc
 283              		@ args = 0, pretend = 0, frame = 8
 284              		@ frame_needed = 1, uses_anonymous_args = 0
 285 0000 90B5     		push	{r4, r7, lr}
 286              	.LCFI8:
 287              		.cfi_def_cfa_offset 12
 288 0002 83B0     		sub	sp, sp, #12
 289              	.LCFI9:
 290              		.cfi_def_cfa_offset 24
 291 0004 00AF     		add	r7, sp, #0
 292              		.cfi_offset 14, -4
 293              		.cfi_offset 7, -8
 294              		.cfi_offset 4, -12
 295              	.LCFI10:
 296              		.cfi_def_cfa_register 7
  79:.\bpl.c       **** 	uint8 numBytes;
  80:.\bpl.c       **** 	
  81:.\bpl.c       **** 	/* Handle received bytes */
  82:.\bpl.c       **** 	/* --------------------- */
  83:.\bpl.c       **** 	while ((HAL_GetRxIsrCount() > 0) && (BplStatus == BPL_STATUS_OK))
 297              		.loc 1 83 0
 298 0006 48E0     		b	.L12
 299              	.L16:
  84:.\bpl.c       **** 	{
  85:.\bpl.c       **** 		/* check for buffer overflow */
  86:.\bpl.c       **** 		if (RBHead+1 == RBTail)
 300              		.loc 1 86 0
 301 0008 40F20003 		movw	r3, #:lower16:RBHead
ARM GAS  C:\Users\Martin\AppData\Local\Temp\ccrekHWt.s 			page 8


 302 000c C0F20003 		movt	r3, #:upper16:RBHead
 303 0010 1B68     		ldr	r3, [r3, #0]
 304 0012 03F10102 		add	r2, r3, #1
 305 0016 40F20003 		movw	r3, #:lower16:RBTail
 306 001a C0F20003 		movt	r3, #:upper16:RBTail
 307 001e 1B68     		ldr	r3, [r3, #0]
 308 0020 9A42     		cmp	r2, r3
 309 0022 07D1     		bne	.L13
  87:.\bpl.c       **** 		{
  88:.\bpl.c       **** 			BplStatus = BPL_STATUS_RX_BUFFER_FULL;
 310              		.loc 1 88 0
 311 0024 40F20003 		movw	r3, #:lower16:BplStatus
 312 0028 C0F20003 		movt	r3, #:upper16:BplStatus
 313 002c 4FF0FF32 		mov	r2, #-1
 314 0030 1A70     		strb	r2, [r3, #0]
  89:.\bpl.c       **** 			break;
 315              		.loc 1 89 0
 316 0032 3EE0     		b	.L14
 317              	.L13:
  90:.\bpl.c       **** 		}
  91:.\bpl.c       **** 		/* check if passing end of ring buffer */
  92:.\bpl.c       **** 		if (++RBHead == &ReceiveBuffer[RX_BUFFER_SIZE])
 318              		.loc 1 92 0
 319 0034 40F20003 		movw	r3, #:lower16:RBHead
 320 0038 C0F20003 		movt	r3, #:upper16:RBHead
 321 003c 1B68     		ldr	r3, [r3, #0]
 322 003e 03F10102 		add	r2, r3, #1
 323 0042 40F20003 		movw	r3, #:lower16:RBHead
 324 0046 C0F20003 		movt	r3, #:upper16:RBHead
 325 004a 1A60     		str	r2, [r3, #0]
 326 004c 40F20003 		movw	r3, #:lower16:RBHead
 327 0050 C0F20003 		movt	r3, #:upper16:RBHead
 328 0054 1A68     		ldr	r2, [r3, #0]
 329 0056 5C4B     		ldr	r3, .L23
 330 0058 9A42     		cmp	r2, r3
 331 005a 08D1     		bne	.L15
  93:.\bpl.c       **** 		{
  94:.\bpl.c       **** 			RBHead = &ReceiveBuffer[0];
 332              		.loc 1 94 0
 333 005c 40F20003 		movw	r3, #:lower16:RBHead
 334 0060 C0F20003 		movt	r3, #:upper16:RBHead
 335 0064 40F20002 		movw	r2, #:lower16:ReceiveBuffer
 336 0068 C0F20002 		movt	r2, #:upper16:ReceiveBuffer
 337 006c 1A60     		str	r2, [r3, #0]
 338              	.L15:
  95:.\bpl.c       **** 		}
  96:.\bpl.c       **** 
  97:.\bpl.c       **** 		/* copy byte from rx buffer to ring buffer */
  98:.\bpl.c       **** 		*RBHead = HAL_GetByte();
 339              		.loc 1 98 0
 340 006e 40F20003 		movw	r3, #:lower16:RBHead
 341 0072 C0F20003 		movt	r3, #:upper16:RBHead
 342 0076 1C68     		ldr	r4, [r3, #0]
 343 0078 FFF7FEFF 		bl	HAL_GetByte
 344 007c 0346     		mov	r3, r0
 345 007e 2370     		strb	r3, [r4, #0]
  99:.\bpl.c       **** 		ReceiveMsgCount++;	
ARM GAS  C:\Users\Martin\AppData\Local\Temp\ccrekHWt.s 			page 9


 346              		.loc 1 99 0
 347 0080 40F20003 		movw	r3, #:lower16:ReceiveMsgCount
 348 0084 C0F20003 		movt	r3, #:upper16:ReceiveMsgCount
 349 0088 1B78     		ldrb	r3, [r3, #0]	@ zero_extendqisi2
 350 008a 03F10103 		add	r3, r3, #1
 351 008e DAB2     		uxtb	r2, r3
 352 0090 40F20003 		movw	r3, #:lower16:ReceiveMsgCount
 353 0094 C0F20003 		movt	r3, #:upper16:ReceiveMsgCount
 354 0098 1A70     		strb	r2, [r3, #0]
 355              	.L12:
 356              		.loc 1 83 0
 357 009a FFF7FEFF 		bl	HAL_GetRxIsrCount
 358 009e 0346     		mov	r3, r0
 359 00a0 002B     		cmp	r3, #0
 360 00a2 06D0     		beq	.L14
 361 00a4 40F20003 		movw	r3, #:lower16:BplStatus
 362 00a8 C0F20003 		movt	r3, #:upper16:BplStatus
 363 00ac 1B78     		ldrb	r3, [r3, #0]	@ zero_extendqisi2
 364 00ae 002B     		cmp	r3, #0
 365 00b0 AAD0     		beq	.L16
 366              	.L14:
 100:.\bpl.c       **** 	}
 101:.\bpl.c       **** 
 102:.\bpl.c       **** 	
 103:.\bpl.c       **** 	/* Handle transmission of bytes */
 104:.\bpl.c       **** 	/* ---------------------------- */
 105:.\bpl.c       **** 	if ((TransmitMsgCount > 0) && (BplStatus == BPL_STATUS_OK))
 367              		.loc 1 105 0
 368 00b2 40F20003 		movw	r3, #:lower16:TransmitMsgCount
 369 00b6 C0F20003 		movt	r3, #:upper16:TransmitMsgCount
 370 00ba 1B78     		ldrb	r3, [r3, #0]	@ zero_extendqisi2
 371 00bc 002B     		cmp	r3, #0
 372 00be 40D0     		beq	.L17
 373 00c0 40F20003 		movw	r3, #:lower16:BplStatus
 374 00c4 C0F20003 		movt	r3, #:upper16:BplStatus
 375 00c8 1B78     		ldrb	r3, [r3, #0]	@ zero_extendqisi2
 376 00ca 002B     		cmp	r3, #0
 377 00cc 39D1     		bne	.L17
 106:.\bpl.c       **** 	{
 107:.\bpl.c       **** 		numBytes = *TBTail; //message length
 378              		.loc 1 107 0
 379 00ce 40F20003 		movw	r3, #:lower16:TBTail
 380 00d2 C0F20003 		movt	r3, #:upper16:TBTail
 381 00d6 1B68     		ldr	r3, [r3, #0]
 382 00d8 1B78     		ldrb	r3, [r3, #0]
 383 00da FB71     		strb	r3, [r7, #7]
 108:.\bpl.c       **** 		
 109:.\bpl.c       **** 		/* check for buffer overflow */
 110:.\bpl.c       **** 		if (TBTail + numBytes > TBHead)
 384              		.loc 1 110 0
 385 00dc 40F20003 		movw	r3, #:lower16:TBTail
 386 00e0 C0F20003 		movt	r3, #:upper16:TBTail
 387 00e4 1A68     		ldr	r2, [r3, #0]
 388 00e6 FB79     		ldrb	r3, [r7, #7]	@ zero_extendqisi2
 389 00e8 1A44     		add	r2, r2, r3
 390 00ea 40F20003 		movw	r3, #:lower16:TBHead
 391 00ee C0F20003 		movt	r3, #:upper16:TBHead
ARM GAS  C:\Users\Martin\AppData\Local\Temp\ccrekHWt.s 			page 10


 392 00f2 1B68     		ldr	r3, [r3, #0]
 393 00f4 9A42     		cmp	r2, r3
 394 00f6 07D9     		bls	.L18
 111:.\bpl.c       **** 		{
 112:.\bpl.c       **** 			BplStatus = BPL_STATUS_TX_DATA_MISMATCH;
 395              		.loc 1 112 0
 396 00f8 40F20003 		movw	r3, #:lower16:BplStatus
 397 00fc C0F20003 		movt	r3, #:upper16:BplStatus
 398 0100 6FF00202 		mvn	r2, #2
 399 0104 1A70     		strb	r2, [r3, #0]
 400 0106 1CE0     		b	.L17
 401              	.L18:
 113:.\bpl.c       **** 		}
 114:.\bpl.c       **** 		else
 115:.\bpl.c       **** 		{
 116:.\bpl.c       **** 			/* transmit byte */
 117:.\bpl.c       **** 			BplStatus = HAL_TransmitArray(TBTail, numBytes);
 402              		.loc 1 117 0
 403 0108 40F20003 		movw	r3, #:lower16:TBTail
 404 010c C0F20003 		movt	r3, #:upper16:TBTail
 405 0110 1A68     		ldr	r2, [r3, #0]
 406 0112 FB79     		ldrb	r3, [r7, #7]	@ zero_extendqisi2
 407 0114 1046     		mov	r0, r2
 408 0116 1946     		mov	r1, r3
 409 0118 FFF7FEFF 		bl	HAL_TransmitArray
 410 011c 0346     		mov	r3, r0
 411 011e 1A46     		mov	r2, r3
 412 0120 40F20003 		movw	r3, #:lower16:BplStatus
 413 0124 C0F20003 		movt	r3, #:upper16:BplStatus
 414 0128 1A70     		strb	r2, [r3, #0]
 118:.\bpl.c       **** 			TBTail += + numBytes;
 415              		.loc 1 118 0
 416 012a 40F20003 		movw	r3, #:lower16:TBTail
 417 012e C0F20003 		movt	r3, #:upper16:TBTail
 418 0132 1A68     		ldr	r2, [r3, #0]
 419 0134 FB79     		ldrb	r3, [r7, #7]	@ zero_extendqisi2
 420 0136 1A44     		add	r2, r2, r3
 421 0138 40F20003 		movw	r3, #:lower16:TBTail
 422 013c C0F20003 		movt	r3, #:upper16:TBTail
 423 0140 1A60     		str	r2, [r3, #0]
 424              	.L17:
 119:.\bpl.c       **** 		}
 120:.\bpl.c       **** 	}
 121:.\bpl.c       **** 	
 122:.\bpl.c       **** 	
 123:.\bpl.c       **** 	/* Handle errors */
 124:.\bpl.c       **** 	/* ------------- */
 125:.\bpl.c       **** 	switch (BplStatus)
 425              		.loc 1 125 0
 426 0142 40F20003 		movw	r3, #:lower16:BplStatus
 427 0146 C0F20003 		movt	r3, #:upper16:BplStatus
 428 014a 1B78     		ldrb	r3, [r3, #0]	@ zero_extendqisi2
 429 014c FD2B     		cmp	r3, #253
 430 014e 1CD0     		beq	.L20
 431 0150 FF2B     		cmp	r3, #255
 432 0152 34D1     		bne	.L22
 433              	.L21:
ARM GAS  C:\Users\Martin\AppData\Local\Temp\ccrekHWt.s 			page 11


 126:.\bpl.c       **** 	{
 127:.\bpl.c       **** 		case BPL_STATUS_RX_BUFFER_FULL:		RBHead = RBTail = ReceiveBuffer;
 434              		.loc 1 127 0
 435 0154 40F20003 		movw	r3, #:lower16:RBTail
 436 0158 C0F20003 		movt	r3, #:upper16:RBTail
 437 015c 40F20002 		movw	r2, #:lower16:ReceiveBuffer
 438 0160 C0F20002 		movt	r2, #:upper16:ReceiveBuffer
 439 0164 1A60     		str	r2, [r3, #0]
 440 0166 40F20003 		movw	r3, #:lower16:RBTail
 441 016a C0F20003 		movt	r3, #:upper16:RBTail
 442 016e 1A68     		ldr	r2, [r3, #0]
 443 0170 40F20003 		movw	r3, #:lower16:RBHead
 444 0174 C0F20003 		movt	r3, #:upper16:RBHead
 445 0178 1A60     		str	r2, [r3, #0]
 128:.\bpl.c       **** 											ReceiveMsgCount = 0;
 446              		.loc 1 128 0
 447 017a 40F20003 		movw	r3, #:lower16:ReceiveMsgCount
 448 017e C0F20003 		movt	r3, #:upper16:ReceiveMsgCount
 449 0182 4FF00002 		mov	r2, #0
 450 0186 1A70     		strb	r2, [r3, #0]
 129:.\bpl.c       **** 											break;
 451              		.loc 1 129 0
 452 0188 19E0     		b	.L22
 453              	.L20:
 130:.\bpl.c       **** 		case BPL_STATUS_TX_DATA_MISMATCH:	TBHead = TBTail = TransmitBuffer;
 454              		.loc 1 130 0
 455 018a 40F20003 		movw	r3, #:lower16:TBTail
 456 018e C0F20003 		movt	r3, #:upper16:TBTail
 457 0192 40F20002 		movw	r2, #:lower16:TransmitBuffer
 458 0196 C0F20002 		movt	r2, #:upper16:TransmitBuffer
 459 019a 1A60     		str	r2, [r3, #0]
 460 019c 40F20003 		movw	r3, #:lower16:TBTail
 461 01a0 C0F20003 		movt	r3, #:upper16:TBTail
 462 01a4 1A68     		ldr	r2, [r3, #0]
 463 01a6 40F20003 		movw	r3, #:lower16:TBHead
 464 01aa C0F20003 		movt	r3, #:upper16:TBHead
 465 01ae 1A60     		str	r2, [r3, #0]
 131:.\bpl.c       **** 											TransmitMsgCount = 0;
 466              		.loc 1 131 0
 467 01b0 40F20003 		movw	r3, #:lower16:TransmitMsgCount
 468 01b4 C0F20003 		movt	r3, #:upper16:TransmitMsgCount
 469 01b8 4FF00002 		mov	r2, #0
 470 01bc 1A70     		strb	r2, [r3, #0]
 471              	.L22:
 132:.\bpl.c       **** 											break;
 133:.\bpl.c       **** 		default:							break;
 134:.\bpl.c       **** 	}
 135:.\bpl.c       **** }
 472              		.loc 1 135 0
 473 01be 07F10C07 		add	r7, r7, #12
 474 01c2 BD46     		mov	sp, r7
 475 01c4 90BD     		pop	{r4, r7, pc}
 476              	.L24:
 477 01c6 00BF     		.align	2
 478              	.L23:
 479 01c8 00010000 		.word	ReceiveBuffer+256
 480              		.cfi_endproc
ARM GAS  C:\Users\Martin\AppData\Local\Temp\ccrekHWt.s 			page 12


 481              	.LFE32:
 482              		.size	BPL_HandleTask, .-BPL_HandleTask
 483              		.text
 484              	.Letext0:
 485              		.section	.debug_loc,"",%progbits
 486              	.Ldebug_loc0:
 487              	.LLST0:
 488 0000 00000000 		.4byte	.LFB29
 489 0004 02000000 		.4byte	.LCFI0
 490 0008 0100     		.2byte	0x1
 491 000a 5D       		.byte	0x5d
 492 000b 02000000 		.4byte	.LCFI0
 493 000f 04000000 		.4byte	.LCFI1
 494 0013 0200     		.2byte	0x2
 495 0015 7D       		.byte	0x7d
 496 0016 04       		.sleb128 4
 497 0017 04000000 		.4byte	.LCFI1
 498 001b 16000000 		.4byte	.LFE29
 499 001f 0200     		.2byte	0x2
 500 0021 77       		.byte	0x77
 501 0022 04       		.sleb128 4
 502 0023 00000000 		.4byte	0x0
 503 0027 00000000 		.4byte	0x0
 504              	.LLST1:
 505 002b 00000000 		.4byte	.LFB30
 506 002f 02000000 		.4byte	.LCFI2
 507 0033 0100     		.2byte	0x1
 508 0035 5D       		.byte	0x5d
 509 0036 02000000 		.4byte	.LCFI2
 510 003a 04000000 		.4byte	.LCFI3
 511 003e 0200     		.2byte	0x2
 512 0040 7D       		.byte	0x7d
 513 0041 08       		.sleb128 8
 514 0042 04000000 		.4byte	.LCFI3
 515 0046 06000000 		.4byte	.LCFI4
 516 004a 0200     		.2byte	0x2
 517 004c 7D       		.byte	0x7d
 518 004d 18       		.sleb128 24
 519 004e 06000000 		.4byte	.LCFI4
 520 0052 86000000 		.4byte	.LFE30
 521 0056 0200     		.2byte	0x2
 522 0058 77       		.byte	0x77
 523 0059 18       		.sleb128 24
 524 005a 00000000 		.4byte	0x0
 525 005e 00000000 		.4byte	0x0
 526              	.LLST2:
 527 0062 00000000 		.4byte	.LFB31
 528 0066 02000000 		.4byte	.LCFI5
 529 006a 0100     		.2byte	0x1
 530 006c 5D       		.byte	0x5d
 531 006d 02000000 		.4byte	.LCFI5
 532 0071 04000000 		.4byte	.LCFI6
 533 0075 0200     		.2byte	0x2
 534 0077 7D       		.byte	0x7d
 535 0078 08       		.sleb128 8
 536 0079 04000000 		.4byte	.LCFI6
 537 007d 06000000 		.4byte	.LCFI7
ARM GAS  C:\Users\Martin\AppData\Local\Temp\ccrekHWt.s 			page 13


 538 0081 0200     		.2byte	0x2
 539 0083 7D       		.byte	0x7d
 540 0084 10       		.sleb128 16
 541 0085 06000000 		.4byte	.LCFI7
 542 0089 B8000000 		.4byte	.LFE31
 543 008d 0200     		.2byte	0x2
 544 008f 77       		.byte	0x77
 545 0090 10       		.sleb128 16
 546 0091 00000000 		.4byte	0x0
 547 0095 00000000 		.4byte	0x0
 548              	.LLST3:
 549 0099 00000000 		.4byte	.LFB32
 550 009d 02000000 		.4byte	.LCFI8
 551 00a1 0100     		.2byte	0x1
 552 00a3 5D       		.byte	0x5d
 553 00a4 02000000 		.4byte	.LCFI8
 554 00a8 04000000 		.4byte	.LCFI9
 555 00ac 0200     		.2byte	0x2
 556 00ae 7D       		.byte	0x7d
 557 00af 0C       		.sleb128 12
 558 00b0 04000000 		.4byte	.LCFI9
 559 00b4 06000000 		.4byte	.LCFI10
 560 00b8 0200     		.2byte	0x2
 561 00ba 7D       		.byte	0x7d
 562 00bb 18       		.sleb128 24
 563 00bc 06000000 		.4byte	.LCFI10
 564 00c0 CC010000 		.4byte	.LFE32
 565 00c4 0200     		.2byte	0x2
 566 00c6 77       		.byte	0x77
 567 00c7 18       		.sleb128 24
 568 00c8 00000000 		.4byte	0x0
 569 00cc 00000000 		.4byte	0x0
 570              		.file 2 "./Generated_Source/PSoC5/cytypes.h"
 571              		.file 3 ".\\/types.h"
 572              		.file 4 "./Generated_Source/PSoC5/core_cm3.h"
 573              		.section	.debug_info
 574 0000 33020000 		.4byte	0x233
 575 0004 0200     		.2byte	0x2
 576 0006 00000000 		.4byte	.Ldebug_abbrev0
 577 000a 04       		.byte	0x4
 578 000b 01       		.uleb128 0x1
 579 000c 78010000 		.4byte	.LASF31
 580 0010 01       		.byte	0x1
 581 0011 2A010000 		.4byte	.LASF32
 582 0015 74000000 		.4byte	.LASF33
 583 0019 00000000 		.4byte	0x0
 584 001d 00000000 		.4byte	0x0
 585 0021 00000000 		.4byte	.Ldebug_ranges0+0x0
 586 0025 00000000 		.4byte	.Ldebug_line0
 587 0029 02       		.uleb128 0x2
 588 002a 01       		.byte	0x1
 589 002b 06       		.byte	0x6
 590 002c DF010000 		.4byte	.LASF0
 591 0030 02       		.uleb128 0x2
 592 0031 01       		.byte	0x1
 593 0032 08       		.byte	0x8
 594 0033 FC000000 		.4byte	.LASF1
ARM GAS  C:\Users\Martin\AppData\Local\Temp\ccrekHWt.s 			page 14


 595 0037 02       		.uleb128 0x2
 596 0038 02       		.byte	0x2
 597 0039 05       		.byte	0x5
 598 003a 9B010000 		.4byte	.LASF2
 599 003e 02       		.uleb128 0x2
 600 003f 02       		.byte	0x2
 601 0040 07       		.byte	0x7
 602 0041 D5000000 		.4byte	.LASF3
 603 0045 02       		.uleb128 0x2
 604 0046 04       		.byte	0x4
 605 0047 05       		.byte	0x5
 606 0048 D1010000 		.4byte	.LASF4
 607 004c 02       		.uleb128 0x2
 608 004d 04       		.byte	0x4
 609 004e 07       		.byte	0x7
 610 004f C3000000 		.4byte	.LASF5
 611 0053 02       		.uleb128 0x2
 612 0054 08       		.byte	0x8
 613 0055 05       		.byte	0x5
 614 0056 00000000 		.4byte	.LASF6
 615 005a 02       		.uleb128 0x2
 616 005b 08       		.byte	0x8
 617 005c 07       		.byte	0x7
 618 005d 3F010000 		.4byte	.LASF7
 619 0061 03       		.uleb128 0x3
 620 0062 04       		.byte	0x4
 621 0063 05       		.byte	0x5
 622 0064 696E7400 		.ascii	"int\000"
 623 0068 02       		.uleb128 0x2
 624 0069 04       		.byte	0x4
 625 006a 07       		.byte	0x7
 626 006b 32010000 		.4byte	.LASF8
 627 006f 04       		.uleb128 0x4
 628 0070 B4010000 		.4byte	.LASF12
 629 0074 02       		.byte	0x2
 630 0075 4C       		.byte	0x4c
 631 0076 30000000 		.4byte	0x30
 632 007a 02       		.uleb128 0x2
 633 007b 04       		.byte	0x4
 634 007c 04       		.byte	0x4
 635 007d 45000000 		.4byte	.LASF9
 636 0081 02       		.uleb128 0x2
 637 0082 08       		.byte	0x8
 638 0083 04       		.byte	0x4
 639 0084 0A010000 		.4byte	.LASF10
 640 0088 02       		.uleb128 0x2
 641 0089 01       		.byte	0x1
 642 008a 08       		.byte	0x8
 643 008b DA010000 		.4byte	.LASF11
 644 008f 05       		.uleb128 0x5
 645 0090 04       		.byte	0x4
 646 0091 07       		.byte	0x7
 647 0092 04       		.uleb128 0x4
 648 0093 5A000000 		.4byte	.LASF13
 649 0097 03       		.byte	0x3
 650 0098 0E       		.byte	0xe
 651 0099 6F000000 		.4byte	0x6f
ARM GAS  C:\Users\Martin\AppData\Local\Temp\ccrekHWt.s 			page 15


 652 009d 06       		.uleb128 0x6
 653 009e 01       		.byte	0x1
 654 009f 84010000 		.4byte	.LASF34
 655 00a3 01       		.byte	0x1
 656 00a4 20       		.byte	0x20
 657 00a5 01       		.byte	0x1
 658 00a6 6F000000 		.4byte	0x6f
 659 00aa 00000000 		.4byte	.LFB29
 660 00ae 16000000 		.4byte	.LFE29
 661 00b2 00000000 		.4byte	.LLST0
 662 00b6 07       		.uleb128 0x7
 663 00b7 01       		.byte	0x1
 664 00b8 4B000000 		.4byte	.LASF14
 665 00bc 01       		.byte	0x1
 666 00bd 26       		.byte	0x26
 667 00be 01       		.byte	0x1
 668 00bf 6F000000 		.4byte	0x6f
 669 00c3 00000000 		.4byte	.LFB30
 670 00c7 86000000 		.4byte	.LFE30
 671 00cb 2B000000 		.4byte	.LLST1
 672 00cf F0000000 		.4byte	0xf0
 673 00d3 08       		.uleb128 0x8
 674 00d4 3E000000 		.4byte	.LASF16
 675 00d8 01       		.byte	0x1
 676 00d9 26       		.byte	0x26
 677 00da F0000000 		.4byte	0xf0
 678 00de 02       		.byte	0x2
 679 00df 91       		.byte	0x91
 680 00e0 6C       		.sleb128 -20
 681 00e1 09       		.uleb128 0x9
 682 00e2 26000000 		.4byte	.LASF18
 683 00e6 01       		.byte	0x1
 684 00e7 28       		.byte	0x28
 685 00e8 6F000000 		.4byte	0x6f
 686 00ec 02       		.byte	0x2
 687 00ed 91       		.byte	0x91
 688 00ee 77       		.sleb128 -9
 689 00ef 00       		.byte	0x0
 690 00f0 0A       		.uleb128 0xa
 691 00f1 04       		.byte	0x4
 692 00f2 6F000000 		.4byte	0x6f
 693 00f6 07       		.uleb128 0x7
 694 00f7 01       		.byte	0x1
 695 00f8 F2010000 		.4byte	.LASF15
 696 00fc 01       		.byte	0x1
 697 00fd 3A       		.byte	0x3a
 698 00fe 01       		.byte	0x1
 699 00ff 92000000 		.4byte	0x92
 700 0103 00000000 		.4byte	.LFB31
 701 0107 B8000000 		.4byte	.LFE31
 702 010b 62000000 		.4byte	.LLST2
 703 010f 30010000 		.4byte	0x130
 704 0113 08       		.uleb128 0x8
 705 0114 EB010000 		.4byte	.LASF17
 706 0118 01       		.byte	0x1
 707 0119 3A       		.byte	0x3a
 708 011a F0000000 		.4byte	0xf0
ARM GAS  C:\Users\Martin\AppData\Local\Temp\ccrekHWt.s 			page 16


 709 011e 02       		.byte	0x2
 710 011f 91       		.byte	0x91
 711 0120 74       		.sleb128 -12
 712 0121 08       		.uleb128 0x8
 713 0122 26000000 		.4byte	.LASF18
 714 0126 01       		.byte	0x1
 715 0127 3A       		.byte	0x3a
 716 0128 6F000000 		.4byte	0x6f
 717 012c 02       		.byte	0x2
 718 012d 91       		.byte	0x91
 719 012e 73       		.sleb128 -13
 720 012f 00       		.byte	0x0
 721 0130 0B       		.uleb128 0xb
 722 0131 01       		.byte	0x1
 723 0132 69010000 		.4byte	.LASF35
 724 0136 01       		.byte	0x1
 725 0137 4D       		.byte	0x4d
 726 0138 01       		.byte	0x1
 727 0139 00000000 		.4byte	.LFB32
 728 013d CC010000 		.4byte	.LFE32
 729 0141 99000000 		.4byte	.LLST3
 730 0145 58010000 		.4byte	0x158
 731 0149 09       		.uleb128 0x9
 732 014a 60010000 		.4byte	.LASF19
 733 014e 01       		.byte	0x1
 734 014f 4F       		.byte	0x4f
 735 0150 6F000000 		.4byte	0x6f
 736 0154 02       		.byte	0x2
 737 0155 91       		.byte	0x91
 738 0156 6F       		.sleb128 -17
 739 0157 00       		.byte	0x0
 740 0158 0C       		.uleb128 0xc
 741 0159 6F000000 		.4byte	0x6f
 742 015d 68010000 		.4byte	0x168
 743 0161 0D       		.uleb128 0xd
 744 0162 8F000000 		.4byte	0x8f
 745 0166 FF       		.byte	0xff
 746 0167 00       		.byte	0x0
 747 0168 09       		.uleb128 0x9
 748 0169 30000000 		.4byte	.LASF20
 749 016d 01       		.byte	0x1
 750 016e 11       		.byte	0x11
 751 016f 58010000 		.4byte	0x158
 752 0173 05       		.byte	0x5
 753 0174 03       		.byte	0x3
 754 0175 00000000 		.4byte	ReceiveBuffer
 755 0179 09       		.uleb128 0x9
 756 017a A5010000 		.4byte	.LASF21
 757 017e 01       		.byte	0x1
 758 017f 12       		.byte	0x12
 759 0180 58010000 		.4byte	0x158
 760 0184 05       		.byte	0x5
 761 0185 03       		.byte	0x3
 762 0186 00010000 		.4byte	TransmitBuffer
 763 018a 09       		.uleb128 0x9
 764 018b C1010000 		.4byte	.LASF22
 765 018f 01       		.byte	0x1
ARM GAS  C:\Users\Martin\AppData\Local\Temp\ccrekHWt.s 			page 17


 766 0190 13       		.byte	0x13
 767 0191 6F000000 		.4byte	0x6f
 768 0195 05       		.byte	0x5
 769 0196 03       		.byte	0x3
 770 0197 00020000 		.4byte	ReceiveMsgCount
 771 019b 09       		.uleb128 0x9
 772 019c 0E000000 		.4byte	.LASF23
 773 01a0 01       		.byte	0x1
 774 01a1 14       		.byte	0x14
 775 01a2 6F000000 		.4byte	0x6f
 776 01a6 05       		.byte	0x5
 777 01a7 03       		.byte	0x3
 778 01a8 01020000 		.4byte	TransmitMsgCount
 779 01ac 09       		.uleb128 0x9
 780 01ad 11010000 		.4byte	.LASF24
 781 01b1 01       		.byte	0x1
 782 01b2 15       		.byte	0x15
 783 01b3 6F000000 		.4byte	0x6f
 784 01b7 05       		.byte	0x5
 785 01b8 03       		.byte	0x3
 786 01b9 02020000 		.4byte	ReceiveBytesCount
 787 01bd 09       		.uleb128 0x9
 788 01be 61000000 		.4byte	.LASF25
 789 01c2 01       		.byte	0x1
 790 01c3 16       		.byte	0x16
 791 01c4 6F000000 		.4byte	0x6f
 792 01c8 05       		.byte	0x5
 793 01c9 03       		.byte	0x3
 794 01ca 03020000 		.4byte	TransmitBytesCount
 795 01ce 09       		.uleb128 0x9
 796 01cf E8000000 		.4byte	.LASF26
 797 01d3 01       		.byte	0x1
 798 01d4 18       		.byte	0x18
 799 01d5 F0000000 		.4byte	0xf0
 800 01d9 05       		.byte	0x5
 801 01da 03       		.byte	0x3
 802 01db 00000000 		.4byte	RBHead
 803 01df 09       		.uleb128 0x9
 804 01e0 BA010000 		.4byte	.LASF27
 805 01e4 01       		.byte	0x1
 806 01e5 19       		.byte	0x19
 807 01e6 F0000000 		.4byte	0xf0
 808 01ea 05       		.byte	0x5
 809 01eb 03       		.byte	0x3
 810 01ec 04000000 		.4byte	RBTail
 811 01f0 09       		.uleb128 0x9
 812 01f1 1F000000 		.4byte	.LASF28
 813 01f5 01       		.byte	0x1
 814 01f6 1A       		.byte	0x1a
 815 01f7 F0000000 		.4byte	0xf0
 816 01fb 05       		.byte	0x5
 817 01fc 03       		.byte	0x3
 818 01fd 08000000 		.4byte	TBHead
 819 0201 09       		.uleb128 0x9
 820 0202 23010000 		.4byte	.LASF29
 821 0206 01       		.byte	0x1
 822 0207 1B       		.byte	0x1b
ARM GAS  C:\Users\Martin\AppData\Local\Temp\ccrekHWt.s 			page 18


 823 0208 F0000000 		.4byte	0xf0
 824 020c 05       		.byte	0x5
 825 020d 03       		.byte	0x3
 826 020e 0C000000 		.4byte	TBTail
 827 0212 09       		.uleb128 0x9
 828 0213 56010000 		.4byte	.LASF30
 829 0217 01       		.byte	0x1
 830 0218 1D       		.byte	0x1d
 831 0219 92000000 		.4byte	0x92
 832 021d 05       		.byte	0x5
 833 021e 03       		.byte	0x3
 834 021f 04020000 		.4byte	BplStatus
 835 0223 0E       		.uleb128 0xe
 836 0224 EF000000 		.4byte	.LASF36
 837 0228 04       		.byte	0x4
 838 0229 CE06     		.2byte	0x6ce
 839 022b 31020000 		.4byte	0x231
 840 022f 01       		.byte	0x1
 841 0230 01       		.byte	0x1
 842 0231 0F       		.uleb128 0xf
 843 0232 61000000 		.4byte	0x61
 844 0236 00       		.byte	0x0
 845              		.section	.debug_abbrev
 846 0000 01       		.uleb128 0x1
 847 0001 11       		.uleb128 0x11
 848 0002 01       		.byte	0x1
 849 0003 25       		.uleb128 0x25
 850 0004 0E       		.uleb128 0xe
 851 0005 13       		.uleb128 0x13
 852 0006 0B       		.uleb128 0xb
 853 0007 03       		.uleb128 0x3
 854 0008 0E       		.uleb128 0xe
 855 0009 1B       		.uleb128 0x1b
 856 000a 0E       		.uleb128 0xe
 857 000b 11       		.uleb128 0x11
 858 000c 01       		.uleb128 0x1
 859 000d 52       		.uleb128 0x52
 860 000e 01       		.uleb128 0x1
 861 000f 55       		.uleb128 0x55
 862 0010 06       		.uleb128 0x6
 863 0011 10       		.uleb128 0x10
 864 0012 06       		.uleb128 0x6
 865 0013 00       		.byte	0x0
 866 0014 00       		.byte	0x0
 867 0015 02       		.uleb128 0x2
 868 0016 24       		.uleb128 0x24
 869 0017 00       		.byte	0x0
 870 0018 0B       		.uleb128 0xb
 871 0019 0B       		.uleb128 0xb
 872 001a 3E       		.uleb128 0x3e
 873 001b 0B       		.uleb128 0xb
 874 001c 03       		.uleb128 0x3
 875 001d 0E       		.uleb128 0xe
 876 001e 00       		.byte	0x0
 877 001f 00       		.byte	0x0
 878 0020 03       		.uleb128 0x3
 879 0021 24       		.uleb128 0x24
ARM GAS  C:\Users\Martin\AppData\Local\Temp\ccrekHWt.s 			page 19


 880 0022 00       		.byte	0x0
 881 0023 0B       		.uleb128 0xb
 882 0024 0B       		.uleb128 0xb
 883 0025 3E       		.uleb128 0x3e
 884 0026 0B       		.uleb128 0xb
 885 0027 03       		.uleb128 0x3
 886 0028 08       		.uleb128 0x8
 887 0029 00       		.byte	0x0
 888 002a 00       		.byte	0x0
 889 002b 04       		.uleb128 0x4
 890 002c 16       		.uleb128 0x16
 891 002d 00       		.byte	0x0
 892 002e 03       		.uleb128 0x3
 893 002f 0E       		.uleb128 0xe
 894 0030 3A       		.uleb128 0x3a
 895 0031 0B       		.uleb128 0xb
 896 0032 3B       		.uleb128 0x3b
 897 0033 0B       		.uleb128 0xb
 898 0034 49       		.uleb128 0x49
 899 0035 13       		.uleb128 0x13
 900 0036 00       		.byte	0x0
 901 0037 00       		.byte	0x0
 902 0038 05       		.uleb128 0x5
 903 0039 24       		.uleb128 0x24
 904 003a 00       		.byte	0x0
 905 003b 0B       		.uleb128 0xb
 906 003c 0B       		.uleb128 0xb
 907 003d 3E       		.uleb128 0x3e
 908 003e 0B       		.uleb128 0xb
 909 003f 00       		.byte	0x0
 910 0040 00       		.byte	0x0
 911 0041 06       		.uleb128 0x6
 912 0042 2E       		.uleb128 0x2e
 913 0043 00       		.byte	0x0
 914 0044 3F       		.uleb128 0x3f
 915 0045 0C       		.uleb128 0xc
 916 0046 03       		.uleb128 0x3
 917 0047 0E       		.uleb128 0xe
 918 0048 3A       		.uleb128 0x3a
 919 0049 0B       		.uleb128 0xb
 920 004a 3B       		.uleb128 0x3b
 921 004b 0B       		.uleb128 0xb
 922 004c 27       		.uleb128 0x27
 923 004d 0C       		.uleb128 0xc
 924 004e 49       		.uleb128 0x49
 925 004f 13       		.uleb128 0x13
 926 0050 11       		.uleb128 0x11
 927 0051 01       		.uleb128 0x1
 928 0052 12       		.uleb128 0x12
 929 0053 01       		.uleb128 0x1
 930 0054 40       		.uleb128 0x40
 931 0055 06       		.uleb128 0x6
 932 0056 00       		.byte	0x0
 933 0057 00       		.byte	0x0
 934 0058 07       		.uleb128 0x7
 935 0059 2E       		.uleb128 0x2e
 936 005a 01       		.byte	0x1
ARM GAS  C:\Users\Martin\AppData\Local\Temp\ccrekHWt.s 			page 20


 937 005b 3F       		.uleb128 0x3f
 938 005c 0C       		.uleb128 0xc
 939 005d 03       		.uleb128 0x3
 940 005e 0E       		.uleb128 0xe
 941 005f 3A       		.uleb128 0x3a
 942 0060 0B       		.uleb128 0xb
 943 0061 3B       		.uleb128 0x3b
 944 0062 0B       		.uleb128 0xb
 945 0063 27       		.uleb128 0x27
 946 0064 0C       		.uleb128 0xc
 947 0065 49       		.uleb128 0x49
 948 0066 13       		.uleb128 0x13
 949 0067 11       		.uleb128 0x11
 950 0068 01       		.uleb128 0x1
 951 0069 12       		.uleb128 0x12
 952 006a 01       		.uleb128 0x1
 953 006b 40       		.uleb128 0x40
 954 006c 06       		.uleb128 0x6
 955 006d 01       		.uleb128 0x1
 956 006e 13       		.uleb128 0x13
 957 006f 00       		.byte	0x0
 958 0070 00       		.byte	0x0
 959 0071 08       		.uleb128 0x8
 960 0072 05       		.uleb128 0x5
 961 0073 00       		.byte	0x0
 962 0074 03       		.uleb128 0x3
 963 0075 0E       		.uleb128 0xe
 964 0076 3A       		.uleb128 0x3a
 965 0077 0B       		.uleb128 0xb
 966 0078 3B       		.uleb128 0x3b
 967 0079 0B       		.uleb128 0xb
 968 007a 49       		.uleb128 0x49
 969 007b 13       		.uleb128 0x13
 970 007c 02       		.uleb128 0x2
 971 007d 0A       		.uleb128 0xa
 972 007e 00       		.byte	0x0
 973 007f 00       		.byte	0x0
 974 0080 09       		.uleb128 0x9
 975 0081 34       		.uleb128 0x34
 976 0082 00       		.byte	0x0
 977 0083 03       		.uleb128 0x3
 978 0084 0E       		.uleb128 0xe
 979 0085 3A       		.uleb128 0x3a
 980 0086 0B       		.uleb128 0xb
 981 0087 3B       		.uleb128 0x3b
 982 0088 0B       		.uleb128 0xb
 983 0089 49       		.uleb128 0x49
 984 008a 13       		.uleb128 0x13
 985 008b 02       		.uleb128 0x2
 986 008c 0A       		.uleb128 0xa
 987 008d 00       		.byte	0x0
 988 008e 00       		.byte	0x0
 989 008f 0A       		.uleb128 0xa
 990 0090 0F       		.uleb128 0xf
 991 0091 00       		.byte	0x0
 992 0092 0B       		.uleb128 0xb
 993 0093 0B       		.uleb128 0xb
ARM GAS  C:\Users\Martin\AppData\Local\Temp\ccrekHWt.s 			page 21


 994 0094 49       		.uleb128 0x49
 995 0095 13       		.uleb128 0x13
 996 0096 00       		.byte	0x0
 997 0097 00       		.byte	0x0
 998 0098 0B       		.uleb128 0xb
 999 0099 2E       		.uleb128 0x2e
 1000 009a 01       		.byte	0x1
 1001 009b 3F       		.uleb128 0x3f
 1002 009c 0C       		.uleb128 0xc
 1003 009d 03       		.uleb128 0x3
 1004 009e 0E       		.uleb128 0xe
 1005 009f 3A       		.uleb128 0x3a
 1006 00a0 0B       		.uleb128 0xb
 1007 00a1 3B       		.uleb128 0x3b
 1008 00a2 0B       		.uleb128 0xb
 1009 00a3 27       		.uleb128 0x27
 1010 00a4 0C       		.uleb128 0xc
 1011 00a5 11       		.uleb128 0x11
 1012 00a6 01       		.uleb128 0x1
 1013 00a7 12       		.uleb128 0x12
 1014 00a8 01       		.uleb128 0x1
 1015 00a9 40       		.uleb128 0x40
 1016 00aa 06       		.uleb128 0x6
 1017 00ab 01       		.uleb128 0x1
 1018 00ac 13       		.uleb128 0x13
 1019 00ad 00       		.byte	0x0
 1020 00ae 00       		.byte	0x0
 1021 00af 0C       		.uleb128 0xc
 1022 00b0 01       		.uleb128 0x1
 1023 00b1 01       		.byte	0x1
 1024 00b2 49       		.uleb128 0x49
 1025 00b3 13       		.uleb128 0x13
 1026 00b4 01       		.uleb128 0x1
 1027 00b5 13       		.uleb128 0x13
 1028 00b6 00       		.byte	0x0
 1029 00b7 00       		.byte	0x0
 1030 00b8 0D       		.uleb128 0xd
 1031 00b9 21       		.uleb128 0x21
 1032 00ba 00       		.byte	0x0
 1033 00bb 49       		.uleb128 0x49
 1034 00bc 13       		.uleb128 0x13
 1035 00bd 2F       		.uleb128 0x2f
 1036 00be 0B       		.uleb128 0xb
 1037 00bf 00       		.byte	0x0
 1038 00c0 00       		.byte	0x0
 1039 00c1 0E       		.uleb128 0xe
 1040 00c2 34       		.uleb128 0x34
 1041 00c3 00       		.byte	0x0
 1042 00c4 03       		.uleb128 0x3
 1043 00c5 0E       		.uleb128 0xe
 1044 00c6 3A       		.uleb128 0x3a
 1045 00c7 0B       		.uleb128 0xb
 1046 00c8 3B       		.uleb128 0x3b
 1047 00c9 05       		.uleb128 0x5
 1048 00ca 49       		.uleb128 0x49
 1049 00cb 13       		.uleb128 0x13
 1050 00cc 3F       		.uleb128 0x3f
ARM GAS  C:\Users\Martin\AppData\Local\Temp\ccrekHWt.s 			page 22


 1051 00cd 0C       		.uleb128 0xc
 1052 00ce 3C       		.uleb128 0x3c
 1053 00cf 0C       		.uleb128 0xc
 1054 00d0 00       		.byte	0x0
 1055 00d1 00       		.byte	0x0
 1056 00d2 0F       		.uleb128 0xf
 1057 00d3 35       		.uleb128 0x35
 1058 00d4 00       		.byte	0x0
 1059 00d5 49       		.uleb128 0x49
 1060 00d6 13       		.uleb128 0x13
 1061 00d7 00       		.byte	0x0
 1062 00d8 00       		.byte	0x0
 1063 00d9 00       		.byte	0x0
 1064              		.section	.debug_pubnames,"",%progbits
 1065 0000 67000000 		.4byte	0x67
 1066 0004 0200     		.2byte	0x2
 1067 0006 00000000 		.4byte	.Ldebug_info0
 1068 000a 37020000 		.4byte	0x237
 1069 000e 9D000000 		.4byte	0x9d
 1070 0012 42504C5F 		.ascii	"BPL_GetReceiveMsgCount\000"
 1070      47657452 
 1070      65636569 
 1070      76654D73 
 1070      67436F75 
 1071 0029 B6000000 		.4byte	0xb6
 1072 002d 42504C5F 		.ascii	"BPL_GetMessage\000"
 1072      4765744D 
 1072      65737361 
 1072      676500
 1073 003c F6000000 		.4byte	0xf6
 1074 0040 42504C5F 		.ascii	"BPL_TransmitMessage\000"
 1074      5472616E 
 1074      736D6974 
 1074      4D657373 
 1074      61676500 
 1075 0054 30010000 		.4byte	0x130
 1076 0058 42504C5F 		.ascii	"BPL_HandleTask\000"
 1076      48616E64 
 1076      6C655461 
 1076      736B00
 1077 0067 00000000 		.4byte	0x0
 1078              		.section	.debug_aranges,"",%progbits
 1079 0000 34000000 		.4byte	0x34
 1080 0004 0200     		.2byte	0x2
 1081 0006 00000000 		.4byte	.Ldebug_info0
 1082 000a 04       		.byte	0x4
 1083 000b 00       		.byte	0x0
 1084 000c 0000     		.2byte	0x0
 1085 000e 0000     		.2byte	0x0
 1086 0010 00000000 		.4byte	.LFB29
 1087 0014 16000000 		.4byte	.LFE29-.LFB29
 1088 0018 00000000 		.4byte	.LFB30
 1089 001c 86000000 		.4byte	.LFE30-.LFB30
 1090 0020 00000000 		.4byte	.LFB31
 1091 0024 B8000000 		.4byte	.LFE31-.LFB31
 1092 0028 00000000 		.4byte	.LFB32
 1093 002c CC010000 		.4byte	.LFE32-.LFB32
ARM GAS  C:\Users\Martin\AppData\Local\Temp\ccrekHWt.s 			page 23


 1094 0030 00000000 		.4byte	0x0
 1095 0034 00000000 		.4byte	0x0
 1096              		.section	.debug_ranges,"",%progbits
 1097              	.Ldebug_ranges0:
 1098 0000 00000000 		.4byte	.Ltext0
 1099 0004 00000000 		.4byte	.Letext0
 1100 0008 00000000 		.4byte	.LFB29
 1101 000c 16000000 		.4byte	.LFE29
 1102 0010 00000000 		.4byte	.LFB30
 1103 0014 86000000 		.4byte	.LFE30
 1104 0018 00000000 		.4byte	.LFB31
 1105 001c B8000000 		.4byte	.LFE31
 1106 0020 00000000 		.4byte	.LFB32
 1107 0024 CC010000 		.4byte	.LFE32
 1108 0028 00000000 		.4byte	0x0
 1109 002c 00000000 		.4byte	0x0
 1110              		.section	.debug_str,"MS",%progbits,1
 1111              	.LASF6:
 1112 0000 6C6F6E67 		.ascii	"long long int\000"
 1112      206C6F6E 
 1112      6720696E 
 1112      7400
 1113              	.LASF23:
 1114 000e 5472616E 		.ascii	"TransmitMsgCount\000"
 1114      736D6974 
 1114      4D736743 
 1114      6F756E74 
 1114      00
 1115              	.LASF28:
 1116 001f 54424865 		.ascii	"TBHead\000"
 1116      616400
 1117              	.LASF18:
 1118 0026 6D73674C 		.ascii	"msgLength\000"
 1118      656E6774 
 1118      6800
 1119              	.LASF20:
 1120 0030 52656365 		.ascii	"ReceiveBuffer\000"
 1120      69766542 
 1120      75666665 
 1120      7200
 1121              	.LASF16:
 1122 003e 74617267 		.ascii	"target\000"
 1122      657400
 1123              	.LASF9:
 1124 0045 666C6F61 		.ascii	"float\000"
 1124      7400
 1125              	.LASF14:
 1126 004b 42504C5F 		.ascii	"BPL_GetMessage\000"
 1126      4765744D 
 1126      65737361 
 1126      676500
 1127              	.LASF13:
 1128 005a 53544154 		.ascii	"STATUS\000"
 1128      555300
 1129              	.LASF25:
 1130 0061 5472616E 		.ascii	"TransmitBytesCount\000"
 1130      736D6974 
ARM GAS  C:\Users\Martin\AppData\Local\Temp\ccrekHWt.s 			page 24


 1130      42797465 
 1130      73436F75 
 1130      6E7400
 1131              	.LASF33:
 1132 0074 583A5C72 		.ascii	"X:\\roboticscode\\trunk\\psoc\\psoc_creator_2.2\\Dr"
 1132      6F626F74 
 1132      69637363 
 1132      6F64655C 
 1132      7472756E 
 1133 00a2 6976655F 		.ascii	"ive_Platform\\DrivePlatform.cydsn\000"
 1133      506C6174 
 1133      666F726D 
 1133      5C447269 
 1133      7665506C 
 1134              	.LASF5:
 1135 00c3 6C6F6E67 		.ascii	"long unsigned int\000"
 1135      20756E73 
 1135      69676E65 
 1135      6420696E 
 1135      7400
 1136              	.LASF3:
 1137 00d5 73686F72 		.ascii	"short unsigned int\000"
 1137      7420756E 
 1137      7369676E 
 1137      65642069 
 1137      6E7400
 1138              	.LASF26:
 1139 00e8 52424865 		.ascii	"RBHead\000"
 1139      616400
 1140              	.LASF36:
 1141 00ef 49544D5F 		.ascii	"ITM_RxBuffer\000"
 1141      52784275 
 1141      66666572 
 1141      00
 1142              	.LASF1:
 1143 00fc 756E7369 		.ascii	"unsigned char\000"
 1143      676E6564 
 1143      20636861 
 1143      7200
 1144              	.LASF10:
 1145 010a 646F7562 		.ascii	"double\000"
 1145      6C6500
 1146              	.LASF24:
 1147 0111 52656365 		.ascii	"ReceiveBytesCount\000"
 1147      69766542 
 1147      79746573 
 1147      436F756E 
 1147      7400
 1148              	.LASF29:
 1149 0123 54425461 		.ascii	"TBTail\000"
 1149      696C00
 1150              	.LASF32:
 1151 012a 2E5C6270 		.ascii	".\\bpl.c\000"
 1151      6C2E6300 
 1152              	.LASF8:
 1153 0132 756E7369 		.ascii	"unsigned int\000"
 1153      676E6564 
ARM GAS  C:\Users\Martin\AppData\Local\Temp\ccrekHWt.s 			page 25


 1153      20696E74 
 1153      00
 1154              	.LASF7:
 1155 013f 6C6F6E67 		.ascii	"long long unsigned int\000"
 1155      206C6F6E 
 1155      6720756E 
 1155      7369676E 
 1155      65642069 
 1156              	.LASF30:
 1157 0156 42706C53 		.ascii	"BplStatus\000"
 1157      74617475 
 1157      7300
 1158              	.LASF19:
 1159 0160 6E756D42 		.ascii	"numBytes\000"
 1159      79746573 
 1159      00
 1160              	.LASF35:
 1161 0169 42504C5F 		.ascii	"BPL_HandleTask\000"
 1161      48616E64 
 1161      6C655461 
 1161      736B00
 1162              	.LASF31:
 1163 0178 474E5520 		.ascii	"GNU C 4.4.1\000"
 1163      4320342E 
 1163      342E3100 
 1164              	.LASF34:
 1165 0184 42504C5F 		.ascii	"BPL_GetReceiveMsgCount\000"
 1165      47657452 
 1165      65636569 
 1165      76654D73 
 1165      67436F75 
 1166              	.LASF2:
 1167 019b 73686F72 		.ascii	"short int\000"
 1167      7420696E 
 1167      7400
 1168              	.LASF21:
 1169 01a5 5472616E 		.ascii	"TransmitBuffer\000"
 1169      736D6974 
 1169      42756666 
 1169      657200
 1170              	.LASF12:
 1171 01b4 75696E74 		.ascii	"uint8\000"
 1171      3800
 1172              	.LASF27:
 1173 01ba 52425461 		.ascii	"RBTail\000"
 1173      696C00
 1174              	.LASF22:
 1175 01c1 52656365 		.ascii	"ReceiveMsgCount\000"
 1175      6976654D 
 1175      7367436F 
 1175      756E7400 
 1176              	.LASF4:
 1177 01d1 6C6F6E67 		.ascii	"long int\000"
 1177      20696E74 
 1177      00
 1178              	.LASF11:
 1179 01da 63686172 		.ascii	"char\000"
ARM GAS  C:\Users\Martin\AppData\Local\Temp\ccrekHWt.s 			page 26


 1179      00
 1180              	.LASF0:
 1181 01df 7369676E 		.ascii	"signed char\000"
 1181      65642063 
 1181      68617200 
 1182              	.LASF17:
 1183 01eb 736F7572 		.ascii	"source\000"
 1183      636500
 1184              	.LASF15:
 1185 01f2 42504C5F 		.ascii	"BPL_TransmitMessage\000"
 1185      5472616E 
 1185      736D6974 
 1185      4D657373 
 1185      61676500 
 1186              		.ident	"GCC: (Sourcery G++ Lite 2010q1-188) 4.4.1"
