ARM GAS  C:\Users\Martin\AppData\Local\Temp\ccrekHWt.s 			page 1


   1              		.syntax unified
   2              		.cpu cortex-m3
   3              		.fpu softvfp
   4              		.eabi_attribute 20, 1
   5              		.eabi_attribute 21, 1
   6              		.eabi_attribute 23, 3
   7              		.eabi_attribute 24, 1
   8              		.eabi_attribute 25, 1
   9              		.eabi_attribute 26, 1
  10              		.eabi_attribute 30, 6
  11              		.eabi_attribute 18, 4
  12              		.thumb
  13              		.file	"bpl.c"
  20 0000 D4000000 		.text
  20      02006000 
  20      00000201 
  20      FB0E0D00 
  20      01010101 
  21              	.Ltext0:
  22              		.cfi_sections	.debug_frame
  23              		.bss
  24              		.align	2
  25              	ReceiveBuffer:
  26 0000 00000000 		.space	256
  26      00000000 
  26      00000000 
  26      00000000 
  26      00000000 
  27              		.align	2
  28              	TransmitBuffer:
  29 0100 00000000 		.space	256
  29      00000000 
  29      00000000 
  29      00000000 
  29      00000000 
  30              	ReceiveMsgCount:
  31 0200 00       		.space	1
  32              	TransmitMsgCount:
  33 0201 00       		.space	1
  34              	ReceiveBytesCount:
  35 0202 00       		.space	1
  36              	TransmitBytesCount:
  37 0203 00       		.space	1
  38              		.data
  39              		.align	2
  40              		.type	RBHead, %object
  41              		.size	RBHead, 4
  42              	RBHead:
  43 0000 00000000 		.word	ReceiveBuffer
  44              		.align	2
  45              		.type	RBTail, %object
ARM GAS  C:\Users\Martin\AppData\Local\Temp\ccrekHWt.s 			page 2


  46              		.size	RBTail, 4
  47              	RBTail:
  48 0004 00000000 		.word	ReceiveBuffer
  49              		.align	2
  50              		.type	TBHead, %object
  51              		.size	TBHead, 4
  52              	TBHead:
  53 0008 00010000 		.word	TransmitBuffer
  54              		.align	2
  55              		.type	TBTail, %object
  56              		.size	TBTail, 4
  57              	TBTail:
  58 000c 00010000 		.word	TransmitBuffer
  59              		.bss
  60              	BplStatus:
  61 0204 00       		.space	1
  62 0205 000000   		.section	.text.BPL_GetReceiveMsgCount,"ax",%progbits
  63              		.align	2
  64              		.global	BPL_GetReceiveMsgCount
  65              		.thumb
  66              		.thumb_func
  67              		.type	BPL_GetReceiveMsgCount, %function
  68              	BPL_GetReceiveMsgCount:
  69              	.LFB29:
  70              		.file 1 ".\\bpl.c"
   1:.\bpl.c       **** /* Copyright (C) <2014> <Martin Schalk>
   2:.\bpl.c       ****  * All rights reserved.
   3:.\bpl.c       ****  *
   4:.\bpl.c       ****  * This software may be modified and distributed under the terms
   5:.\bpl.c       ****  * of the BSD license.  See the LICENSE file for details.
   6:.\bpl.c       ****  */
   7:.\bpl.c       **** 
   8:.\bpl.c       **** 
   9:.\bpl.c       **** #include <project.h>
  10:.\bpl.c       **** #include "global.h"
  11:.\bpl.c       **** #include <stdio.h>
  12:.\bpl.c       **** 
  13:.\bpl.c       **** #include "hal.h"
  14:.\bpl.c       **** #include "bpl.h"
  15:.\bpl.c       **** 
  16:.\bpl.c       **** /* Ring buffers */
  17:.\bpl.c       **** static uint8 	ReceiveBuffer[RX_BUFFER_SIZE];	//RB
  18:.\bpl.c       **** static uint8 	TransmitBuffer[TX_BUFFER_SIZE];	//TB
  19:.\bpl.c       **** static uint8 	ReceiveMsgCount = 0;
  20:.\bpl.c       **** static uint8 	TransmitMsgCount = 0;
  21:.\bpl.c       **** static uint8    ReceiveBytesCount = 0;
  22:.\bpl.c       **** static uint8    TransmitBytesCount = 0;
  23:.\bpl.c       **** 
  24:.\bpl.c       **** static uint8* 	RBHead = ReceiveBuffer;
  25:.\bpl.c       **** static uint8* 	RBTail = ReceiveBuffer;
  26:.\bpl.c       **** static uint8* 	TBHead = TransmitBuffer;
  27:.\bpl.c       **** static uint8* 	TBTail = TransmitBuffer;
  28:.\bpl.c       **** 
  29:.\bpl.c       **** static STATUS BplStatus = BPL_STATUS_OK;
  30:.\bpl.c       **** 
  31:.\bpl.c       **** /*******************************************************/
  32:.\bpl.c       **** uint8 BPL_GetReceiveMsgCount(void)
ARM GAS  C:\Users\Martin\AppData\Local\Temp\ccrekHWt.s 			page 3


  33:.\bpl.c       **** {
  71              		.loc 1 33 0
  72              		.cfi_startproc
  73              		@ args = 0, pretend = 0, frame = 0
  74              		@ frame_needed = 1, uses_anonymous_args = 0
  75              		@ link register save eliminated.
  76 0000 80B4     		push	{r7}
  77              	.LCFI0:
  78              		.cfi_def_cfa_offset 4
  79 0002 00AF     		add	r7, sp, #0
  80              		.cfi_offset 7, -4
  81              	.LCFI1:
  82              		.cfi_def_cfa_register 7
  34:.\bpl.c       ****     return ReceiveMsgCount;	
  83              		.loc 1 34 0
  84 0004 40F20003 		movw	r3, #:lower16:ReceiveMsgCount
  85 0008 C0F20003 		movt	r3, #:upper16:ReceiveMsgCount
  86 000c 1B78     		ldrb	r3, [r3, #0]	@ zero_extendqisi2
  35:.\bpl.c       **** }
  87              		.loc 1 35 0
  88 000e 1846     		mov	r0, r3
  89 0010 BD46     		mov	sp, r7
  90 0012 80BC     		pop	{r7}
  91 0014 7047     		bx	lr
  92              		.cfi_endproc
  93              	.LFE29:
  94              		.size	BPL_GetReceiveMsgCount, .-BPL_GetReceiveMsgCount
  95 0016 00BF     		.section	.text.BPL_GetMessage,"ax",%progbits
  96              		.align	2
  97              		.global	BPL_GetMessage
  98              		.thumb
  99              		.thumb_func
 100              		.type	BPL_GetMessage, %function
 101              	BPL_GetMessage:
 102              	.LFB30:
  36:.\bpl.c       **** 
  37:.\bpl.c       **** /*******************************************************/
  38:.\bpl.c       **** uint8 BPL_GetMessage(uint8* target)
  39:.\bpl.c       **** {
 103              		.loc 1 39 0
 104              		.cfi_startproc
 105              		@ args = 0, pretend = 0, frame = 16
 106              		@ frame_needed = 1, uses_anonymous_args = 0
 107 0000 80B5     		push	{r7, lr}
 108              	.LCFI2:
 109              		.cfi_def_cfa_offset 8
 110 0002 84B0     		sub	sp, sp, #16
 111              	.LCFI3:
 112              		.cfi_def_cfa_offset 24
 113 0004 00AF     		add	r7, sp, #0
 114              		.cfi_offset 14, -4
 115              		.cfi_offset 7, -8
 116              	.LCFI4:
 117              		.cfi_def_cfa_register 7
 118 0006 7860     		str	r0, [r7, #4]
  40:.\bpl.c       ****     uint8 msgLength;
  41:.\bpl.c       ****     
ARM GAS  C:\Users\Martin\AppData\Local\Temp\ccrekHWt.s 			page 4


  42:.\bpl.c       ****     /* check if messages in pipe */
  43:.\bpl.c       ****     if (ReceiveMsgCount==0)
 119              		.loc 1 43 0
 120 0008 40F20003 		movw	r3, #:lower16:ReceiveMsgCount
 121 000c C0F20003 		movt	r3, #:upper16:ReceiveMsgCount
 122 0010 1B78     		ldrb	r3, [r3, #0]	@ zero_extendqisi2
 123 0012 002B     		cmp	r3, #0
 124 0014 02D1     		bne	.L4
  44:.\bpl.c       ****         return 0;
 125              		.loc 1 44 0
 126 0016 4FF00003 		mov	r3, #0
 127 001a 2FE0     		b	.L5
 128              	.L4:
  45:.\bpl.c       ****     
  46:.\bpl.c       ****     /* get message length and copy data to target */
  47:.\bpl.c       ****     msgLength = RBTail[0];
 129              		.loc 1 47 0
 130 001c 40F20003 		movw	r3, #:lower16:RBTail
 131 0020 C0F20003 		movt	r3, #:upper16:RBTail
 132 0024 1B68     		ldr	r3, [r3, #0]
 133 0026 1B78     		ldrb	r3, [r3, #0]
 134 0028 FB73     		strb	r3, [r7, #15]
  48:.\bpl.c       ****     memcpy(target, RBTail+1, msgLength);
 135              		.loc 1 48 0
 136 002a 40F20003 		movw	r3, #:lower16:RBTail
 137 002e C0F20003 		movt	r3, #:upper16:RBTail
 138 0032 1B68     		ldr	r3, [r3, #0]
 139 0034 03F10102 		add	r2, r3, #1
 140 0038 FB7B     		ldrb	r3, [r7, #15]	@ zero_extendqisi2
 141 003a 7868     		ldr	r0, [r7, #4]
 142 003c 1146     		mov	r1, r2
 143 003e 1A46     		mov	r2, r3
 144 0040 FFF7FEFF 		bl	memcpy
  49:.\bpl.c       ****     
  50:.\bpl.c       ****     /* update parameters */
  51:.\bpl.c       ****     RBTail += msgLength + 1;
 145              		.loc 1 51 0
 146 0044 40F20003 		movw	r3, #:lower16:RBTail
 147 0048 C0F20003 		movt	r3, #:upper16:RBTail
 148 004c 1A68     		ldr	r2, [r3, #0]
 149 004e FB7B     		ldrb	r3, [r7, #15]	@ zero_extendqisi2
 150 0050 03F10103 		add	r3, r3, #1
 151 0054 1A44     		add	r2, r2, r3
 152 0056 40F20003 		movw	r3, #:lower16:RBTail
 153 005a C0F20003 		movt	r3, #:upper16:RBTail
 154 005e 1A60     		str	r2, [r3, #0]
  52:.\bpl.c       ****     ReceiveMsgCount--;	
 155              		.loc 1 52 0
 156 0060 40F20003 		movw	r3, #:lower16:ReceiveMsgCount
 157 0064 C0F20003 		movt	r3, #:upper16:ReceiveMsgCount
 158 0068 1B78     		ldrb	r3, [r3, #0]	@ zero_extendqisi2
 159 006a 03F1FF33 		add	r3, r3, #-1
 160 006e DAB2     		uxtb	r2, r3
 161 0070 40F20003 		movw	r3, #:lower16:ReceiveMsgCount
 162 0074 C0F20003 		movt	r3, #:upper16:ReceiveMsgCount
 163 0078 1A70     		strb	r2, [r3, #0]
  53:.\bpl.c       ****     
ARM GAS  C:\Users\Martin\AppData\Local\Temp\ccrekHWt.s 			page 5


  54:.\bpl.c       ****     return msgLength;
 164              		.loc 1 54 0
 165 007a FB7B     		ldrb	r3, [r7, #15]	@ zero_extendqisi2
 166              	.L5:
  55:.\bpl.c       **** }
 167              		.loc 1 55 0
 168 007c 1846     		mov	r0, r3
 169 007e 07F11007 		add	r7, r7, #16
 170 0082 BD46     		mov	sp, r7
 171 0084 80BD     		pop	{r7, pc}
 172              		.cfi_endproc
 173              	.LFE30:
 174              		.size	BPL_GetMessage, .-BPL_GetMessage
 175 0086 00BF     		.section	.text.BPL_TransmitMessage,"ax",%progbits
 176              		.align	2
 177              		.global	BPL_TransmitMessage
 178              		.thumb
 179              		.thumb_func
 180              		.type	BPL_TransmitMessage, %function
 181              	BPL_TransmitMessage:
 182              	.LFB31:
  56:.\bpl.c       **** 
  57:.\bpl.c       **** /*******************************************************/
  58:.\bpl.c       **** STATUS BPL_TransmitMessage(uint8* source, uint8 msgLength)
  59:.\bpl.c       **** {
 183              		.loc 1 59 0
 184              		.cfi_startproc
 185              		@ args = 0, pretend = 0, frame = 8
 186              		@ frame_needed = 1, uses_anonymous_args = 0
 187 0000 80B5     		push	{r7, lr}
 188              	.LCFI5:
 189              		.cfi_def_cfa_offset 8
 190 0002 82B0     		sub	sp, sp, #8
 191              	.LCFI6:
 192              		.cfi_def_cfa_offset 16
 193 0004 00AF     		add	r7, sp, #0
 194              		.cfi_offset 14, -4
 195              		.cfi_offset 7, -8
 196              	.LCFI7:
 197              		.cfi_def_cfa_register 7
 198 0006 7860     		str	r0, [r7, #4]
 199 0008 0B46     		mov	r3, r1
 200 000a FB70     		strb	r3, [r7, #3]
  60:.\bpl.c       ****     /* check if message fits in transmit buffer */
  61:.\bpl.c       ****     if (TransmitBytesCount + msgLength + 1 > TX_BUFFER_SIZE)
 201              		.loc 1 61 0
 202 000c 40F20003 		movw	r3, #:lower16:TransmitBytesCount
 203 0010 C0F20003 		movt	r3, #:upper16:TransmitBytesCount
 204 0014 1B78     		ldrb	r3, [r3, #0]	@ zero_extendqisi2
 205 0016 1A46     		mov	r2, r3
 206 0018 FB78     		ldrb	r3, [r7, #3]	@ zero_extendqisi2
 207 001a 1344     		add	r3, r2, r3
 208 001c 03F10103 		add	r3, r3, #1
 209 0020 B3F5807F 		cmp	r3, #256
 210 0024 02DD     		ble	.L8
  62:.\bpl.c       ****         return BPL_STATUS_TX_BUFFER_FULL;
 211              		.loc 1 62 0
ARM GAS  C:\Users\Martin\AppData\Local\Temp\ccrekHWt.s 			page 6


 212 0026 4FF0FE03 		mov	r3, #254
 213 002a 40E0     		b	.L9
 214              	.L8:
  63:.\bpl.c       **** 
  64:.\bpl.c       ****     /* copy message to transmit buffer, 1st byte = message bytes */
  65:.\bpl.c       ****     TBHead[0] = msgLength;
 215              		.loc 1 65 0
 216 002c 40F20003 		movw	r3, #:lower16:TBHead
 217 0030 C0F20003 		movt	r3, #:upper16:TBHead
 218 0034 1B68     		ldr	r3, [r3, #0]
 219 0036 FA78     		ldrb	r2, [r7, #3]
 220 0038 1A70     		strb	r2, [r3, #0]
  66:.\bpl.c       ****     memcpy(TBHead+1, source, msgLength);
 221              		.loc 1 66 0
 222 003a 40F20003 		movw	r3, #:lower16:TBHead
 223 003e C0F20003 		movt	r3, #:upper16:TBHead
 224 0042 1B68     		ldr	r3, [r3, #0]
 225 0044 03F10102 		add	r2, r3, #1
 226 0048 FB78     		ldrb	r3, [r7, #3]	@ zero_extendqisi2
 227 004a 1046     		mov	r0, r2
 228 004c 7968     		ldr	r1, [r7, #4]
 229 004e 1A46     		mov	r2, r3
 230 0050 FFF7FEFF 		bl	memcpy
  67:.\bpl.c       ****     
  68:.\bpl.c       ****     /* update parameters */
  69:.\bpl.c       ****     TBHead += msgLength + 1;
 231              		.loc 1 69 0
 232 0054 40F20003 		movw	r3, #:lower16:TBHead
 233 0058 C0F20003 		movt	r3, #:upper16:TBHead
 234 005c 1A68     		ldr	r2, [r3, #0]
 235 005e FB78     		ldrb	r3, [r7, #3]	@ zero_extendqisi2
 236 0060 03F10103 		add	r3, r3, #1
 237 0064 1A44     		add	r2, r2, r3
 238 0066 40F20003 		movw	r3, #:lower16:TBHead
 239 006a C0F20003 		movt	r3, #:upper16:TBHead
 240 006e 1A60     		str	r2, [r3, #0]
  70:.\bpl.c       ****     TransmitBytesCount += msgLength + 1;
 241              		.loc 1 70 0
 242 0070 40F20003 		movw	r3, #:lower16:TransmitBytesCount
 243 0074 C0F20003 		movt	r3, #:upper16:TransmitBytesCount
 244 0078 1A78     		ldrb	r2, [r3, #0]	@ zero_extendqisi2
 245 007a FB78     		ldrb	r3, [r7, #3]
 246 007c 1344     		add	r3, r2, r3
 247 007e DBB2     		uxtb	r3, r3
 248 0080 03F10103 		add	r3, r3, #1
 249 0084 DAB2     		uxtb	r2, r3
 250 0086 40F20003 		movw	r3, #:lower16:TransmitBytesCount
 251 008a C0F20003 		movt	r3, #:upper16:TransmitBytesCount
 252 008e 1A70     		strb	r2, [r3, #0]
  71:.\bpl.c       ****     TransmitMsgCount++;
 253              		.loc 1 71 0
 254 0090 40F20003 		movw	r3, #:lower16:TransmitMsgCount
 255 0094 C0F20003 		movt	r3, #:upper16:TransmitMsgCount
 256 0098 1B78     		ldrb	r3, [r3, #0]	@ zero_extendqisi2
 257 009a 03F10103 		add	r3, r3, #1
 258 009e DAB2     		uxtb	r2, r3
 259 00a0 40F20003 		movw	r3, #:lower16:TransmitMsgCount
ARM GAS  C:\Users\Martin\AppData\Local\Temp\ccrekHWt.s 			page 7


 260 00a4 C0F20003 		movt	r3, #:upper16:TransmitMsgCount
 261 00a8 1A70     		strb	r2, [r3, #0]
  72:.\bpl.c       **** 
  73:.\bpl.c       ****     return SUCCESS;	
 262              		.loc 1 73 0
 263 00aa 4FF00003 		mov	r3, #0
 264              	.L9:
  74:.\bpl.c       **** }
 265              		.loc 1 74 0
 266 00ae 1846     		mov	r0, r3
 267 00b0 07F10807 		add	r7, r7, #8
 268 00b4 BD46     		mov	sp, r7
 269 00b6 80BD     		pop	{r7, pc}
 270              		.cfi_endproc
 271              	.LFE31:
 272              		.size	BPL_TransmitMessage, .-BPL_TransmitMessage
 273              		.section	.text.BPL_HandleTask,"ax",%progbits
 274              		.align	2
 275              		.global	BPL_HandleTask
 276              		.thumb
 277              		.thumb_func
 278              		.type	BPL_HandleTask, %function
 279              	BPL_HandleTask:
 280              	.LFB32:
  75:.\bpl.c       **** 
  76:.\bpl.c       **** /*******************************************************/
  77:.\bpl.c       **** void BPL_HandleTask(void)
  78:.\bpl.c       **** {
 281              		.loc 1 78 0
 282              		.cfi_startproc
 283              		@ args = 0, pretend = 0, frame = 8
 284              		@ frame_needed = 1, uses_anonymous_args = 0
 285 0000 90B5     		push	{r4, r7, lr}
 286              	.LCFI8:
 287              		.cfi_def_cfa_offset 12
 288 0002 83B0     		sub	sp, sp, #12
 289              	.LCFI9:
 290              		.cfi_def_cfa_offset 24
 291 0004 00AF     		add	r7, sp, #0
 292              		.cfi_offset 14, -4
 293              		.cfi_offset 7, -8
 294              		.cfi_offset 4, -12
 295              	.LCFI10:
 296              		.cfi_def_cfa_register 7
  79:.\bpl.c       **** 	uint8 numBytes;
  80:.\bpl.c       **** 	
  81:.\bpl.c       **** 	/* Handle received bytes */
  82:.\bpl.c       **** 	/* --------------------- */
  83:.\bpl.c       **** 	while ((HAL_GetRxIsrCount() > 0) && (BplStatus == BPL_STATUS_OK))
 297              		.loc 1 83 0
 298 0006 48E0     		b	.L12
 299              	.L16:
  84:.\bpl.c       **** 	{
  85:.\bpl.c       **** 		/* check for buffer overflow */
  86:.\bpl.c       **** 		if (RBHead+1 == RBTail)
 300              		.loc 1 86 0
 301 0008 40F20003 		movw	r3, #:lower16:RBHead
ARM GAS  C:\Users\Martin\AppData\Local\Temp\ccrekHWt.s 			page 8


 302 000c C0F20003 		movt	r3, #:upper16:RBHead
 303 0010 1B68     		ldr	r3, [r3, #0]
 304 0012 03F10102 		add	r2, r3, #1
 305 0016 40F20003 		movw	r3, #:lower16:RBTail
 306 001a C0F20003 		movt	r3, #:upper16:RBTail
 307 001e 1B68     		ldr	r3, [r3, #0]
 308 0020 9A42     		cmp	r2, r3
 309 0022 07D1     		bne	.L13
  87:.\bpl.c       **** 		{
  88:.\bpl.c       **** 			BplStatus = BPL_STATUS_RX_BUFFER_FULL;
 310              		.loc 1 88 0
 311 0024 40F20003 		movw	r3, #:lower16:BplStatus
 312 0028 C0F20003 		movt	r3, #:upper16:BplStatus
 313 002c 4FF0FF32 		mov	r2, #-1
 314 0030 1A70     		strb	r2, [r3, #0]
  89:.\bpl.c       **** 			break;
 315              		.loc 1 89 0
 316 0032 3EE0     		b	.L14
 317              	.L13:
  90:.\bpl.c       **** 		}
  91:.\bpl.c       **** 		/* check if passing end of ring buffer */
  92:.\bpl.c       **** 		if (++RBHead == &ReceiveBuffer[RX_BUFFER_SIZE])
 318              		.loc 1 92 0
 319 0034 40F20003 		movw	r3, #:lower16:RBHead
 320 0038 C0F20003 		movt	r3, #:upper16:RBHead
 321 003c 1B68     		ldr	r3, [r3, #0]
 322 003e 03F10102 		add	r2, r3, #1
 323 0042 40F20003 		movw	r3, #:lower16:RBHead
 324 0046 C0F20003 		movt	r3, #:upper16:RBHead
 325 004a 1A60     		str	r2, [r3, #0]
 326 004c 40F20003 		movw	r3, #:lower16:RBHead
 327 0050 C0F20003 		movt	r3, #:upper16:RBHead
 328 0054 1A68     		ldr	r2, [r3, #0]
 329 0056 5C4B     		ldr	r3, .L23
 330 0058 9A42     		cmp	r2, r3
 331 005a 08D1     		bne	.L15
  93:.\bpl.c       **** 		{
  94:.\bpl.c       **** 			RBHead = &ReceiveBuffer[0];
 332              		.loc 1 94 0
 333 005c 40F20003 		movw	r3, #:lower16:RBHead
 334 0060 C0F20003 		movt	r3, #:upper16:RBHead
 335 0064 40F20002 		movw	r2, #:lower16:ReceiveBuffer
 336 0068 C0F20002 		movt	r2, #:upper16:ReceiveBuffer
 337 006c 1A60     		str	r2, [r3, #0]
 338              	.L15:
  95:.\bpl.c       **** 		}
  96:.\bpl.c       **** 
  97:.\bpl.c       **** 		/* copy byte from rx buffer to ring buffer */
  98:.\bpl.c       **** 		*RBHead = HAL_GetByte();
 339              		.loc 1 98 0
 340 006e 40F20003 		movw	r3, #:lower16:RBHead
 341 0072 C0F20003 		movt	r3, #:upper16:RBHead
 342 0076 1C68     		ldr	r4, [r3, #0]
 343 0078 FFF7FEFF 		bl	HAL_GetByte
 344 007c 0346     		mov	r3, r0
 345 007e 2370     		strb	r3, [r4, #0]
  99:.\bpl.c       **** 		ReceiveMsgCount++;	
ARM GAS  C:\Users\Martin\AppData\Local\Temp\ccrekHWt.s 			page 9


 346              		.loc 1 99 0
 347 0080 40F20003 		movw	r3, #:lower16:ReceiveMsgCount
 348 0084 C0F20003 		movt	r3, #:upper16:ReceiveMsgCount
 349 0088 1B78     		ldrb	r3, [r3, #0]	@ zero_extendqisi2
 350 008a 03F10103 		add	r3, r3, #1
 351 008e DAB2     		uxtb	r2, r3
 352 0090 40F20003 		movw	r3, #:lower16:ReceiveMsgCount
 353 0094 C0F20003 		movt	r3, #:upper16:ReceiveMsgCount
 354 0098 1A70     		strb	r2, [r3, #0]
 355              	.L12:
 356              		.loc 1 83 0
 357 009a FFF7FEFF 		bl	HAL_GetRxIsrCount
 358 009e 0346     		mov	r3, r0
 359 00a0 002B     		cmp	r3, #0
 360 00a2 06D0     		beq	.L14
 361 00a4 40F20003 		movw	r3, #:lower16:BplStatus
 362 00a8 C0F20003 		movt	r3, #:upper16:BplStatus
 363 00ac 1B78     		ldrb	r3, [r3, #0]	@ zero_extendqisi2
 364 00ae 002B     		cmp	r3, #0
 365 00b0 AAD0     		beq	.L16
 366              	.L14:
 100:.\bpl.c       **** 	}
 101:.\bpl.c       **** 
 102:.\bpl.c       **** 	
 103:.\bpl.c       **** 	/* Handle transmission of bytes */
 104:.\bpl.c       **** 	/* ---------------------------- */
 105:.\bpl.c       **** 	if ((TransmitMsgCount > 0) && (BplStatus == BPL_STATUS_OK))
 367              		.loc 1 105 0
 368 00b2 40F20003 		movw	r3, #:lower16:TransmitMsgCount
 369 00b6 C0F20003 		movt	r3, #:upper16:TransmitMsgCount
 370 00ba 1B78     		ldrb	r3, [r3, #0]	@ zero_extendqisi2
 371 00bc 002B     		cmp	r3, #0
 372 00be 40D0     		beq	.L17
 373 00c0 40F20003 		movw	r3, #:lower16:BplStatus
 374 00c4 C0F20003 		movt	r3, #:upper16:BplStatus
 375 00c8 1B78     		ldrb	r3, [r3, #0]	@ zero_extendqisi2
 376 00ca 002B     		cmp	r3, #0
 377 00cc 39D1     		bne	.L17
 106:.\bpl.c       **** 	{
 107:.\bpl.c       **** 		numBytes = *TBTail; //message length
 378              		.loc 1 107 0
 379 00ce 40F20003 		movw	r3, #:lower16:TBTail
 380 00d2 C0F20003 		movt	r3, #:upper16:TBTail
 381 00d6 1B68     		ldr	r3, [r3, #0]
 382 00d8 1B78     		ldrb	r3, [r3, #0]
 383 00da FB71     		strb	r3, [r7, #7]
 108:.\bpl.c       **** 		
 109:.\bpl.c       **** 		/* check for buffer overflow */
 110:.\bpl.c       **** 		if (TBTail + numBytes > TBHead)
 384              		.loc 1 110 0
 385 00dc 40F20003 		movw	r3, #:lower16:TBTail
 386 00e0 C0F20003 		movt	r3, #:upper16:TBTail
 387 00e4 1A68     		ldr	r2, [r3, #0]
 388 00e6 FB79     		ldrb	r3, [r7, #7]	@ zero_extendqisi2
 389 00e8 1A44     		add	r2, r2, r3
 390 00ea 40F20003 		movw	r3, #:lower16:TBHead
 391 00ee C0F20003 		movt	r3, #:upper16:TBHead
ARM GAS  C:\Users\Martin\AppData\Local\Temp\ccrekHWt.s 			page 10


 392 00f2 1B68     		ldr	r3, [r3, #0]
 393 00f4 9A42     		cmp	r2, r3
 394 00f6 07D9     		bls	.L18
 111:.\bpl.c       **** 		{
 112:.\bpl.c       **** 			BplStatus = BPL_STATUS_TX_DATA_MISMATCH;
 395              		.loc 1 112 0
 396 00f8 40F20003 		movw	r3, #:lower16:BplStatus
 397 00fc C0F20003 		movt	r3, #:upper16:BplStatus
 398 0100 6FF00202 		mvn	r2, #2
 399 0104 1A70     		strb	r2, [r3, #0]
 400 0106 1CE0     		b	.L17
 401              	.L18:
 113:.\bpl.c       **** 		}
 114:.\bpl.c       **** 		else
 115:.\bpl.c       **** 		{
 116:.\bpl.c       **** 			/* transmit byte */
 117:.\bpl.c       **** 			BplStatus = HAL_TransmitArray(TBTail, numBytes);
 402              		.loc 1 117 0
 403 0108 40F20003 		movw	r3, #:lower16:TBTail
 404 010c C0F20003 		movt	r3, #:upper16:TBTail
 405 0110 1A68     		ldr	r2, [r3, #0]
 406 0112 FB79     		ldrb	r3, [r7, #7]	@ zero_extendqisi2
 407 0114 1046     		mov	r0, r2
 408 0116 1946     		mov	r1, r3
 409 0118 FFF7FEFF 		bl	HAL_TransmitArray
 410 011c 0346     		mov	r3, r0
 411 011e 1A46     		mov	r2, r3
 412 0120 40F20003 		movw	r3, #:lower16:BplStatus
 413 0124 C0F20003 		movt	r3, #:upper16:BplStatus
 414 0128 1A70     		strb	r2, [r3, #0]
 118:.\bpl.c       **** 			TBTail += + numBytes;
 415              		.loc 1 118 0
 416 012a 40F20003 		movw	r3, #:lower16:TBTail
 417 012e C0F20003 		movt	r3, #:upper16:TBTail
 418 0132 1A68     		ldr	r2, [r3, #0]
 419 0134 FB79     		ldrb	r3, [r7, #7]	@ zero_extendqisi2
 420 0136 1A44     		add	r2, r2, r3
 421 0138 40F20003 		movw	r3, #:lower16:TBTail
 422 013c C0F20003 		movt	r3, #:upper16:TBTail
 423 0140 1A60     		str	r2, [r3, #0]
 424              	.L17:
 119:.\bpl.c       **** 		}
 120:.\bpl.c       **** 	}
 121:.\bpl.c       **** 	
 122:.\bpl.c       **** 	
 123:.\bpl.c       **** 	/* Handle errors */
 124:.\bpl.c       **** 	/* ------------- */
 125:.\bpl.c       **** 	switch (BplStatus)
 425              		.loc 1 125 0
 426 0142 40F20003 		movw	r3, #:lower16:BplStatus
 427 0146 C0F20003 		movt	r3, #:upper16:BplStatus
 428 014a 1B78     		ldrb	r3, [r3, #0]	@ zero_extendqisi2
 429 014c FD2B     		cmp	r3, #253
 430 014e 1CD0     		beq	.L20
 431 0150 FF2B     		cmp	r3, #255
 432 0152 34D1     		bne	.L22
 433              	.L21:
ARM GAS  C:\Users\Martin\AppData\Local\Temp\ccrekHWt.s 			page 11


 126:.\bpl.c       **** 	{
 127:.\bpl.c       **** 		case BPL_STATUS_RX_BUFFER_FULL:		RBHead = RBTail = ReceiveBuffer;
 434              		.loc 1 127 0
 435 0154 40F20003 		movw	r3, #:lower16:RBTail
 436 0158 C0F20003 		movt	r3, #:upper16:RBTail
 437 015c 40F20002 		movw	r2, #:lower16:ReceiveBuffer
 438 0160 C0F20002 		movt	r2, #:upper16:ReceiveBuffer
 439 0164 1A60     		str	r2, [r3, #0]
 440 0166 40F20003 		movw	r3, #:lower16:RBTail
 441 016a C0F20003 		movt	r3, #:upper16:RBTail
 442 016e 1A68     		ldr	r2, [r3, #0]
 443 0170 40F20003 		movw	r3, #:lower16:RBHead
 444 0174 C0F20003 		movt	r3, #:upper16:RBHead
 445 0178 1A60     		str	r2, [r3, #0]
 128:.\bpl.c       **** 											ReceiveMsgCount = 0;
 446              		.loc 1 128 0
 447 017a 40F20003 		movw	r3, #:lower16:ReceiveMsgCount
 448 017e C0F20003 		movt	r3, #:upper16:ReceiveMsgCount
 449 0182 4FF00002 		mov	r2, #0
 450 0186 1A70     		strb	r2, [r3, #0]
 129:.\bpl.c       **** 											break;
 451              		.loc 1 129 0
 452 0188 19E0     		b	.L22
 453              	.L20:
 130:.\bpl.c       **** 		case BPL_STATUS_TX_DATA_MISMATCH:	TBHead = TBTail = TransmitBuffer;
 454              		.loc 1 130 0
 455 018a 40F20003 		movw	r3, #:lower16:TBTail
 456 018e C0F20003 		movt	r3, #:upper16:TBTail
 457 0192 40F20002 		movw	r2, #:lower16:TransmitBuffer
 458 0196 C0F20002 		movt	r2, #:upper16:TransmitBuffer
 459 019a 1A60     		str	r2, [r3, #0]
 460 019c 40F20003 		movw	r3, #:lower16:TBTail
 461 01a0 C0F20003 		movt	r3, #:upper16:TBTail
 462 01a4 1A68     		ldr	r2, [r3, #0]
 463 01a6 40F20003 		movw	r3, #:lower16:TBHead
 464 01aa C0F20003 		movt	r3, #:upper16:TBHead
 465 01ae 1A60     		str	r2, [r3, #0]
 131:.\bpl.c       **** 											TransmitMsgCount = 0;
 466              		.loc 1 131 0
 467 01b0 40F20003 		movw	r3, #:lower16:TransmitMsgCount
 468 01b4 C0F20003 		movt	r3, #:upper16:TransmitMsgCount
 469 01b8 4FF00002 		mov	r2, #0
 470 01bc 1A70     		strb	r2, [r3, #0]
 471              	.L22:
 132:.\bpl.c       **** 											break;
 133:.\bpl.c       **** 		default:							break;
 134:.\bpl.c       **** 	}
 135:.\bpl.c       **** }
 472              		.loc 1 135 0
 473 01be 07F10C07 		add	r7, r7, #12
 474 01c2 BD46     		mov	sp, r7
 475 01c4 90BD     		pop	{r4, r7, pc}
 476              	.L24:
 477 01c6 00BF     		.align	2
 478              	.L23:
 479 01c8 00010000 		.word	ReceiveBuffer+256
 480              		.cfi_endproc
ARM GAS  C:\Users\Martin\AppData\Local\Temp\ccrekHWt.s 			page 12


 481              	.LFE32:
 482              		.size	BPL_HandleTask, .-BPL_HandleTask
 483              		.text
 484              	.Letext0: