ARM GAS  C:\Users\Martin\AppData\Local\Temp\cc7JzqzC.s 			page 1


   1              		.syntax unified
   2              		.cpu cortex-m3
   3              		.fpu softvfp
   4              		.eabi_attribute 20, 1
   5              		.eabi_attribute 21, 1
   6              		.eabi_attribute 23, 3
   7              		.eabi_attribute 24, 1
   8              		.eabi_attribute 25, 1
   9              		.eabi_attribute 26, 1
  10              		.eabi_attribute 30, 6
  11              		.eabi_attribute 18, 4
  12              		.thumb
  13              		.file	"hal.c"
  20 0000 2F010000 		.text
  20      02006000 
  20      00000201 
  20      FB0E0D00 
  20      01010101 
  21              	.Ltext0:
  22              		.cfi_sections	.debug_frame
  23              		.bss
  24              	HalStatus:
  25 0000 00       		.space	1
  26              	RxCount:
  27 0001 00       		.space	1
  28              	TxCount:
  29 0002 00       		.space	1
  30              		.section	.text.HAL_GetHalStatus,"ax",%progbits
  31              		.align	2
  32              		.global	HAL_GetHalStatus
  33              		.thumb
  34              		.thumb_func
  35              		.type	HAL_GetHalStatus, %function
  36              	HAL_GetHalStatus:
  37              	.LFB29:
  38              		.file 1 ".\\hal.c"
   1:.\hal.c       **** /* Copyright (C) <2014> <Martin Schalk>
   2:.\hal.c       ****  * All rights reserved.
   3:.\hal.c       ****  *
   4:.\hal.c       ****  * This software may be modified and distributed under the terms
   5:.\hal.c       ****  * of the BSD license.  See the LICENSE file for details.
   6:.\hal.c       ****  */
   7:.\hal.c       **** 
   8:.\hal.c       **** #include "global.h"
   9:.\hal.c       **** #include "types.h"
  10:.\hal.c       **** #include "hal.h"
  11:.\hal.c       **** 
  12:.\hal.c       **** 
  13:.\hal.c       **** 
  14:.\hal.c       **** static STATUS HalStatus = HAL_TRANSMISSION_READY;
  15:.\hal.c       **** static uint8 RxCount;
ARM GAS  C:\Users\Martin\AppData\Local\Temp\cc7JzqzC.s 			page 2


  16:.\hal.c       **** static uint8 TxCount;
  17:.\hal.c       **** 
  18:.\hal.c       **** /*******************************************************/
  19:.\hal.c       **** STATUS HAL_GetHalStatus(void)
  20:.\hal.c       **** {
  39              		.loc 1 20 0
  40              		.cfi_startproc
  41              		@ args = 0, pretend = 0, frame = 0
  42              		@ frame_needed = 1, uses_anonymous_args = 0
  43              		@ link register save eliminated.
  44 0000 80B4     		push	{r7}
  45              	.LCFI0:
  46              		.cfi_def_cfa_offset 4
  47 0002 00AF     		add	r7, sp, #0
  48              		.cfi_offset 7, -4
  49              	.LCFI1:
  50              		.cfi_def_cfa_register 7
  21:.\hal.c       **** 	return HalStatus;
  51              		.loc 1 21 0
  52 0004 40F20003 		movw	r3, #:lower16:HalStatus
  53 0008 C0F20003 		movt	r3, #:upper16:HalStatus
  54 000c 1B78     		ldrb	r3, [r3, #0]	@ zero_extendqisi2
  22:.\hal.c       **** }
  55              		.loc 1 22 0
  56 000e 1846     		mov	r0, r3
  57 0010 BD46     		mov	sp, r7
  58 0012 80BC     		pop	{r7}
  59 0014 7047     		bx	lr
  60              		.cfi_endproc
  61              	.LFE29:
  62              		.size	HAL_GetHalStatus, .-HAL_GetHalStatus
  63 0016 00BF     		.section	.text.HAL_SetHalStatus,"ax",%progbits
  64              		.align	2
  65              		.global	HAL_SetHalStatus
  66              		.thumb
  67              		.thumb_func
  68              		.type	HAL_SetHalStatus, %function
  69              	HAL_SetHalStatus:
  70              	.LFB30:
  23:.\hal.c       **** 
  24:.\hal.c       **** /*******************************************************/
  25:.\hal.c       **** void HAL_SetHalStatus(STATUS value)
  26:.\hal.c       **** {
  71              		.loc 1 26 0
  72              		.cfi_startproc
  73              		@ args = 0, pretend = 0, frame = 8
  74              		@ frame_needed = 1, uses_anonymous_args = 0
  75              		@ link register save eliminated.
  76 0000 80B4     		push	{r7}
  77              	.LCFI2:
  78              		.cfi_def_cfa_offset 4
  79 0002 83B0     		sub	sp, sp, #12
  80              	.LCFI3:
  81              		.cfi_def_cfa_offset 16
  82 0004 00AF     		add	r7, sp, #0
  83              		.cfi_offset 7, -4
  84              	.LCFI4:
ARM GAS  C:\Users\Martin\AppData\Local\Temp\cc7JzqzC.s 			page 3


  85              		.cfi_def_cfa_register 7
  86 0006 0346     		mov	r3, r0
  87 0008 FB71     		strb	r3, [r7, #7]
  27:.\hal.c       **** 	HalStatus = value;
  88              		.loc 1 27 0
  89 000a 40F20003 		movw	r3, #:lower16:HalStatus
  90 000e C0F20003 		movt	r3, #:upper16:HalStatus
  91 0012 FA79     		ldrb	r2, [r7, #7]
  92 0014 1A70     		strb	r2, [r3, #0]
  28:.\hal.c       **** }
  93              		.loc 1 28 0
  94 0016 07F10C07 		add	r7, r7, #12
  95 001a BD46     		mov	sp, r7
  96 001c 80BC     		pop	{r7}
  97 001e 7047     		bx	lr
  98              		.cfi_endproc
  99              	.LFE30:
 100              		.size	HAL_SetHalStatus, .-HAL_SetHalStatus
 101              		.section	.text.isr_rx_routine,"ax",%progbits
 102              		.align	2
 103              		.global	isr_rx_routine
 104              		.thumb
 105              		.thumb_func
 106              		.type	isr_rx_routine, %function
 107              	isr_rx_routine:
 108              	.LFB31:
  29:.\hal.c       **** 
  30:.\hal.c       **** /*******************************************************/
  31:.\hal.c       **** CY_ISR(isr_rx_routine)
  32:.\hal.c       **** {
 109              		.loc 1 32 0
 110              		.cfi_startproc
 111              		@ args = 0, pretend = 0, frame = 0
 112              		@ frame_needed = 1, uses_anonymous_args = 0
 113              		@ link register save eliminated.
 114 0000 80B4     		push	{r7}
 115              	.LCFI5:
 116              		.cfi_def_cfa_offset 4
 117 0002 00AF     		add	r7, sp, #0
 118              		.cfi_offset 7, -4
 119              	.LCFI6:
 120              		.cfi_def_cfa_register 7
  33:.\hal.c       **** 	RxCount++;
 121              		.loc 1 33 0
 122 0004 40F20003 		movw	r3, #:lower16:RxCount
 123 0008 C0F20003 		movt	r3, #:upper16:RxCount
 124 000c 1B78     		ldrb	r3, [r3, #0]	@ zero_extendqisi2
 125 000e 03F10103 		add	r3, r3, #1
 126 0012 DAB2     		uxtb	r2, r3
 127 0014 40F20003 		movw	r3, #:lower16:RxCount
 128 0018 C0F20003 		movt	r3, #:upper16:RxCount
 129 001c 1A70     		strb	r2, [r3, #0]
  34:.\hal.c       **** }
 130              		.loc 1 34 0
 131 001e BD46     		mov	sp, r7
 132 0020 80BC     		pop	{r7}
 133 0022 7047     		bx	lr
ARM GAS  C:\Users\Martin\AppData\Local\Temp\cc7JzqzC.s 			page 4


 134              		.cfi_endproc
 135              	.LFE31:
 136              		.size	isr_rx_routine, .-isr_rx_routine
 137              		.section	.text.isr_tx_routine,"ax",%progbits
 138              		.align	2
 139              		.global	isr_tx_routine
 140              		.thumb
 141              		.thumb_func
 142              		.type	isr_tx_routine, %function
 143              	isr_tx_routine:
 144              	.LFB32:
  35:.\hal.c       **** 
  36:.\hal.c       **** /*******************************************************/
  37:.\hal.c       **** CY_ISR(isr_tx_routine)
  38:.\hal.c       **** {
 145              		.loc 1 38 0
 146              		.cfi_startproc
 147              		@ args = 0, pretend = 0, frame = 0
 148              		@ frame_needed = 1, uses_anonymous_args = 0
 149 0000 80B5     		push	{r7, lr}
 150              	.LCFI7:
 151              		.cfi_def_cfa_offset 8
 152 0002 00AF     		add	r7, sp, #0
 153              		.cfi_offset 14, -4
 154              		.cfi_offset 7, -8
 155              	.LCFI8:
 156              		.cfi_def_cfa_register 7
  39:.\hal.c       **** 	TxCount--;
 157              		.loc 1 39 0
 158 0004 40F20003 		movw	r3, #:lower16:TxCount
 159 0008 C0F20003 		movt	r3, #:upper16:TxCount
 160 000c 1B78     		ldrb	r3, [r3, #0]	@ zero_extendqisi2
 161 000e 03F1FF33 		add	r3, r3, #-1
 162 0012 DAB2     		uxtb	r2, r3
 163 0014 40F20003 		movw	r3, #:lower16:TxCount
 164 0018 C0F20003 		movt	r3, #:upper16:TxCount
 165 001c 1A70     		strb	r2, [r3, #0]
  40:.\hal.c       **** 	if ((TxCount == 0) && (HalStatus == HAL_TRANSMISSION_READY))
 166              		.loc 1 40 0
 167 001e 40F20003 		movw	r3, #:lower16:TxCount
 168 0022 C0F20003 		movt	r3, #:upper16:TxCount
 169 0026 1B78     		ldrb	r3, [r3, #0]	@ zero_extendqisi2
 170 0028 002B     		cmp	r3, #0
 171 002a 08D1     		bne	.L9
 172 002c 40F20003 		movw	r3, #:lower16:HalStatus
 173 0030 C0F20003 		movt	r3, #:upper16:HalStatus
 174 0034 1B78     		ldrb	r3, [r3, #0]	@ zero_extendqisi2
 175 0036 002B     		cmp	r3, #0
 176 0038 01D1     		bne	.L9
  41:.\hal.c       **** 		UART_EnableRxInt();
 177              		.loc 1 41 0
 178 003a FFF7FEFF 		bl	UART_EnableRxInt
 179              	.L9:
  42:.\hal.c       **** }
 180              		.loc 1 42 0
 181 003e 80BD     		pop	{r7, pc}
 182              		.cfi_endproc
ARM GAS  C:\Users\Martin\AppData\Local\Temp\cc7JzqzC.s 			page 5


 183              	.LFE32:
 184              		.size	isr_tx_routine, .-isr_tx_routine
 185              		.section	.text.HAL_Init,"ax",%progbits
 186              		.align	2
 187              		.global	HAL_Init
 188              		.thumb
 189              		.thumb_func
 190              		.type	HAL_Init, %function
 191              	HAL_Init:
 192              	.LFB33:
  43:.\hal.c       **** 
  44:.\hal.c       **** /*******************************************************/
  45:.\hal.c       **** STATUS 	HAL_Init(void)
  46:.\hal.c       **** {
 193              		.loc 1 46 0
 194              		.cfi_startproc
 195              		@ args = 0, pretend = 0, frame = 0
 196              		@ frame_needed = 1, uses_anonymous_args = 0
 197 0000 80B5     		push	{r7, lr}
 198              	.LCFI9:
 199              		.cfi_def_cfa_offset 8
 200 0002 00AF     		add	r7, sp, #0
 201              		.cfi_offset 14, -4
 202              		.cfi_offset 7, -8
 203              	.LCFI10:
 204              		.cfi_def_cfa_register 7
  47:.\hal.c       **** 	RxCount = 0;
 205              		.loc 1 47 0
 206 0004 40F20003 		movw	r3, #:lower16:RxCount
 207 0008 C0F20003 		movt	r3, #:upper16:RxCount
 208 000c 4FF00002 		mov	r2, #0
 209 0010 1A70     		strb	r2, [r3, #0]
  48:.\hal.c       **** 	UART_Start();
 210              		.loc 1 48 0
 211 0012 FFF7FEFF 		bl	UART_Start
  49:.\hal.c       ****     Isr_rx_Start();
 212              		.loc 1 49 0
 213 0016 FFF7FEFF 		bl	Isr_rx_Start
  50:.\hal.c       **** 	Isr_tx_Start();	
 214              		.loc 1 50 0
 215 001a FFF7FEFF 		bl	Isr_tx_Start
  51:.\hal.c       **** 	Isr_rx_SetVector(isr_rx_routine);
 216              		.loc 1 51 0
 217 001e 40F20000 		movw	r0, #:lower16:isr_rx_routine
 218 0022 C0F20000 		movt	r0, #:upper16:isr_rx_routine
 219 0026 FFF7FEFF 		bl	Isr_rx_SetVector
  52:.\hal.c       **** 	Isr_tx_SetVector(isr_tx_routine);
 220              		.loc 1 52 0
 221 002a 40F20000 		movw	r0, #:lower16:isr_tx_routine
 222 002e C0F20000 		movt	r0, #:upper16:isr_tx_routine
 223 0032 FFF7FEFF 		bl	Isr_tx_SetVector
  53:.\hal.c       **** 	Isr_rx_Enable();
 224              		.loc 1 53 0
 225 0036 FFF7FEFF 		bl	Isr_rx_Enable
  54:.\hal.c       **** 	Isr_tx_Enable();
 226              		.loc 1 54 0
 227 003a FFF7FEFF 		bl	Isr_tx_Enable
ARM GAS  C:\Users\Martin\AppData\Local\Temp\cc7JzqzC.s 			page 6


  55:.\hal.c       **** 	UART_EnableRxInt();
 228              		.loc 1 55 0
 229 003e FFF7FEFF 		bl	UART_EnableRxInt
  56:.\hal.c       **** 	UART_EnableTxInt();
 230              		.loc 1 56 0
 231 0042 FFF7FEFF 		bl	UART_EnableTxInt
  57:.\hal.c       **** 	
  58:.\hal.c       **** 	return SUCCESS;
 232              		.loc 1 58 0
 233 0046 4FF00003 		mov	r3, #0
  59:.\hal.c       **** }
 234              		.loc 1 59 0
 235 004a 1846     		mov	r0, r3
 236 004c 80BD     		pop	{r7, pc}
 237              		.cfi_endproc
 238              	.LFE33:
 239              		.size	HAL_Init, .-HAL_Init
 240 004e 00BF     		.section	.text.HAL_GetRxIsrCount,"ax",%progbits
 241              		.align	2
 242              		.global	HAL_GetRxIsrCount
 243              		.thumb
 244              		.thumb_func
 245              		.type	HAL_GetRxIsrCount, %function
 246              	HAL_GetRxIsrCount:
 247              	.LFB34:
  60:.\hal.c       **** 
  61:.\hal.c       **** /*******************************************************/
  62:.\hal.c       **** uint8 	HAL_GetRxIsrCount()
  63:.\hal.c       **** {
 248              		.loc 1 63 0
 249              		.cfi_startproc
 250              		@ args = 0, pretend = 0, frame = 0
 251              		@ frame_needed = 1, uses_anonymous_args = 0
 252              		@ link register save eliminated.
 253 0000 80B4     		push	{r7}
 254              	.LCFI11:
 255              		.cfi_def_cfa_offset 4
 256 0002 00AF     		add	r7, sp, #0
 257              		.cfi_offset 7, -4
 258              	.LCFI12:
 259              		.cfi_def_cfa_register 7
  64:.\hal.c       **** 	return RxCount;
 260              		.loc 1 64 0
 261 0004 40F20003 		movw	r3, #:lower16:RxCount
 262 0008 C0F20003 		movt	r3, #:upper16:RxCount
 263 000c 1B78     		ldrb	r3, [r3, #0]	@ zero_extendqisi2
  65:.\hal.c       **** }
 264              		.loc 1 65 0
 265 000e 1846     		mov	r0, r3
 266 0010 BD46     		mov	sp, r7
 267 0012 80BC     		pop	{r7}
 268 0014 7047     		bx	lr
 269              		.cfi_endproc
 270              	.LFE34:
 271              		.size	HAL_GetRxIsrCount, .-HAL_GetRxIsrCount
 272 0016 00BF     		.section	.text.HAL_GetRxBufferCount,"ax",%progbits
 273              		.align	2
ARM GAS  C:\Users\Martin\AppData\Local\Temp\cc7JzqzC.s 			page 7


 274              		.global	HAL_GetRxBufferCount
 275              		.thumb
 276              		.thumb_func
 277              		.type	HAL_GetRxBufferCount, %function
 278              	HAL_GetRxBufferCount:
 279              	.LFB35:
  66:.\hal.c       **** 
  67:.\hal.c       **** /*******************************************************/
  68:.\hal.c       **** uint8 	HAL_GetRxBufferCount()
  69:.\hal.c       **** {
 280              		.loc 1 69 0
 281              		.cfi_startproc
 282              		@ args = 0, pretend = 0, frame = 0
 283              		@ frame_needed = 1, uses_anonymous_args = 0
 284 0000 80B5     		push	{r7, lr}
 285              	.LCFI13:
 286              		.cfi_def_cfa_offset 8
 287 0002 00AF     		add	r7, sp, #0
 288              		.cfi_offset 14, -4
 289              		.cfi_offset 7, -8
 290              	.LCFI14:
 291              		.cfi_def_cfa_register 7
  70:.\hal.c       **** 	return UART_GetRxBufferSize();
 292              		.loc 1 70 0
 293 0004 FFF7FEFF 		bl	UART_GetRxBufferSize
 294 0008 0346     		mov	r3, r0
  71:.\hal.c       **** }
 295              		.loc 1 71 0
 296 000a 1846     		mov	r0, r3
 297 000c 80BD     		pop	{r7, pc}
 298              		.cfi_endproc
 299              	.LFE35:
 300              		.size	HAL_GetRxBufferCount, .-HAL_GetRxBufferCount
 301 000e 00BF     		.section	.text.HAL_GetByte,"ax",%progbits
 302              		.align	2
 303              		.global	HAL_GetByte
 304              		.thumb
 305              		.thumb_func
 306              		.type	HAL_GetByte, %function
 307              	HAL_GetByte:
 308              	.LFB36:
  72:.\hal.c       **** 
  73:.\hal.c       **** 
  74:.\hal.c       **** /* check, if FIFO has data available.*/
  75:.\hal.c       **** 	//if ((UART_ReadRxStatus() & UART_RX_STS_FIFO_NOTEMPTY) == UART_RX_STS_FIFO_NOTEMPTY)
  76:.\hal.c       **** /*******************************************************/
  77:.\hal.c       **** uint8 	HAL_GetByte()
  78:.\hal.c       **** {
 309              		.loc 1 78 0
 310              		.cfi_startproc
 311              		@ args = 0, pretend = 0, frame = 8
 312              		@ frame_needed = 1, uses_anonymous_args = 0
 313 0000 80B5     		push	{r7, lr}
 314              	.LCFI15:
 315              		.cfi_def_cfa_offset 8
 316 0002 82B0     		sub	sp, sp, #8
 317              	.LCFI16:
ARM GAS  C:\Users\Martin\AppData\Local\Temp\cc7JzqzC.s 			page 8


 318              		.cfi_def_cfa_offset 16
 319 0004 00AF     		add	r7, sp, #0
 320              		.cfi_offset 14, -4
 321              		.cfi_offset 7, -8
 322              	.LCFI17:
 323              		.cfi_def_cfa_register 7
  79:.\hal.c       **** 	uint8 value;
  80:.\hal.c       **** 	
  81:.\hal.c       **** 	UART_DisableRxInt();
 324              		.loc 1 81 0
 325 0006 FFF7FEFF 		bl	UART_DisableRxInt
  82:.\hal.c       **** 	
  83:.\hal.c       **** 	/* chech if data available */
  84:.\hal.c       **** 	if (UART_GetRxBufferSize > 0)
  85:.\hal.c       **** 	{
  86:.\hal.c       **** 		value = UART_ReadRxData();
 326              		.loc 1 86 0
 327 000a FFF7FEFF 		bl	UART_ReadRxData
 328 000e 0346     		mov	r3, r0
 329 0010 FB71     		strb	r3, [r7, #7]
  87:.\hal.c       **** 		RxCount--;
 330              		.loc 1 87 0
 331 0012 40F20003 		movw	r3, #:lower16:RxCount
 332 0016 C0F20003 		movt	r3, #:upper16:RxCount
 333 001a 1B78     		ldrb	r3, [r3, #0]	@ zero_extendqisi2
 334 001c 03F1FF33 		add	r3, r3, #-1
 335 0020 DAB2     		uxtb	r2, r3
 336 0022 40F20003 		movw	r3, #:lower16:RxCount
 337 0026 C0F20003 		movt	r3, #:upper16:RxCount
 338 002a 1A70     		strb	r2, [r3, #0]
  88:.\hal.c       **** 	}
  89:.\hal.c       **** 	else
  90:.\hal.c       **** 	{
  91:.\hal.c       **** 		value = 0;
  92:.\hal.c       **** 	}
  93:.\hal.c       **** 
  94:.\hal.c       **** 	UART_EnableRxInt();
 339              		.loc 1 94 0
 340 002c FFF7FEFF 		bl	UART_EnableRxInt
  95:.\hal.c       **** 	
  96:.\hal.c       **** 	return value;
 341              		.loc 1 96 0
 342 0030 FB79     		ldrb	r3, [r7, #7]	@ zero_extendqisi2
  97:.\hal.c       **** }
 343              		.loc 1 97 0
 344 0032 1846     		mov	r0, r3
 345 0034 07F10807 		add	r7, r7, #8
 346 0038 BD46     		mov	sp, r7
 347 003a 80BD     		pop	{r7, pc}
 348              		.cfi_endproc
 349              	.LFE36:
 350              		.size	HAL_GetByte, .-HAL_GetByte
 351              		.section	.text.HAL_TransmitByte,"ax",%progbits
 352              		.align	2
 353              		.global	HAL_TransmitByte
 354              		.thumb
 355              		.thumb_func
ARM GAS  C:\Users\Martin\AppData\Local\Temp\cc7JzqzC.s 			page 9


 356              		.type	HAL_TransmitByte, %function
 357              	HAL_TransmitByte:
 358              	.LFB37:
  98:.\hal.c       **** 
  99:.\hal.c       **** /*******************************************************/
 100:.\hal.c       **** STATUS 	HAL_TransmitByte(uint8 value)
 101:.\hal.c       **** {
 359              		.loc 1 101 0
 360              		.cfi_startproc
 361              		@ args = 0, pretend = 0, frame = 8
 362              		@ frame_needed = 1, uses_anonymous_args = 0
 363 0000 80B5     		push	{r7, lr}
 364              	.LCFI18:
 365              		.cfi_def_cfa_offset 8
 366 0002 82B0     		sub	sp, sp, #8
 367              	.LCFI19:
 368              		.cfi_def_cfa_offset 16
 369 0004 00AF     		add	r7, sp, #0
 370              		.cfi_offset 14, -4
 371              		.cfi_offset 7, -8
 372              	.LCFI20:
 373              		.cfi_def_cfa_register 7
 374 0006 0346     		mov	r3, r0
 375 0008 FB71     		strb	r3, [r7, #7]
 102:.\hal.c       **** 	UART_DisableRxInt();
 376              		.loc 1 102 0
 377 000a FFF7FEFF 		bl	UART_DisableRxInt
 103:.\hal.c       **** 	HalStatus = HAL_TRANSMISSION_BUSY;
 378              		.loc 1 103 0
 379 000e 40F20003 		movw	r3, #:lower16:HalStatus
 380 0012 C0F20003 		movt	r3, #:upper16:HalStatus
 381 0016 4FF00102 		mov	r2, #1
 382 001a 1A70     		strb	r2, [r3, #0]
 383              	.L21:
 104:.\hal.c       **** 	
 105:.\hal.c       **** 	/* wait until uart read to transmitted */
 106:.\hal.c       **** 	while (UART_ReadTxStatus() != UART_TX_STS_COMPLETE)
 384              		.loc 1 106 0
 385 001c FFF7FEFF 		bl	UART_ReadTxStatus
 386 0020 0346     		mov	r3, r0
 387 0022 012B     		cmp	r3, #1
 388 0024 FAD1     		bne	.L21
 107:.\hal.c       **** 	;
 108:.\hal.c       **** 	TxCount++;
 389              		.loc 1 108 0
 390 0026 40F20003 		movw	r3, #:lower16:TxCount
 391 002a C0F20003 		movt	r3, #:upper16:TxCount
 392 002e 1B78     		ldrb	r3, [r3, #0]	@ zero_extendqisi2
 393 0030 03F10103 		add	r3, r3, #1
 394 0034 DAB2     		uxtb	r2, r3
 395 0036 40F20003 		movw	r3, #:lower16:TxCount
 396 003a C0F20003 		movt	r3, #:upper16:TxCount
 397 003e 1A70     		strb	r2, [r3, #0]
 109:.\hal.c       **** 	UART_WriteTxData(value);
 398              		.loc 1 109 0
 399 0040 FB79     		ldrb	r3, [r7, #7]	@ zero_extendqisi2
 400 0042 1846     		mov	r0, r3
ARM GAS  C:\Users\Martin\AppData\Local\Temp\cc7JzqzC.s 			page 10


 401 0044 FFF7FEFF 		bl	UART_WriteTxData
 110:.\hal.c       **** 	
 111:.\hal.c       **** 	HalStatus = HAL_TRANSMISSION_READY;
 402              		.loc 1 111 0
 403 0048 40F20003 		movw	r3, #:lower16:HalStatus
 404 004c C0F20003 		movt	r3, #:upper16:HalStatus
 405 0050 4FF00002 		mov	r2, #0
 406 0054 1A70     		strb	r2, [r3, #0]
 112:.\hal.c       **** 	
 113:.\hal.c       **** 	return SUCCESS;
 407              		.loc 1 113 0
 408 0056 4FF00003 		mov	r3, #0
 114:.\hal.c       **** }
 409              		.loc 1 114 0
 410 005a 1846     		mov	r0, r3
 411 005c 07F10807 		add	r7, r7, #8
 412 0060 BD46     		mov	sp, r7
 413 0062 80BD     		pop	{r7, pc}
 414              		.cfi_endproc
 415              	.LFE37:
 416              		.size	HAL_TransmitByte, .-HAL_TransmitByte
 417              		.section	.text.HAL_TransmitArray,"ax",%progbits
 418              		.align	2
 419              		.global	HAL_TransmitArray
 420              		.thumb
 421              		.thumb_func
 422              		.type	HAL_TransmitArray, %function
 423              	HAL_TransmitArray:
 424              	.LFB38:
 115:.\hal.c       **** 
 116:.\hal.c       **** /*******************************************************/
 117:.\hal.c       **** STATUS 	HAL_TransmitArray(const uint8* source, uint8 numBytes)
 118:.\hal.c       **** {
 425              		.loc 1 118 0
 426              		.cfi_startproc
 427              		@ args = 0, pretend = 0, frame = 8
 428              		@ frame_needed = 1, uses_anonymous_args = 0
 429 0000 80B5     		push	{r7, lr}
 430              	.LCFI21:
 431              		.cfi_def_cfa_offset 8
 432 0002 82B0     		sub	sp, sp, #8
 433              	.LCFI22:
 434              		.cfi_def_cfa_offset 16
 435 0004 00AF     		add	r7, sp, #0
 436              		.cfi_offset 14, -4
 437              		.cfi_offset 7, -8
 438              	.LCFI23:
 439              		.cfi_def_cfa_register 7
 440 0006 7860     		str	r0, [r7, #4]
 441 0008 0B46     		mov	r3, r1
 442 000a FB70     		strb	r3, [r7, #3]
 119:.\hal.c       **** 	UART_DisableRxInt();
 443              		.loc 1 119 0
 444 000c FFF7FEFF 		bl	UART_DisableRxInt
 120:.\hal.c       **** 	HalStatus = HAL_TRANSMISSION_BUSY;
 445              		.loc 1 120 0
 446 0010 40F20003 		movw	r3, #:lower16:HalStatus
ARM GAS  C:\Users\Martin\AppData\Local\Temp\cc7JzqzC.s 			page 11


 447 0014 C0F20003 		movt	r3, #:upper16:HalStatus
 448 0018 4FF00102 		mov	r2, #1
 449 001c 1A70     		strb	r2, [r3, #0]
 121:.\hal.c       **** 	TxCount += numBytes;
 450              		.loc 1 121 0
 451 001e 40F20003 		movw	r3, #:lower16:TxCount
 452 0022 C0F20003 		movt	r3, #:upper16:TxCount
 453 0026 1A78     		ldrb	r2, [r3, #0]	@ zero_extendqisi2
 454 0028 FB78     		ldrb	r3, [r7, #3]
 455 002a 1344     		add	r3, r2, r3
 456 002c DAB2     		uxtb	r2, r3
 457 002e 40F20003 		movw	r3, #:lower16:TxCount
 458 0032 C0F20003 		movt	r3, #:upper16:TxCount
 459 0036 1A70     		strb	r2, [r3, #0]
 122:.\hal.c       **** 	UART_PutArray(source, numBytes); //function can be interrupted by <isr_tx_routine>
 460              		.loc 1 122 0
 461 0038 FB78     		ldrb	r3, [r7, #3]	@ zero_extendqisi2
 462 003a 7868     		ldr	r0, [r7, #4]
 463 003c 1946     		mov	r1, r3
 464 003e FFF7FEFF 		bl	UART_PutArray
 123:.\hal.c       **** 	HalStatus = HAL_TRANSMISSION_READY;
 465              		.loc 1 123 0
 466 0042 40F20003 		movw	r3, #:lower16:HalStatus
 467 0046 C0F20003 		movt	r3, #:upper16:HalStatus
 468 004a 4FF00002 		mov	r2, #0
 469 004e 1A70     		strb	r2, [r3, #0]
 124:.\hal.c       **** 	// UART_EnableRxInt(); => done in <isr_tx_routine> if last byte transmitted
 125:.\hal.c       **** 	return SUCCESS;
 470              		.loc 1 125 0
 471 0050 4FF00003 		mov	r3, #0
 126:.\hal.c       **** }
 472              		.loc 1 126 0
 473 0054 1846     		mov	r0, r3
 474 0056 07F10807 		add	r7, r7, #8
 475 005a BD46     		mov	sp, r7
 476 005c 80BD     		pop	{r7, pc}
 477              		.cfi_endproc
 478              	.LFE38:
 479              		.size	HAL_TransmitArray, .-HAL_TransmitArray
 480 005e 00BF     		.text
 481              	.Letext0: