ARM GAS  C:\Users\Martin\AppData\Local\Temp\cc1DxECm.s 			page 1


   1              		.syntax unified
   2              		.cpu cortex-m3
   3              		.fpu softvfp
   4              		.eabi_attribute 20, 1
   5              		.eabi_attribute 21, 1
   6              		.eabi_attribute 23, 3
   7              		.eabi_attribute 24, 1
   8              		.eabi_attribute 25, 1
   9              		.eabi_attribute 26, 1
  10              		.eabi_attribute 30, 6
  11              		.eabi_attribute 18, 4
  12              		.thumb
  13              		.file	"test.c"
  20 0000 87010000 		.text
  20      02000701 
  20      00000201 
  20      FB0E0D00 
  20      01010101 
  21              	.Ltext0:
  22              		.cfi_sections	.debug_frame
  23              		.bss
  24              		.align	2
  25              	TST_MsgBuffer:
  26 0000 00000000 		.space	255
  26      00000000 
  26      00000000 
  26      00000000 
  26      00000000 
  27              		.section	.text.TST_SendTestMsg,"ax",%progbits
  28              		.align	2
  29              		.thumb
  30              		.thumb_func
  31              		.type	TST_SendTestMsg, %function
  32              	TST_SendTestMsg:
  33              	.LFB29:
  34              		.file 1 ".\\test.c"
   1:.\test.c      **** /* Copyright (C) <2014> <Martin Schalk>
   2:.\test.c      ****  * All rights reserved.
   3:.\test.c      ****  *
   4:.\test.c      ****  * This software may be modified and distributed under the terms
   5:.\test.c      ****  * of the BSD license.  See the LICENSE file for details.
   6:.\test.c      ****  */
   7:.\test.c      **** 
   8:.\test.c      **** #include "global.h"
   9:.\test.c      **** #include "types.h"
  10:.\test.c      **** #include "test.h"
  11:.\test.c      **** #include "tmr.h"
  12:.\test.c      **** #include "hal.h"
  13:.\test.c      **** #include "bal.h"
  14:.\test.c      **** 
  15:.\test.c      **** #define TST_MSG_BUFFER_SIZE     0xFF
ARM GAS  C:\Users\Martin\AppData\Local\Temp\cc1DxECm.s 			page 2


  16:.\test.c      **** #define TST_MSG_ZERO_COUNT      5
  17:.\test.c      **** 
  18:.\test.c      **** static uint8    TST_MsgBuffer[TST_MSG_BUFFER_SIZE];
  19:.\test.c      **** 
  20:.\test.c      **** /*
  21:.\test.c      **** -------------------------------------------
  22:.\test.c      **** | id0 | id1 | length | b0 | b1 | ... | bn |
  23:.\test.c      **** -------------------------------------------
  24:.\test.c      **** */
  25:.\test.c      **** /*******************************************************/
  26:.\test.c      **** static void TST_SendTestMsg(void)
  27:.\test.c      **** {
  35              		.loc 1 27 0
  36              		.cfi_startproc
  37              		@ args = 0, pretend = 0, frame = 0
  38              		@ frame_needed = 1, uses_anonymous_args = 0
  39              		@ link register save eliminated.
  40 0000 80B4     		push	{r7}
  41              	.LCFI0:
  42              		.cfi_def_cfa_offset 4
  43 0002 00AF     		add	r7, sp, #0
  44              		.cfi_offset 7, -4
  45              	.LCFI1:
  46              		.cfi_def_cfa_register 7
  28:.\test.c      **** //#define UART_TEST_MSG
  29:.\test.c      **** //#define BAL_TEST_MSG
  30:.\test.c      **** 
  31:.\test.c      **** #if defined(UART_TEST_MSG)
  32:.\test.c      ****     static uint8 TestMsg[] = {0xFF, 0x01, 5, 2, 3, 0, 4, 5};
  33:.\test.c      ****     
  34:.\test.c      ****     UART_TEST_PutArray(TestMsg, sizeof(TestMsg));
  35:.\test.c      **** #elif defined(BAL_TEST_MSG)
  36:.\test.c      ****     STATUS status; 
  37:.\test.c      ****     uint8 msgdata[4] = {1, 2, 3, 4};
  38:.\test.c      ****     
  39:.\test.c      ****     BAL_MSG testmsg = {0x0001, 4, msgdata};
  40:.\test.c      ****     status = BAL_SendMsg(&testmsg);
  41:.\test.c      ****     (void)status;
  42:.\test.c      **** #endif
  43:.\test.c      **** }
  47              		.loc 1 43 0
  48 0004 BD46     		mov	sp, r7
  49 0006 80BC     		pop	{r7}
  50 0008 7047     		bx	lr
  51              		.cfi_endproc
  52              	.LFE29:
  53              		.size	TST_SendTestMsg, .-TST_SendTestMsg
  54 000a 00BF     		.section	.text.TST_GetMsg,"ax",%progbits
  55              		.align	2
  56              		.thumb
  57              		.thumb_func
  58              		.type	TST_GetMsg, %function
  59              	TST_GetMsg:
  60              	.LFB30:
  44:.\test.c      **** 
  45:.\test.c      **** /*******************************************************/
  46:.\test.c      **** static void TST_GetMsg(void)
ARM GAS  C:\Users\Martin\AppData\Local\Temp\cc1DxECm.s 			page 3


  47:.\test.c      **** {
  61              		.loc 1 47 0
  62              		.cfi_startproc
  63              		@ args = 0, pretend = 0, frame = 16
  64              		@ frame_needed = 1, uses_anonymous_args = 0
  65 0000 90B5     		push	{r4, r7, lr}
  66              	.LCFI2:
  67              		.cfi_def_cfa_offset 12
  68 0002 85B0     		sub	sp, sp, #20
  69              	.LCFI3:
  70              		.cfi_def_cfa_offset 32
  71 0004 00AF     		add	r7, sp, #0
  72              		.cfi_offset 14, -4
  73              		.cfi_offset 7, -8
  74              		.cfi_offset 4, -12
  75              	.LCFI4:
  76              		.cfi_def_cfa_register 7
  48:.\test.c      ****     int i=0, count=0;
  77              		.loc 1 48 0
  78 0006 4FF00003 		mov	r3, #0
  79 000a 7B60     		str	r3, [r7, #4]
  80 000c 4FF00003 		mov	r3, #0
  81 0010 BB60     		str	r3, [r7, #8]
  49:.\test.c      ****     BOOL motorMsg=FALSE;
  82              		.loc 1 49 0
  83 0012 4FF00003 		mov	r3, #0
  84 0016 FB73     		strb	r3, [r7, #15]
  85              	.L6:
  50:.\test.c      ****     
  51:.\test.c      ****     do
  52:.\test.c      ****     {
  53:.\test.c      ****         TST_MsgBuffer[i] = UART_TEST_GetChar();
  86              		.loc 1 53 0
  87 0018 7C68     		ldr	r4, [r7, #4]
  88 001a FFF7FEFF 		bl	UART_TEST_GetChar
  89 001e 0346     		mov	r3, r0
  90 0020 1A46     		mov	r2, r3
  91 0022 40F20003 		movw	r3, #:lower16:TST_MsgBuffer
  92 0026 C0F20003 		movt	r3, #:upper16:TST_MsgBuffer
  93 002a 1A55     		strb	r2, [r3, r4]
  54:.\test.c      ****         
  55:.\test.c      ****         if (TST_MsgBuffer[i] == 0x00)
  94              		.loc 1 55 0
  95 002c 7A68     		ldr	r2, [r7, #4]
  96 002e 40F20003 		movw	r3, #:lower16:TST_MsgBuffer
  97 0032 C0F20003 		movt	r3, #:upper16:TST_MsgBuffer
  98 0036 9B5C     		ldrb	r3, [r3, r2]	@ zero_extendqisi2
  99 0038 002B     		cmp	r3, #0
 100 003a 04D1     		bne	.L4
  56:.\test.c      ****             count++;
 101              		.loc 1 56 0
 102 003c BB68     		ldr	r3, [r7, #8]
 103 003e 03F10103 		add	r3, r3, #1
 104 0042 BB60     		str	r3, [r7, #8]
 105 0044 17E0     		b	.L5
 106              	.L4:
  57:.\test.c      ****         else
ARM GAS  C:\Users\Martin\AppData\Local\Temp\cc1DxECm.s 			page 4


  58:.\test.c      ****         {
  59:.\test.c      ****             /* check if message beginns with 0xFF 0xFF */    
  60:.\test.c      ****             if ((TST_MsgBuffer[i] == 0xFF) && (i>0))
 107              		.loc 1 60 0
 108 0046 7A68     		ldr	r2, [r7, #4]
 109 0048 40F20003 		movw	r3, #:lower16:TST_MsgBuffer
 110 004c C0F20003 		movt	r3, #:upper16:TST_MsgBuffer
 111 0050 9B5C     		ldrb	r3, [r3, r2]	@ zero_extendqisi2
 112 0052 FF2B     		cmp	r3, #255
 113 0054 0FD1     		bne	.L5
 114 0056 7B68     		ldr	r3, [r7, #4]
 115 0058 002B     		cmp	r3, #0
 116 005a 0CDD     		ble	.L5
  61:.\test.c      ****             {
  62:.\test.c      ****                 if (TST_MsgBuffer[i-1] == 0xFF)
 117              		.loc 1 62 0
 118 005c 7B68     		ldr	r3, [r7, #4]
 119 005e 03F1FF32 		add	r2, r3, #-1
 120 0062 40F20003 		movw	r3, #:lower16:TST_MsgBuffer
 121 0066 C0F20003 		movt	r3, #:upper16:TST_MsgBuffer
 122 006a 9B5C     		ldrb	r3, [r3, r2]	@ zero_extendqisi2
 123 006c FF2B     		cmp	r3, #255
 124 006e 02D1     		bne	.L5
  63:.\test.c      ****                 {
  64:.\test.c      ****                     motorMsg = TRUE;
 125              		.loc 1 64 0
 126 0070 4FF00103 		mov	r3, #1
 127 0074 FB73     		strb	r3, [r7, #15]
 128              	.L5:
  65:.\test.c      ****                 }
  66:.\test.c      ****             }
  67:.\test.c      ****         }
  68:.\test.c      ****         i++;
 129              		.loc 1 68 0
 130 0076 7B68     		ldr	r3, [r7, #4]
 131 0078 03F10103 		add	r3, r3, #1
 132 007c 7B60     		str	r3, [r7, #4]
  69:.\test.c      ****     } while (i<TST_MSG_ZERO_COUNT);
 133              		.loc 1 69 0
 134 007e 7B68     		ldr	r3, [r7, #4]
 135 0080 042B     		cmp	r3, #4
 136 0082 C9DD     		ble	.L6
  70:.\test.c      ****       
  71:.\test.c      **** }
 137              		.loc 1 71 0
 138 0084 07F11407 		add	r7, r7, #20
 139 0088 BD46     		mov	sp, r7
 140 008a 90BD     		pop	{r4, r7, pc}
 141              		.cfi_endproc
 142              	.LFE30:
 143              		.size	TST_GetMsg, .-TST_GetMsg
 144              		.section	.text.TST_Blink,"ax",%progbits
 145              		.align	2
 146              		.thumb
 147              		.thumb_func
 148              		.type	TST_Blink, %function
 149              	TST_Blink:
ARM GAS  C:\Users\Martin\AppData\Local\Temp\cc1DxECm.s 			page 5


 150              	.LFB31:
  72:.\test.c      **** 
  73:.\test.c      **** /*******************************************************/
  74:.\test.c      **** static void TST_Blink(void)
  75:.\test.c      **** {
 151              		.loc 1 75 0
 152              		.cfi_startproc
 153              		@ args = 0, pretend = 0, frame = 0
 154              		@ frame_needed = 1, uses_anonymous_args = 0
 155 0000 80B5     		push	{r7, lr}
 156              	.LCFI5:
 157              		.cfi_def_cfa_offset 8
 158 0002 00AF     		add	r7, sp, #0
 159              		.cfi_offset 14, -4
 160              		.cfi_offset 7, -8
 161              	.LCFI6:
 162              		.cfi_def_cfa_register 7
  76:.\test.c      ****     static uint8 LedVal=0x00;
  77:.\test.c      **** 	LedVal ^= 0x01;
 163              		.loc 1 77 0
 164 0004 40F20003 		movw	r3, #:lower16:LedVal.2937
 165 0008 C0F20003 		movt	r3, #:upper16:LedVal.2937
 166 000c 1B78     		ldrb	r3, [r3, #0]	@ zero_extendqisi2
 167 000e 83F00103 		eor	r3, r3, #1
 168 0012 DAB2     		uxtb	r2, r3
 169 0014 40F20003 		movw	r3, #:lower16:LedVal.2937
 170 0018 C0F20003 		movt	r3, #:upper16:LedVal.2937
 171 001c 1A70     		strb	r2, [r3, #0]
  78:.\test.c      **** 	DEBUG_LED_1_Write(LedVal);
 172              		.loc 1 78 0
 173 001e 40F20003 		movw	r3, #:lower16:LedVal.2937
 174 0022 C0F20003 		movt	r3, #:upper16:LedVal.2937
 175 0026 1B78     		ldrb	r3, [r3, #0]	@ zero_extendqisi2
 176 0028 1846     		mov	r0, r3
 177 002a FFF7FEFF 		bl	DEBUG_LED_1_Write
  79:.\test.c      **** }
 178              		.loc 1 79 0
 179 002e 80BD     		pop	{r7, pc}
 180              		.cfi_endproc
 181              	.LFE31:
 182              		.size	TST_Blink, .-TST_Blink
 183              		.section	.text.TST_SendMotorMsg,"ax",%progbits
 184              		.align	2
 185              		.thumb
 186              		.thumb_func
 187              		.type	TST_SendMotorMsg, %function
 188              	TST_SendMotorMsg:
 189              	.LFB32:
  80:.\test.c      **** 
  81:.\test.c      **** /*******************************************************/
  82:.\test.c      **** static void TST_SendMotorMsg(void)
  83:.\test.c      **** {
 190              		.loc 1 83 0
 191              		.cfi_startproc
 192              		@ args = 0, pretend = 0, frame = 8
 193              		@ frame_needed = 1, uses_anonymous_args = 0
 194 0000 80B5     		push	{r7, lr}
ARM GAS  C:\Users\Martin\AppData\Local\Temp\cc1DxECm.s 			page 6


 195              	.LCFI7:
 196              		.cfi_def_cfa_offset 8
 197 0002 82B0     		sub	sp, sp, #8
 198              	.LCFI8:
 199              		.cfi_def_cfa_offset 16
 200 0004 00AF     		add	r7, sp, #0
 201              		.cfi_offset 14, -4
 202              		.cfi_offset 7, -8
 203              	.LCFI9:
 204              		.cfi_def_cfa_register 7
  84:.\test.c      ****     STATUS status; 
  85:.\test.c      **** 
  86:.\test.c      ****     Ping(0x01);
 205              		.loc 1 86 0
 206 0006 4FF00100 		mov	r0, #1
 207 000a FFF7FEFF 		bl	Ping
  87:.\test.c      ****     
  88:.\test.c      ****     (void)status;
  89:.\test.c      **** }
 208              		.loc 1 89 0
 209 000e 07F10807 		add	r7, r7, #8
 210 0012 BD46     		mov	sp, r7
 211 0014 80BD     		pop	{r7, pc}
 212              		.cfi_endproc
 213              	.LFE32:
 214              		.size	TST_SendMotorMsg, .-TST_SendMotorMsg
 215 0016 00BF     		.section	.text.TST_Init,"ax",%progbits
 216              		.align	2
 217              		.global	TST_Init
 218              		.thumb
 219              		.thumb_func
 220              		.type	TST_Init, %function
 221              	TST_Init:
 222              	.LFB33:
  90:.\test.c      **** 
  91:.\test.c      **** /*******************************************************/
  92:.\test.c      **** void TST_Init(void)
  93:.\test.c      **** {
 223              		.loc 1 93 0
 224              		.cfi_startproc
 225              		@ args = 0, pretend = 0, frame = 0
 226              		@ frame_needed = 1, uses_anonymous_args = 0
 227 0000 80B5     		push	{r7, lr}
 228              	.LCFI10:
 229              		.cfi_def_cfa_offset 8
 230 0002 82B0     		sub	sp, sp, #8
 231              	.LCFI11:
 232              		.cfi_def_cfa_offset 16
 233 0004 02AF     		add	r7, sp, #8
 234              		.cfi_offset 14, -4
 235              		.cfi_offset 7, -8
 236              	.LCFI12:
 237              		.cfi_def_cfa 7, 8
  94:.\test.c      ****     /* clear test msg buffer */
  95:.\test.c      ****     memset(TST_MsgBuffer, 0x00, TST_MSG_BUFFER_SIZE);
 238              		.loc 1 95 0
 239 0006 40F20000 		movw	r0, #:lower16:TST_MsgBuffer
ARM GAS  C:\Users\Martin\AppData\Local\Temp\cc1DxECm.s 			page 7


 240 000a C0F20000 		movt	r0, #:upper16:TST_MsgBuffer
 241 000e 4FF00001 		mov	r1, #0
 242 0012 4FF0FF02 		mov	r2, #255
 243 0016 FFF7FEFF 		bl	memset
  96:.\test.c      ****     
  97:.\test.c      **** 
  98:.\test.c      **** #ifdef TEST_BLINK
  99:.\test.c      **** 	TMR_SetTimer(TIMER_0, TIMER_1SEC, TST_Blink, TIMER_MODE_CONTINUOUS, TIMER_ENABLED);
 244              		.loc 1 99 0
 245 001a 4FF00103 		mov	r3, #1
 246 001e 0093     		str	r3, [sp, #0]
 247 0020 4FF00000 		mov	r0, #0
 248 0024 44F24021 		movw	r1, #:lower16:1000000
 249 0028 C0F20F01 		movt	r1, #:upper16:1000000
 250 002c 40F20002 		movw	r2, #:lower16:TST_Blink
 251 0030 C0F20002 		movt	r2, #:upper16:TST_Blink
 252 0034 4FF00203 		mov	r3, #2
 253 0038 FFF7FEFF 		bl	TMR_SetTimer
 100:.\test.c      **** #endif	
 101:.\test.c      **** 	
 102:.\test.c      **** #ifdef TEST_UART
 103:.\test.c      **** 	UART_TEST_Start();
 254              		.loc 1 103 0
 255 003c FFF7FEFF 		bl	UART_TEST_Start
 104:.\test.c      **** 	//UART_TEST_EnableRxInt();
 105:.\test.c      **** 	//UART_TEST_EnableTxInt();
 106:.\test.c      **** 	//TMR_SetTimer(TIMER_1, TIMER_1SEC, TST_SendTestMsg, TIMER_MODE_CONTINUOUS, TIMER_ENABLED);
 107:.\test.c      ****     TMR_SetTimer(TIMER_2, TIMER_1SEC, TST_SendMotorMsg, TIMER_MODE_CONTINUOUS, TIMER_ENABLED);
 256              		.loc 1 107 0
 257 0040 4FF00103 		mov	r3, #1
 258 0044 0093     		str	r3, [sp, #0]
 259 0046 4FF00200 		mov	r0, #2
 260 004a 44F24021 		movw	r1, #:lower16:1000000
 261 004e C0F20F01 		movt	r1, #:upper16:1000000
 262 0052 40F20002 		movw	r2, #:lower16:TST_SendMotorMsg
 263 0056 C0F20002 		movt	r2, #:upper16:TST_SendMotorMsg
 264 005a 4FF00203 		mov	r3, #2
 265 005e FFF7FEFF 		bl	TMR_SetTimer
 108:.\test.c      **** #endif
 109:.\test.c      **** }
 266              		.loc 1 109 0
 267 0062 BD46     		mov	sp, r7
 268 0064 80BD     		pop	{r7, pc}
 269              		.cfi_endproc
 270              	.LFE33:
 271              		.size	TST_Init, .-TST_Init
 272 0066 00BF     		.section	.text.TST_HandleTask,"ax",%progbits
 273              		.align	2
 274              		.global	TST_HandleTask
 275              		.thumb
 276              		.thumb_func
 277              		.type	TST_HandleTask, %function
 278              	TST_HandleTask:
 279              	.LFB34:
 110:.\test.c      **** 
 111:.\test.c      **** /*******************************************************/
 112:.\test.c      **** void TST_HandleTask(void)
ARM GAS  C:\Users\Martin\AppData\Local\Temp\cc1DxECm.s 			page 8


 113:.\test.c      **** {
 280              		.loc 1 113 0
 281              		.cfi_startproc
 282              		@ args = 0, pretend = 0, frame = 0
 283              		@ frame_needed = 1, uses_anonymous_args = 0
 284 0000 80B5     		push	{r7, lr}
 285              	.LCFI13:
 286              		.cfi_def_cfa_offset 8
 287 0002 00AF     		add	r7, sp, #0
 288              		.cfi_offset 14, -4
 289              		.cfi_offset 7, -8
 290              	.LCFI14:
 291              		.cfi_def_cfa_register 7
 114:.\test.c      ****     /* analyze received messages */
 115:.\test.c      ****     TST_GetMsg();
 292              		.loc 1 115 0
 293 0004 FFF7FEFF 		bl	TST_GetMsg
 116:.\test.c      **** }
 294              		.loc 1 116 0
 295 0008 80BD     		pop	{r7, pc}
 296              		.cfi_endproc
 297              	.LFE34:
 298              		.size	TST_HandleTask, .-TST_HandleTask
 299 000a 00BF     		.bss
 300              	LedVal.2937:
 301 00ff 00       		.space	1
 302              		.text
 303              	.Letext0: