ARM GAS  C:\Users\Martin\AppData\Local\Temp\ccdNiQs0.s 			page 1


   1              		.syntax unified
   2              		.cpu cortex-m3
   3              		.fpu softvfp
   4              		.eabi_attribute 20, 1
   5              		.eabi_attribute 21, 1
   6              		.eabi_attribute 23, 3
   7              		.eabi_attribute 24, 1
   8              		.eabi_attribute 25, 1
   9              		.eabi_attribute 26, 1
  10              		.eabi_attribute 30, 6
  11              		.eabi_attribute 18, 4
  12              		.thumb
  13              		.file	"main.c"
  20 0000 7E000000 		.text
  20      02006000 
  20      00000201 
  20      FB0E0D00 
  20      01010101 
  21              	.Ltext0:
  22              		.cfi_sections	.debug_frame
  23              		.section	.text.main,"ax",%progbits
  24              		.align	2
  25              		.global	main
  26              		.thumb
  27              		.thumb_func
  28              		.type	main, %function
  29              	main:
  30              	.LFB29:
  31              		.file 1 ".\\main.c"
   1:.\main.c      **** /* Copyright (C) <2014> <Martin Schalk>
   2:.\main.c      ****  * All rights reserved.
   3:.\main.c      ****  *
   4:.\main.c      ****  * This software may be modified and distributed under the terms
   5:.\main.c      ****  * of the BSD license.  See the LICENSE file for details.
   6:.\main.c      ****  */
   7:.\main.c      **** 
   8:.\main.c      **** #include <project.h>
   9:.\main.c      **** #include "servo_cds5500.h"
  10:.\main.c      **** #include "hal.h"
  11:.\main.c      **** #include "bpl.h"
  12:.\main.c      **** #include "tmr.h"
  13:.\main.c      **** #include "test.h"
  14:.\main.c      **** 
  15:.\main.c      **** #include "global.h"
  16:.\main.c      **** 
  17:.\main.c      **** int main()
  18:.\main.c      **** {
  32              		.loc 1 18 0
  33              		.cfi_startproc
  34              		@ args = 0, pretend = 0, frame = 8
  35              		@ frame_needed = 1, uses_anonymous_args = 0
ARM GAS  C:\Users\Martin\AppData\Local\Temp\ccdNiQs0.s 			page 2


  36 0000 80B5     		push	{r7, lr}
  37              	.LCFI0:
  38              		.cfi_def_cfa_offset 8
  39 0002 82B0     		sub	sp, sp, #8
  40              	.LCFI1:
  41              		.cfi_def_cfa_offset 16
  42 0004 00AF     		add	r7, sp, #0
  43              		.cfi_offset 14, -4
  44              		.cfi_offset 7, -8
  45              	.LCFI2:
  46              		.cfi_def_cfa_register 7
  19:.\main.c      **** 	STATUS status;
  20:.\main.c      **** 	
  21:.\main.c      **** 	/* Initialization */
  22:.\main.c      **** 	/* -------------- */
  23:.\main.c      **** 	CyGlobalIntEnable; /* Enable interrupts */
  47              		.loc 1 23 0
  48              	@ 23 ".\main.c" 1
  49 0006 62B6     		CPSIE   i
  50              	@ 0 "" 2
  24:.\main.c      **** 	status = HAL_Init();
  51              		.loc 1 24 0
  52              		.thumb
  53 0008 FFF7FEFF 		bl	HAL_Init
  54 000c 0346     		mov	r3, r0
  55 000e FB71     		strb	r3, [r7, #7]
  25:.\main.c      **** 	status = TMR_Init();
  56              		.loc 1 25 0
  57 0010 FFF7FEFF 		bl	TMR_Init
  58 0014 0346     		mov	r3, r0
  59 0016 FB71     		strb	r3, [r7, #7]
  26:.\main.c      **** #ifdef TEST_UART
  27:.\main.c      **** 	TST_Init();
  60              		.loc 1 27 0
  61 0018 FFF7FEFF 		bl	TST_Init
  62              	.L2:
  28:.\main.c      **** #endif
  29:.\main.c      **** 
  30:.\main.c      ****     for(;;)
  31:.\main.c      ****     {
  32:.\main.c      ****         /* Bus handler */
  33:.\main.c      **** 		BPL_HandleTask();
  63              		.loc 1 33 0
  64 001c FFF7FEFF 		bl	BPL_HandleTask
  34:.\main.c      ****         
  35:.\main.c      ****         /* Bus abstraction layer handler (not yet containing any functionality) */
  36:.\main.c      ****         BAL_Handler();
  65              		.loc 1 36 0
  66 0020 FFF7FEFF 		bl	BAL_Handler
  37:.\main.c      **** 		
  38:.\main.c      **** 		/* Timer Handler */
  39:.\main.c      **** 		TMR_HandleTask();
  67              		.loc 1 39 0
  68 0024 FFF7FEFF 		bl	TMR_HandleTask
  40:.\main.c      **** 
  41:.\main.c      **** #ifdef TEST_UART        
  42:.\main.c      ****         /* Test Handler */
ARM GAS  C:\Users\Martin\AppData\Local\Temp\ccdNiQs0.s 			page 3


  43:.\main.c      ****         TST_HandleTask();
  69              		.loc 1 43 0
  70 0028 FFF7FEFF 		bl	TST_HandleTask
  44:.\main.c      **** #endif
  45:.\main.c      ****     }
  71              		.loc 1 45 0
  72 002c F6E7     		b	.L2
  73              		.cfi_endproc
  74              	.LFE29:
  75              		.size	main, .-main
  76 002e 00BF     		.text
  77              	.Letext0: