ARM GAS  C:\Users\Martin\AppData\Local\Temp\cceVIziY.s 			page 1


   1              		.syntax unified
   2              		.cpu cortex-m3
   3              		.fpu softvfp
   4              		.eabi_attribute 20, 1
   5              		.eabi_attribute 21, 1
   6              		.eabi_attribute 23, 3
   7              		.eabi_attribute 24, 1
   8              		.eabi_attribute 25, 1
   9              		.eabi_attribute 26, 1
  10              		.eabi_attribute 30, 6
  11              		.eabi_attribute 18, 4
  12              		.thumb
  13              		.file	"servo_cds5500.c"
  20 0000 E0000000 		.text
  20      02007F00 
  20      00000201 
  20      FB0E0D00 
  20      01010101 
  21              	.Ltext0:
  22              		.cfi_sections	.debug_frame
  23              		.section	.text.Checksum,"ax",%progbits
  24              		.align	2
  25              		.thumb
  26              		.thumb_func
  27              		.type	Checksum, %function
  28              	Checksum:
  29              	.LFB29:
  30              		.file 1 ".\\servo_cds5500.c"
   1:.\servo_cds5500.c **** /* Copyright (C) <2014> <Martin Schalk>
   2:.\servo_cds5500.c ****  * All rights reserved.
   3:.\servo_cds5500.c ****  *
   4:.\servo_cds5500.c ****  * This software may be modified and distributed under the terms
   5:.\servo_cds5500.c ****  * of the BSD license.  See the LICENSE file for details.
   6:.\servo_cds5500.c ****  */
   7:.\servo_cds5500.c **** 
   8:.\servo_cds5500.c **** #include <project.h>
   9:.\servo_cds5500.c **** #include "servo_cds5500.h"
  10:.\servo_cds5500.c **** #include <stdio.h>
  11:.\servo_cds5500.c **** #include "bal.h"
  12:.\servo_cds5500.c **** 
  13:.\servo_cds5500.c **** 
  14:.\servo_cds5500.c **** /*------------------------ LOCAL FUNCTIONS -------------------------------*/
  15:.\servo_cds5500.c **** 
  16:.\servo_cds5500.c **** /**************************************************************************/
  17:.\servo_cds5500.c **** static uint8 Checksum(CDS5500_MSG* msg)
  18:.\servo_cds5500.c **** {
  31              		.loc 1 18 0
  32              		.cfi_startproc
  33              		@ args = 0, pretend = 0, frame = 16
  34              		@ frame_needed = 1, uses_anonymous_args = 0
  35              		@ link register save eliminated.
ARM GAS  C:\Users\Martin\AppData\Local\Temp\cceVIziY.s 			page 2


  36 0000 80B4     		push	{r7}
  37              	.LCFI0:
  38              		.cfi_def_cfa_offset 4
  39 0002 85B0     		sub	sp, sp, #20
  40              	.LCFI1:
  41              		.cfi_def_cfa_offset 24
  42 0004 00AF     		add	r7, sp, #0
  43              		.cfi_offset 7, -4
  44              	.LCFI2:
  45              		.cfi_def_cfa_register 7
  46 0006 7860     		str	r0, [r7, #4]
  19:.\servo_cds5500.c **** 	uint8 checksum = 0;
  47              		.loc 1 19 0
  48 0008 4FF00003 		mov	r3, #0
  49 000c BB73     		strb	r3, [r7, #14]
  20:.\servo_cds5500.c ****     uint8 i;
  21:.\servo_cds5500.c ****         
  22:.\servo_cds5500.c ****     /* add first two bytes of motor message */    
  23:.\servo_cds5500.c ****     checksum = msg->motorId + msg->length;
  50              		.loc 1 23 0
  51 000e 7B68     		ldr	r3, [r7, #4]
  52 0010 9A78     		ldrb	r2, [r3, #2]	@ zero_extendqisi2
  53 0012 7B68     		ldr	r3, [r7, #4]
  54 0014 DB78     		ldrb	r3, [r3, #3]	@ zero_extendqisi2
  55 0016 1344     		add	r3, r2, r3
  56 0018 BB73     		strb	r3, [r7, #14]
  24:.\servo_cds5500.c ****     
  25:.\servo_cds5500.c ****     /* add rest bytes of motor message */   
  26:.\servo_cds5500.c ****     for (i=0; i<msg->length-1; i++)
  57              		.loc 1 26 0
  58 001a 4FF00003 		mov	r3, #0
  59 001e FB73     		strb	r3, [r7, #15]
  60 0020 0AE0     		b	.L2
  61              	.L3:
  27:.\servo_cds5500.c ****         checksum += msg->instruction[i];
  62              		.loc 1 27 0
  63 0022 FA7B     		ldrb	r2, [r7, #15]	@ zero_extendqisi2
  64 0024 7B68     		ldr	r3, [r7, #4]
  65 0026 1344     		add	r3, r2, r3
  66 0028 1A79     		ldrb	r2, [r3, #4]	@ zero_extendqisi2
  67 002a BB7B     		ldrb	r3, [r7, #14]
  68 002c 1344     		add	r3, r2, r3
  69 002e BB73     		strb	r3, [r7, #14]
  70              		.loc 1 26 0
  71 0030 FB7B     		ldrb	r3, [r7, #15]
  72 0032 03F10103 		add	r3, r3, #1
  73 0036 FB73     		strb	r3, [r7, #15]
  74              	.L2:
  75 0038 FA7B     		ldrb	r2, [r7, #15]	@ zero_extendqisi2
  76 003a 7B68     		ldr	r3, [r7, #4]
  77 003c DB78     		ldrb	r3, [r3, #3]	@ zero_extendqisi2
  78 003e 03F1FF33 		add	r3, r3, #-1
  79 0042 9A42     		cmp	r2, r3
  80 0044 EDDB     		blt	.L3
  28:.\servo_cds5500.c ****         
  29:.\servo_cds5500.c ****     /* invert checksum */    
  30:.\servo_cds5500.c ****     checksum = ~checksum & 0xFF; //    printf((~(ID + (messageLength) + INST_WRITE + P_GOAL_POSITIO
ARM GAS  C:\Users\Martin\AppData\Local\Temp\cceVIziY.s 			page 3


  81              		.loc 1 30 0
  82 0046 BB7B     		ldrb	r3, [r7, #14]
  83 0048 6FEA0303 		mvn	r3, r3
  84 004c BB73     		strb	r3, [r7, #14]
  31:.\servo_cds5500.c **** 		
  32:.\servo_cds5500.c **** 	return checksum;
  85              		.loc 1 32 0
  86 004e BB7B     		ldrb	r3, [r7, #14]	@ zero_extendqisi2
  33:.\servo_cds5500.c **** }
  87              		.loc 1 33 0
  88 0050 1846     		mov	r0, r3
  89 0052 07F11407 		add	r7, r7, #20
  90 0056 BD46     		mov	sp, r7
  91 0058 80BC     		pop	{r7}
  92 005a 7047     		bx	lr
  93              		.cfi_endproc
  94              	.LFE29:
  95              		.size	Checksum, .-Checksum
  96              		.section	.text.Ping,"ax",%progbits
  97              		.align	2
  98              		.global	Ping
  99              		.thumb
 100              		.thumb_func
 101              		.type	Ping, %function
 102              	Ping:
 103              	.LFB30:
  34:.\servo_cds5500.c **** 
  35:.\servo_cds5500.c **** /**************************************************************************
  36:.\servo_cds5500.c **** Does not command any operations. Used for requesting a status 
  37:.\servo_cds5500.c **** packet or to check the existence of a CDS55xx servo with a specific 
  38:.\servo_cds5500.c **** ID. 
  39:.\servo_cds5500.c **** **************************************************************************/
  40:.\servo_cds5500.c **** void Ping(uint8 id)
  41:.\servo_cds5500.c **** {
 104              		.loc 1 41 0
 105              		.cfi_startproc
 106              		@ args = 0, pretend = 0, frame = 24
 107              		@ frame_needed = 1, uses_anonymous_args = 0
 108 0000 80B5     		push	{r7, lr}
 109              	.LCFI3:
 110              		.cfi_def_cfa_offset 8
 111 0002 86B0     		sub	sp, sp, #24
 112              	.LCFI4:
 113              		.cfi_def_cfa_offset 32
 114 0004 00AF     		add	r7, sp, #0
 115              		.cfi_offset 14, -4
 116              		.cfi_offset 7, -8
 117              	.LCFI5:
 118              		.cfi_def_cfa_register 7
 119 0006 0346     		mov	r3, r0
 120 0008 FB71     		strb	r3, [r7, #7]
  42:.\servo_cds5500.c ****     STATUS status;
  43:.\servo_cds5500.c **** 
  44:.\servo_cds5500.c ****     CDS5500_MSG msg = { START_BYTE_0_VALUE, 
  45:.\servo_cds5500.c ****                         START_BYTE_1_VALUE, 
  46:.\servo_cds5500.c ****                         id,
  47:.\servo_cds5500.c ****                         INST_PING_LENGTH,
ARM GAS  C:\Users\Martin\AppData\Local\Temp\cceVIziY.s 			page 4


  48:.\servo_cds5500.c ****                         {INST_PING},
  49:.\servo_cds5500.c ****                         0x00,
  50:.\servo_cds5500.c ****                       };
 121              		.loc 1 50 0
 122 000a 07F10803 		add	r3, r7, #8
 123 000e 4FF00002 		mov	r2, #0
 124 0012 1A60     		str	r2, [r3, #0]
 125 0014 03F10403 		add	r3, r3, #4
 126 0018 4FF00002 		mov	r2, #0
 127 001c 1A60     		str	r2, [r3, #0]
 128 001e 03F10403 		add	r3, r3, #4
 129 0022 4FF00002 		mov	r2, #0
 130 0026 1A60     		str	r2, [r3, #0]
 131 0028 03F10403 		add	r3, r3, #4
 132 002c 4FF00002 		mov	r2, #0
 133 0030 1A70     		strb	r2, [r3, #0]
 134 0032 03F10103 		add	r3, r3, #1
 135 0036 4FF0FF33 		mov	r3, #-1
 136 003a 3B72     		strb	r3, [r7, #8]
 137 003c 4FF0FF33 		mov	r3, #-1
 138 0040 7B72     		strb	r3, [r7, #9]
 139 0042 FB79     		ldrb	r3, [r7, #7]
 140 0044 BB72     		strb	r3, [r7, #10]
 141 0046 4FF00203 		mov	r3, #2
 142 004a FB72     		strb	r3, [r7, #11]
 143 004c 4FF00103 		mov	r3, #1
 144 0050 3B73     		strb	r3, [r7, #12]
  51:.\servo_cds5500.c ****                       
  52:.\servo_cds5500.c ****     msg.checksum = Checksum(&msg);       
 145              		.loc 1 52 0
 146 0052 07F10803 		add	r3, r7, #8
 147 0056 1846     		mov	r0, r3
 148 0058 FFF7FEFF 		bl	Checksum
 149 005c 0346     		mov	r3, r0
 150 005e 3B75     		strb	r3, [r7, #20]
  53:.\servo_cds5500.c ****     
  54:.\servo_cds5500.c ****     /* 0XFF 0XFF 0X01 0X02 0X01 0XFB */                  
  55:.\servo_cds5500.c ****     status = BAL_SendServoMsg(&msg);
 151              		.loc 1 55 0
 152 0060 07F10803 		add	r3, r7, #8
 153 0064 1846     		mov	r0, r3
 154 0066 FFF7FEFF 		bl	BAL_SendServoMsg
 155 006a 0346     		mov	r3, r0
 156 006c FB75     		strb	r3, [r7, #23]
  56:.\servo_cds5500.c ****     (void)status;
  57:.\servo_cds5500.c **** }
 157              		.loc 1 57 0
 158 006e 07F11807 		add	r7, r7, #24
 159 0072 BD46     		mov	sp, r7
 160 0074 80BD     		pop	{r7, pc}
 161              		.cfi_endproc
 162              	.LFE30:
 163              		.size	Ping, .-Ping
 164 0076 00BF     		.section	.text.CheckResponse,"ax",%progbits
 165              		.align	2
 166              		.global	CheckResponse
 167              		.thumb
ARM GAS  C:\Users\Martin\AppData\Local\Temp\cceVIziY.s 			page 5


 168              		.thumb_func
 169              		.type	CheckResponse, %function
 170              	CheckResponse:
 171              	.LFB31:
  58:.\servo_cds5500.c **** 
  59:.\servo_cds5500.c **** /**************************************************************************
  60:.\servo_cds5500.c **** CheckResponse
  61:.\servo_cds5500.c **** //http://www.dfrobot.com/image/data/SER0026/CDS55XX_Robot_Servo_User_Manual_EN.pdf
  62:.\servo_cds5500.c **** HEADER ID LENGTH ERROR PARAMETER CHECK SUM
  63:.\servo_cds5500.c **** **************************************************************************/
  64:.\servo_cds5500.c **** STATUS CheckResponse(CDS5500_MSG* response)
  65:.\servo_cds5500.c **** {
 172              		.loc 1 65 0
 173              		.cfi_startproc
 174              		@ args = 0, pretend = 0, frame = 16
 175              		@ frame_needed = 1, uses_anonymous_args = 0
 176 0000 80B5     		push	{r7, lr}
 177              	.LCFI6:
 178              		.cfi_def_cfa_offset 8
 179 0002 84B0     		sub	sp, sp, #16
 180              	.LCFI7:
 181              		.cfi_def_cfa_offset 24
 182 0004 00AF     		add	r7, sp, #0
 183              		.cfi_offset 14, -4
 184              		.cfi_offset 7, -8
 185              	.LCFI8:
 186              		.cfi_def_cfa_register 7
 187 0006 7860     		str	r0, [r7, #4]
  66:.\servo_cds5500.c ****     STATUS status=SUCCESS;
 188              		.loc 1 66 0
 189 0008 4FF00003 		mov	r3, #0
 190 000c 7B73     		strb	r3, [r7, #13]
  67:.\servo_cds5500.c ****     uint8 msgCkecksum = response->checksum;
 191              		.loc 1 67 0
 192 000e 7B68     		ldr	r3, [r7, #4]
 193 0010 1B7B     		ldrb	r3, [r3, #12]
 194 0012 BB73     		strb	r3, [r7, #14]
  68:.\servo_cds5500.c ****     uint8 calcChecksum = Checksum(response); 
 195              		.loc 1 68 0
 196 0014 7868     		ldr	r0, [r7, #4]
 197 0016 FFF7FEFF 		bl	Checksum
 198 001a 0346     		mov	r3, r0
 199 001c FB73     		strb	r3, [r7, #15]
  69:.\servo_cds5500.c ****     
  70:.\servo_cds5500.c ****     /* compare calculated with received checksum */
  71:.\servo_cds5500.c ****     if (msgCkecksum != calcChecksum)
 200              		.loc 1 71 0
 201 001e BA7B     		ldrb	r2, [r7, #14]	@ zero_extendqisi2
 202 0020 FB7B     		ldrb	r3, [r7, #15]	@ zero_extendqisi2
 203 0022 9A42     		cmp	r2, r3
 204 0024 02D0     		beq	.L8
  72:.\servo_cds5500.c ****         return ERROR_RECEIVED_CHECKSUM;
 205              		.loc 1 72 0
 206 0026 4FF0FE03 		mov	r3, #254
 207 002a 09E0     		b	.L9
 208              	.L8:
  73:.\servo_cds5500.c ****     
ARM GAS  C:\Users\Martin\AppData\Local\Temp\cceVIziY.s 			page 6


  74:.\servo_cds5500.c ****     /* check if error bits are set */
  75:.\servo_cds5500.c ****     if (response->instruction[0] & CDS5500_ERROR_INSTRUCTION_BIT) 
 209              		.loc 1 75 0
 210 002c 7B68     		ldr	r3, [r7, #4]
 211 002e 1B79     		ldrb	r3, [r3, #4]	@ zero_extendqisi2
 212 0030 03F04003 		and	r3, r3, #64
 213 0034 002B     		cmp	r3, #0
 214 0036 02D0     		beq	.L10
  76:.\servo_cds5500.c ****         status = ERROR_INSTRUCTION;
 215              		.loc 1 76 0
 216 0038 4FF0FF33 		mov	r3, #-1
 217 003c 7B73     		strb	r3, [r7, #13]
 218              	.L10:
  77:.\servo_cds5500.c ****         
  78:.\servo_cds5500.c ****     return status;
 219              		.loc 1 78 0
 220 003e 7B7B     		ldrb	r3, [r7, #13]	@ zero_extendqisi2
 221              	.L9:
  79:.\servo_cds5500.c **** }
 222              		.loc 1 79 0
 223 0040 1846     		mov	r0, r3
 224 0042 07F11007 		add	r7, r7, #16
 225 0046 BD46     		mov	sp, r7
 226 0048 80BD     		pop	{r7, pc}
 227              		.cfi_endproc
 228              	.LFE31:
 229              		.size	CheckResponse, .-CheckResponse
 230 004a 00BF     		.section	.text.WritePos,"ax",%progbits
 231              		.align	2
 232              		.global	WritePos
 233              		.thumb
 234              		.thumb_func
 235              		.type	WritePos, %function
 236              	WritePos:
 237              	.LFB32:
  80:.\servo_cds5500.c **** 
  81:.\servo_cds5500.c **** /**************************************************************************
  82:.\servo_cds5500.c **** **************************************************************************/
  83:.\servo_cds5500.c **** void WritePos(int id, int position, int velocity)
  84:.\servo_cds5500.c **** {
 238              		.loc 1 84 0
 239              		.cfi_startproc
 240              		@ args = 0, pretend = 0, frame = 24
 241              		@ frame_needed = 1, uses_anonymous_args = 0
 242              		@ link register save eliminated.
 243 0000 80B4     		push	{r7}
 244              	.LCFI9:
 245              		.cfi_def_cfa_offset 4
 246 0002 87B0     		sub	sp, sp, #28
 247              	.LCFI10:
 248              		.cfi_def_cfa_offset 32
 249 0004 00AF     		add	r7, sp, #0
 250              		.cfi_offset 7, -4
 251              	.LCFI11:
 252              		.cfi_def_cfa_register 7
 253 0006 F860     		str	r0, [r7, #12]
 254 0008 B960     		str	r1, [r7, #8]
ARM GAS  C:\Users\Martin\AppData\Local\Temp\cceVIziY.s 			page 7


 255 000a 7A60     		str	r2, [r7, #4]
  85:.\servo_cds5500.c **** 	int messageLength = 7;
 256              		.loc 1 85 0
 257 000c 4FF00703 		mov	r3, #7
 258 0010 7B61     		str	r3, [r7, #20]
  86:.\servo_cds5500.c ****     (void)messageLength;
  87:.\servo_cds5500.c **** 
  88:.\servo_cds5500.c **** 	/*
  89:.\servo_cds5500.c **** 	printf(startByte0);              // send some data
  90:.\servo_cds5500.c **** 	printf(startByte1);
  91:.\servo_cds5500.c **** 	printf(id);
  92:.\servo_cds5500.c **** 	printf(messageLength);
  93:.\servo_cds5500.c **** 	printf(INST_WRITE);
  94:.\servo_cds5500.c **** 	printf(P_GOAL_POSITION_L);
  95:.\servo_cds5500.c **** 	printf(pos);
  96:.\servo_cds5500.c **** 	printf(pos2);
  97:.\servo_cds5500.c **** 	printf(vel);
  98:.\servo_cds5500.c **** 	printf(vel2);
  99:.\servo_cds5500.c **** 	printf((~(ID + (messageLength) + INST_WRITE + P_GOAL_POSITION_L + pos + pos2 + vel + vel2))&0xFF);
 100:.\servo_cds5500.c **** 	*/
 101:.\servo_cds5500.c **** }
 259              		.loc 1 101 0
 260 0012 07F11C07 		add	r7, r7, #28
 261 0016 BD46     		mov	sp, r7
 262 0018 80BC     		pop	{r7}
 263 001a 7047     		bx	lr
 264              		.cfi_endproc
 265              	.LFE32:
 266              		.size	WritePos, .-WritePos
 267              		.text
 268              	.Letext0: