ARM GAS  C:\Users\Martin\AppData\Local\Temp\cciblsB9.s 			page 1


   1              		.syntax unified
   2              		.cpu cortex-m3
   3              		.fpu softvfp
   4              		.eabi_attribute 20, 1
   5              		.eabi_attribute 21, 1
   6              		.eabi_attribute 23, 3
   7              		.eabi_attribute 24, 1
   8              		.eabi_attribute 25, 1
   9              		.eabi_attribute 26, 1
  10              		.eabi_attribute 30, 6
  11              		.eabi_attribute 18, 4
  12              		.thumb
  13              		.file	"test.c"
  20 0000 B1000000 		.text
  20      02006100 
  20      00000201 
  20      FB0E0D00 
  20      01010101 
  21              	.Ltext0:
  22              		.cfi_sections	.debug_frame
  23              		.section	.text.TST_SendTestMsg,"ax",%progbits
  24              		.align	2
  25              		.thumb
  26              		.thumb_func
  27              		.type	TST_SendTestMsg, %function
  28              	TST_SendTestMsg:
  29              	.LFB29:
  30              		.file 1 ".\\test.c"
   1:.\test.c      **** /* Copyright (C) <2014> <Martin Schalk>
   2:.\test.c      ****  * All rights reserved.
   3:.\test.c      ****  *
   4:.\test.c      ****  * This software may be modified and distributed under the terms
   5:.\test.c      ****  * of the BSD license.  See the LICENSE file for details.
   6:.\test.c      ****  */
   7:.\test.c      **** 
   8:.\test.c      **** #include "global.h"
   9:.\test.c      **** #include "types.h"
  10:.\test.c      **** #include "test.h"
  11:.\test.c      **** #include "tmr.h"
  12:.\test.c      **** #include "hal.h"
  13:.\test.c      **** #include "bal.h"
  14:.\test.c      **** 
  15:.\test.c      **** /*
  16:.\test.c      **** -------------------------------------------
  17:.\test.c      **** | id0 | id1 | length | b0 | b1 | ... | bn |
  18:.\test.c      **** -------------------------------------------
  19:.\test.c      **** */
  20:.\test.c      **** 
  21:.\test.c      **** 
  22:.\test.c      **** /*******************************************************/
  23:.\test.c      **** static void TST_SendTestMsg(void)
ARM GAS  C:\Users\Martin\AppData\Local\Temp\cciblsB9.s 			page 2


  24:.\test.c      **** {
  31              		.loc 1 24 0
  32              		.cfi_startproc
  33              		@ args = 0, pretend = 0, frame = 0
  34              		@ frame_needed = 1, uses_anonymous_args = 0
  35              		@ link register save eliminated.
  36 0000 80B4     		push	{r7}
  37              	.LCFI0:
  38              		.cfi_def_cfa_offset 4
  39 0002 00AF     		add	r7, sp, #0
  40              		.cfi_offset 7, -4
  41              	.LCFI1:
  42              		.cfi_def_cfa_register 7
  25:.\test.c      **** //#define UART_TEST_MSG
  26:.\test.c      **** //#define BAL_TEST_MSG
  27:.\test.c      **** 
  28:.\test.c      **** #if defined(UART_TEST_MSG)
  29:.\test.c      ****     static uint8 TestMsg[] = {0xFF, 0x01, 5, 2, 3, 0, 4, 5};
  30:.\test.c      ****     
  31:.\test.c      ****     UART_TEST_PutArray(TestMsg, sizeof(TestMsg));
  32:.\test.c      **** #elif defined(BAL_TEST_MSG)
  33:.\test.c      ****     STATUS status; 
  34:.\test.c      ****     uint8 msgdata[4] = {1, 2, 3, 4};
  35:.\test.c      ****     
  36:.\test.c      ****     BAL_MSG testmsg = {0x0001, 4, msgdata};
  37:.\test.c      ****     status = BAL_SendMsg(&testmsg);
  38:.\test.c      ****     (void)status;
  39:.\test.c      **** #endif
  40:.\test.c      **** }
  43              		.loc 1 40 0
  44 0004 BD46     		mov	sp, r7
  45 0006 80BC     		pop	{r7}
  46 0008 7047     		bx	lr
  47              		.cfi_endproc
  48              	.LFE29:
  49              		.size	TST_SendTestMsg, .-TST_SendTestMsg
  50 000a 00BF     		.section	.text.TST_Blink,"ax",%progbits
  51              		.align	2
  52              		.thumb
  53              		.thumb_func
  54              		.type	TST_Blink, %function
  55              	TST_Blink:
  56              	.LFB30:
  41:.\test.c      **** 
  42:.\test.c      **** /*******************************************************/
  43:.\test.c      **** static void TST_Blink(void)
  44:.\test.c      **** {
  57              		.loc 1 44 0
  58              		.cfi_startproc
  59              		@ args = 0, pretend = 0, frame = 0
  60              		@ frame_needed = 1, uses_anonymous_args = 0
  61 0000 80B5     		push	{r7, lr}
  62              	.LCFI2:
  63              		.cfi_def_cfa_offset 8
  64 0002 00AF     		add	r7, sp, #0
  65              		.cfi_offset 14, -4
  66              		.cfi_offset 7, -8
ARM GAS  C:\Users\Martin\AppData\Local\Temp\cciblsB9.s 			page 3


  67              	.LCFI3:
  68              		.cfi_def_cfa_register 7
  45:.\test.c      ****     static uint8 LedVal=0x00;
  46:.\test.c      **** 	LedVal ^= 0x01;
  69              		.loc 1 46 0
  70 0004 40F20003 		movw	r3, #:lower16:LedVal.2876
  71 0008 C0F20003 		movt	r3, #:upper16:LedVal.2876
  72 000c 1B78     		ldrb	r3, [r3, #0]	@ zero_extendqisi2
  73 000e 83F00103 		eor	r3, r3, #1
  74 0012 DAB2     		uxtb	r2, r3
  75 0014 40F20003 		movw	r3, #:lower16:LedVal.2876
  76 0018 C0F20003 		movt	r3, #:upper16:LedVal.2876
  77 001c 1A70     		strb	r2, [r3, #0]
  47:.\test.c      **** 	DEBUG_LED_1_Write(LedVal);
  78              		.loc 1 47 0
  79 001e 40F20003 		movw	r3, #:lower16:LedVal.2876
  80 0022 C0F20003 		movt	r3, #:upper16:LedVal.2876
  81 0026 1B78     		ldrb	r3, [r3, #0]	@ zero_extendqisi2
  82 0028 1846     		mov	r0, r3
  83 002a FFF7FEFF 		bl	DEBUG_LED_1_Write
  48:.\test.c      **** }
  84              		.loc 1 48 0
  85 002e 80BD     		pop	{r7, pc}
  86              		.cfi_endproc
  87              	.LFE30:
  88              		.size	TST_Blink, .-TST_Blink
  89              		.section	.text.TST_SendMotorMsg,"ax",%progbits
  90              		.align	2
  91              		.thumb
  92              		.thumb_func
  93              		.type	TST_SendMotorMsg, %function
  94              	TST_SendMotorMsg:
  95              	.LFB31:
  49:.\test.c      **** 
  50:.\test.c      **** /*******************************************************/
  51:.\test.c      **** static void TST_SendMotorMsg(void)
  52:.\test.c      **** {
  96              		.loc 1 52 0
  97              		.cfi_startproc
  98              		@ args = 0, pretend = 0, frame = 8
  99              		@ frame_needed = 1, uses_anonymous_args = 0
 100 0000 80B5     		push	{r7, lr}
 101              	.LCFI4:
 102              		.cfi_def_cfa_offset 8
 103 0002 82B0     		sub	sp, sp, #8
 104              	.LCFI5:
 105              		.cfi_def_cfa_offset 16
 106 0004 00AF     		add	r7, sp, #0
 107              		.cfi_offset 14, -4
 108              		.cfi_offset 7, -8
 109              	.LCFI6:
 110              		.cfi_def_cfa_register 7
  53:.\test.c      ****     STATUS status; 
  54:.\test.c      **** 
  55:.\test.c      ****     Ping(0x01);
 111              		.loc 1 55 0
 112 0006 4FF00100 		mov	r0, #1
ARM GAS  C:\Users\Martin\AppData\Local\Temp\cciblsB9.s 			page 4


 113 000a FFF7FEFF 		bl	Ping
  56:.\test.c      ****     
  57:.\test.c      ****     (void)status;
  58:.\test.c      **** }
 114              		.loc 1 58 0
 115 000e 07F10807 		add	r7, r7, #8
 116 0012 BD46     		mov	sp, r7
 117 0014 80BD     		pop	{r7, pc}
 118              		.cfi_endproc
 119              	.LFE31:
 120              		.size	TST_SendMotorMsg, .-TST_SendMotorMsg
 121 0016 00BF     		.section	.text.TST_Init,"ax",%progbits
 122              		.align	2
 123              		.global	TST_Init
 124              		.thumb
 125              		.thumb_func
 126              		.type	TST_Init, %function
 127              	TST_Init:
 128              	.LFB32:
  59:.\test.c      **** 
  60:.\test.c      **** /*******************************************************/
  61:.\test.c      **** void TST_Init(void)
  62:.\test.c      **** {
 129              		.loc 1 62 0
 130              		.cfi_startproc
 131              		@ args = 0, pretend = 0, frame = 0
 132              		@ frame_needed = 1, uses_anonymous_args = 0
 133 0000 80B5     		push	{r7, lr}
 134              	.LCFI7:
 135              		.cfi_def_cfa_offset 8
 136 0002 82B0     		sub	sp, sp, #8
 137              	.LCFI8:
 138              		.cfi_def_cfa_offset 16
 139 0004 02AF     		add	r7, sp, #8
 140              		.cfi_offset 14, -4
 141              		.cfi_offset 7, -8
 142              	.LCFI9:
 143              		.cfi_def_cfa 7, 8
  63:.\test.c      **** #ifdef TEST_BLINK
  64:.\test.c      **** 	TMR_SetTimer(TIMER_0, TIMER_1SEC, TST_Blink, TIMER_MODE_CONTINUOUS, TIMER_ENABLED);
 144              		.loc 1 64 0
 145 0006 4FF00103 		mov	r3, #1
 146 000a 0093     		str	r3, [sp, #0]
 147 000c 4FF00000 		mov	r0, #0
 148 0010 44F24021 		movw	r1, #:lower16:1000000
 149 0014 C0F20F01 		movt	r1, #:upper16:1000000
 150 0018 40F20002 		movw	r2, #:lower16:TST_Blink
 151 001c C0F20002 		movt	r2, #:upper16:TST_Blink
 152 0020 4FF00203 		mov	r3, #2
 153 0024 FFF7FEFF 		bl	TMR_SetTimer
  65:.\test.c      **** #endif	
  66:.\test.c      **** 	
  67:.\test.c      **** #ifdef TEST_UART
  68:.\test.c      **** 	UART_TEST_Start();
 154              		.loc 1 68 0
 155 0028 FFF7FEFF 		bl	UART_TEST_Start
  69:.\test.c      **** 	//UART_EnableRxInt();
ARM GAS  C:\Users\Martin\AppData\Local\Temp\cciblsB9.s 			page 5


  70:.\test.c      **** 	//UART_EnableTxInt();
  71:.\test.c      **** 	//TMR_SetTimer(TIMER_1, TIMER_1SEC, TST_SendTestMsg, TIMER_MODE_CONTINUOUS, TIMER_ENABLED);
  72:.\test.c      ****     TMR_SetTimer(TIMER_2, TIMER_1SEC, TST_SendMotorMsg, TIMER_MODE_CONTINUOUS, TIMER_ENABLED);
 156              		.loc 1 72 0
 157 002c 4FF00103 		mov	r3, #1
 158 0030 0093     		str	r3, [sp, #0]
 159 0032 4FF00200 		mov	r0, #2
 160 0036 44F24021 		movw	r1, #:lower16:1000000
 161 003a C0F20F01 		movt	r1, #:upper16:1000000
 162 003e 40F20002 		movw	r2, #:lower16:TST_SendMotorMsg
 163 0042 C0F20002 		movt	r2, #:upper16:TST_SendMotorMsg
 164 0046 4FF00203 		mov	r3, #2
 165 004a FFF7FEFF 		bl	TMR_SetTimer
  73:.\test.c      **** #endif
  74:.\test.c      **** }
 166              		.loc 1 74 0
 167 004e BD46     		mov	sp, r7
 168 0050 80BD     		pop	{r7, pc}
 169              		.cfi_endproc
 170              	.LFE32:
 171              		.size	TST_Init, .-TST_Init
 172 0052 00BF     		.bss
 173              	LedVal.2876:
 174 0000 00       		.space	1
 175              		.text
 176              	.Letext0: