ARM GAS  C:\Users\Martin\AppData\Local\Temp\ccVLoXeX.s 			page 1


   1              		.syntax unified
   2              		.cpu cortex-m3
   3              		.fpu softvfp
   4              		.eabi_attribute 20, 1
   5              		.eabi_attribute 21, 1
   6              		.eabi_attribute 23, 3
   7              		.eabi_attribute 24, 1
   8              		.eabi_attribute 25, 1
   9              		.eabi_attribute 26, 1
  10              		.eabi_attribute 30, 6
  11              		.eabi_attribute 18, 4
  12              		.thumb
  13              		.file	"tmr.c"
  20 0000 A7010000 		.text
  20      02001201 
  20      00000201 
  20      FB0E0D00 
  20      01010101 
  21              	.Ltext0:
  22              		.cfi_sections	.debug_frame
  23              		.bss
  24              	TimerOverrun:
  25 0000 00       		.space	1
  26              		.data
  27              		.type	IsFirstExecution, %object
  28              		.size	IsFirstExecution, 1
  29              	IsFirstExecution:
  30 0000 01       		.byte	1
  31              		.bss
  32 0001 000000   		.align	2
  33              	Timer:
  34 0004 00000000 		.space	160
  34      00000000 
  34      00000000 
  34      00000000 
  34      00000000 
  35              		.align	2
  36              	NewTime:
  37 00a4 00000000 		.space	4
  38              		.align	2
  39              	OldTime:
  40 00a8 00000000 		.space	4
  41              		.section	.text.isr_timer_routine,"ax",%progbits
  42              		.align	2
  43              		.global	isr_timer_routine
  44              		.thumb
  45              		.thumb_func
  46              		.type	isr_timer_routine, %function
  47              	isr_timer_routine:
  48              	.LFB29:
  49              		.file 1 ".\\tmr.c"
ARM GAS  C:\Users\Martin\AppData\Local\Temp\ccVLoXeX.s 			page 2


   1:.\tmr.c       **** /* Copyright (C) <2014> <Martin Schalk>
   2:.\tmr.c       ****  * All rights reserved.
   3:.\tmr.c       ****  *
   4:.\tmr.c       ****  * This software may be modified and distributed under the terms
   5:.\tmr.c       ****  * of the BSD license.  See the LICENSE file for details.
   6:.\tmr.c       ****  */
   7:.\tmr.c       **** 
   8:.\tmr.c       **** 
   9:.\tmr.c       **** #include <project.h>
  10:.\tmr.c       **** #include "types.h"
  11:.\tmr.c       **** #include "timer.h"
  12:.\tmr.c       **** #include "tmr.h"
  13:.\tmr.c       **** #include "global.h"
  14:.\tmr.c       **** 
  15:.\tmr.c       **** static BOOL 	TimerOverrun = FALSE;
  16:.\tmr.c       **** static BOOL     IsFirstExecution = TRUE;
  17:.\tmr.c       **** static TIMER 	Timer[MAX_TIMERS];
  18:.\tmr.c       **** static uint32	NewTime, OldTime;
  19:.\tmr.c       **** 
  20:.\tmr.c       **** /*******************************************************/
  21:.\tmr.c       **** CY_ISR(isr_timer_routine)
  22:.\tmr.c       **** {
  50              		.loc 1 22 0
  51              		.cfi_startproc
  52              		@ args = 0, pretend = 0, frame = 0
  53              		@ frame_needed = 1, uses_anonymous_args = 0
  54              		@ link register save eliminated.
  55 0000 80B4     		push	{r7}
  56              	.LCFI0:
  57              		.cfi_def_cfa_offset 4
  58 0002 00AF     		add	r7, sp, #0
  59              		.cfi_offset 7, -4
  60              	.LCFI1:
  61              		.cfi_def_cfa_register 7
  23:.\tmr.c       **** 	TimerOverrun = TRUE;
  62              		.loc 1 23 0
  63 0004 40F20003 		movw	r3, #:lower16:TimerOverrun
  64 0008 C0F20003 		movt	r3, #:upper16:TimerOverrun
  65 000c 4FF00102 		mov	r2, #1
  66 0010 1A70     		strb	r2, [r3, #0]
  24:.\tmr.c       **** }
  67              		.loc 1 24 0
  68 0012 BD46     		mov	sp, r7
  69 0014 80BC     		pop	{r7}
  70 0016 7047     		bx	lr
  71              		.cfi_endproc
  72              	.LFE29:
  73              		.size	isr_timer_routine, .-isr_timer_routine
  74              		.section	.text.TMR_Init,"ax",%progbits
  75              		.align	2
  76              		.global	TMR_Init
  77              		.thumb
  78              		.thumb_func
  79              		.type	TMR_Init, %function
  80              	TMR_Init:
  81              	.LFB30:
  25:.\tmr.c       **** 
ARM GAS  C:\Users\Martin\AppData\Local\Temp\ccVLoXeX.s 			page 3


  26:.\tmr.c       **** 
  27:.\tmr.c       **** /*******************************************************/
  28:.\tmr.c       **** STATUS 	TMR_Init(void)
  29:.\tmr.c       **** {
  82              		.loc 1 29 0
  83              		.cfi_startproc
  84              		@ args = 0, pretend = 0, frame = 0
  85              		@ frame_needed = 1, uses_anonymous_args = 0
  86 0000 80B5     		push	{r7, lr}
  87              	.LCFI2:
  88              		.cfi_def_cfa_offset 8
  89 0002 00AF     		add	r7, sp, #0
  90              		.cfi_offset 14, -4
  91              		.cfi_offset 7, -8
  92              	.LCFI3:
  93              		.cfi_def_cfa_register 7
  30:.\tmr.c       **** 	NewTime = OldTime = 0;
  94              		.loc 1 30 0
  95 0004 40F20003 		movw	r3, #:lower16:OldTime
  96 0008 C0F20003 		movt	r3, #:upper16:OldTime
  97 000c 4FF00002 		mov	r2, #0
  98 0010 1A60     		str	r2, [r3, #0]
  99 0012 40F20003 		movw	r3, #:lower16:OldTime
 100 0016 C0F20003 		movt	r3, #:upper16:OldTime
 101 001a 1A68     		ldr	r2, [r3, #0]
 102 001c 40F20003 		movw	r3, #:lower16:NewTime
 103 0020 C0F20003 		movt	r3, #:upper16:NewTime
 104 0024 1A60     		str	r2, [r3, #0]
  31:.\tmr.c       **** 	memset(Timer, 0, sizeof(Timer));
 105              		.loc 1 31 0
 106 0026 40F20000 		movw	r0, #:lower16:Timer
 107 002a C0F20000 		movt	r0, #:upper16:Timer
 108 002e 4FF00001 		mov	r1, #0
 109 0032 4FF0A002 		mov	r2, #160
 110 0036 FFF7FEFF 		bl	memset
  32:.\tmr.c       **** 	
  33:.\tmr.c       **** 	TIMER_Init();
 111              		.loc 1 33 0
 112 003a FFF7FEFF 		bl	TIMER_Init
  34:.\tmr.c       **** 	Isr_timer_SetVector(isr_timer_routine);
 113              		.loc 1 34 0
 114 003e 40F20000 		movw	r0, #:lower16:isr_timer_routine
 115 0042 C0F20000 		movt	r0, #:upper16:isr_timer_routine
 116 0046 FFF7FEFF 		bl	Isr_timer_SetVector
  35:.\tmr.c       **** 	Isr_timer_Start();
 117              		.loc 1 35 0
 118 004a FFF7FEFF 		bl	Isr_timer_Start
  36:.\tmr.c       **** 	TIMER_WritePeriod(TIMER_PERIOD_1000SEC); //clock 1MHz
 119              		.loc 1 36 0
 120 004e 4CF60020 		movw	r0, #:lower16:1000000000
 121 0052 C3F69A30 		movt	r0, #:upper16:1000000000
 122 0056 FFF7FEFF 		bl	TIMER_WritePeriod
  37:.\tmr.c       **** 	TIMER_Enable();
 123              		.loc 1 37 0
 124 005a FFF7FEFF 		bl	TIMER_Enable
  38:.\tmr.c       **** 	TIMER_CLOCK_Start();
 125              		.loc 1 38 0
ARM GAS  C:\Users\Martin\AppData\Local\Temp\ccVLoXeX.s 			page 4


 126 005e FFF7FEFF 		bl	TIMER_CLOCK_Start
  39:.\tmr.c       **** 	
  40:.\tmr.c       **** 	return SUCCESS;
 127              		.loc 1 40 0
 128 0062 4FF00003 		mov	r3, #0
  41:.\tmr.c       **** }
 129              		.loc 1 41 0
 130 0066 1846     		mov	r0, r3
 131 0068 80BD     		pop	{r7, pc}
 132              		.cfi_endproc
 133              	.LFE30:
 134              		.size	TMR_Init, .-TMR_Init
 135 006a 00BF     		.section	.text.TMR_SetTimer,"ax",%progbits
 136              		.align	2
 137              		.global	TMR_SetTimer
 138              		.thumb
 139              		.thumb_func
 140              		.type	TMR_SetTimer, %function
 141              	TMR_SetTimer:
 142              	.LFB31:
  42:.\tmr.c       **** 
  43:.\tmr.c       **** /*******************************************************/
  44:.\tmr.c       **** void TMR_SetTimer(uint8 numTimer, uint32 us, TMR_FUNC func, uint8 mode, uint8 status)
  45:.\tmr.c       **** {
 143              		.loc 1 45 0
 144              		.cfi_startproc
 145              		@ args = 4, pretend = 0, frame = 16
 146              		@ frame_needed = 1, uses_anonymous_args = 0
 147              		@ link register save eliminated.
 148 0000 80B4     		push	{r7}
 149              	.LCFI4:
 150              		.cfi_def_cfa_offset 4
 151 0002 85B0     		sub	sp, sp, #20
 152              	.LCFI5:
 153              		.cfi_def_cfa_offset 24
 154 0004 00AF     		add	r7, sp, #0
 155              		.cfi_offset 7, -4
 156              	.LCFI6:
 157              		.cfi_def_cfa_register 7
 158 0006 B960     		str	r1, [r7, #8]
 159 0008 7A60     		str	r2, [r7, #4]
 160 000a 0246     		mov	r2, r0
 161 000c FA73     		strb	r2, [r7, #15]
 162 000e FB70     		strb	r3, [r7, #3]
  46:.\tmr.c       **** 	Timer[numTimer].count = 0;
 163              		.loc 1 46 0
 164 0010 FA7B     		ldrb	r2, [r7, #15]	@ zero_extendqisi2
 165 0012 40F20003 		movw	r3, #:lower16:Timer
 166 0016 C0F20003 		movt	r3, #:upper16:Timer
 167 001a 4FEA0212 		lsl	r2, r2, #4
 168 001e 1344     		add	r3, r2, r3
 169 0020 4FF00002 		mov	r2, #0
 170 0024 1A60     		str	r2, [r3, #0]
  47:.\tmr.c       **** 	Timer[numTimer].value = us;
 171              		.loc 1 47 0
 172 0026 FA7B     		ldrb	r2, [r7, #15]	@ zero_extendqisi2
 173 0028 40F20003 		movw	r3, #:lower16:Timer
ARM GAS  C:\Users\Martin\AppData\Local\Temp\ccVLoXeX.s 			page 5


 174 002c C0F20003 		movt	r3, #:upper16:Timer
 175 0030 4FEA0212 		lsl	r2, r2, #4
 176 0034 1344     		add	r3, r2, r3
 177 0036 03F10403 		add	r3, r3, #4
 178 003a BA68     		ldr	r2, [r7, #8]
 179 003c 1A60     		str	r2, [r3, #0]
  48:.\tmr.c       **** 	Timer[numTimer].func = func;
 180              		.loc 1 48 0
 181 003e FA7B     		ldrb	r2, [r7, #15]	@ zero_extendqisi2
 182 0040 40F20003 		movw	r3, #:lower16:Timer
 183 0044 C0F20003 		movt	r3, #:upper16:Timer
 184 0048 4FEA4202 		lsl	r2, r2, #1
 185 004c 02F10102 		add	r2, r2, #1
 186 0050 7968     		ldr	r1, [r7, #4]
 187 0052 43F83210 		str	r1, [r3, r2, lsl #3]
  49:.\tmr.c       **** 	Timer[numTimer].mode = mode;
 188              		.loc 1 49 0
 189 0056 FB7B     		ldrb	r3, [r7, #15]	@ zero_extendqisi2
 190 0058 40F20002 		movw	r2, #:lower16:Timer
 191 005c C0F20002 		movt	r2, #:upper16:Timer
 192 0060 4FEA4303 		lsl	r3, r3, #1
 193 0064 03F10103 		add	r3, r3, #1
 194 0068 4FEAC303 		lsl	r3, r3, #3
 195 006c 1344     		add	r3, r3, r2
 196 006e FA78     		ldrb	r2, [r7, #3]
 197 0070 1A71     		strb	r2, [r3, #4]
  50:.\tmr.c       **** 	Timer[numTimer].status = status;
 198              		.loc 1 50 0
 199 0072 FB7B     		ldrb	r3, [r7, #15]	@ zero_extendqisi2
 200 0074 40F20002 		movw	r2, #:lower16:Timer
 201 0078 C0F20002 		movt	r2, #:upper16:Timer
 202 007c 4FEA4303 		lsl	r3, r3, #1
 203 0080 03F10103 		add	r3, r3, #1
 204 0084 4FEAC303 		lsl	r3, r3, #3
 205 0088 1344     		add	r3, r3, r2
 206 008a 3A7E     		ldrb	r2, [r7, #24]
 207 008c 5A71     		strb	r2, [r3, #5]
  51:.\tmr.c       **** }
 208              		.loc 1 51 0
 209 008e 07F11407 		add	r7, r7, #20
 210 0092 BD46     		mov	sp, r7
 211 0094 80BC     		pop	{r7}
 212 0096 7047     		bx	lr
 213              		.cfi_endproc
 214              	.LFE31:
 215              		.size	TMR_SetTimer, .-TMR_SetTimer
 216              		.section	.text.TMR_StartTimer,"ax",%progbits
 217              		.align	2
 218              		.global	TMR_StartTimer
 219              		.thumb
 220              		.thumb_func
 221              		.type	TMR_StartTimer, %function
 222              	TMR_StartTimer:
 223              	.LFB32:
  52:.\tmr.c       **** 
  53:.\tmr.c       **** /*******************************************************/
  54:.\tmr.c       **** void TMR_StartTimer(uint8 numTimer)
ARM GAS  C:\Users\Martin\AppData\Local\Temp\ccVLoXeX.s 			page 6


  55:.\tmr.c       **** {
 224              		.loc 1 55 0
 225              		.cfi_startproc
 226              		@ args = 0, pretend = 0, frame = 8
 227              		@ frame_needed = 1, uses_anonymous_args = 0
 228              		@ link register save eliminated.
 229 0000 80B4     		push	{r7}
 230              	.LCFI7:
 231              		.cfi_def_cfa_offset 4
 232 0002 83B0     		sub	sp, sp, #12
 233              	.LCFI8:
 234              		.cfi_def_cfa_offset 16
 235 0004 00AF     		add	r7, sp, #0
 236              		.cfi_offset 7, -4
 237              	.LCFI9:
 238              		.cfi_def_cfa_register 7
 239 0006 0346     		mov	r3, r0
 240 0008 FB71     		strb	r3, [r7, #7]
  56:.\tmr.c       **** 	Timer[numTimer].count = 0;
 241              		.loc 1 56 0
 242 000a FA79     		ldrb	r2, [r7, #7]	@ zero_extendqisi2
 243 000c 40F20003 		movw	r3, #:lower16:Timer
 244 0010 C0F20003 		movt	r3, #:upper16:Timer
 245 0014 4FEA0212 		lsl	r2, r2, #4
 246 0018 1344     		add	r3, r2, r3
 247 001a 4FF00002 		mov	r2, #0
 248 001e 1A60     		str	r2, [r3, #0]
  57:.\tmr.c       **** 	Timer[numTimer].status = TIMER_ENABLED;
 249              		.loc 1 57 0
 250 0020 FB79     		ldrb	r3, [r7, #7]	@ zero_extendqisi2
 251 0022 40F20002 		movw	r2, #:lower16:Timer
 252 0026 C0F20002 		movt	r2, #:upper16:Timer
 253 002a 4FEA4303 		lsl	r3, r3, #1
 254 002e 03F10103 		add	r3, r3, #1
 255 0032 4FEAC303 		lsl	r3, r3, #3
 256 0036 1344     		add	r3, r3, r2
 257 0038 4FF00102 		mov	r2, #1
 258 003c 5A71     		strb	r2, [r3, #5]
  58:.\tmr.c       **** }
 259              		.loc 1 58 0
 260 003e 07F10C07 		add	r7, r7, #12
 261 0042 BD46     		mov	sp, r7
 262 0044 80BC     		pop	{r7}
 263 0046 7047     		bx	lr
 264              		.cfi_endproc
 265              	.LFE32:
 266              		.size	TMR_StartTimer, .-TMR_StartTimer
 267              		.section	.text.TMR_StopTimer,"ax",%progbits
 268              		.align	2
 269              		.global	TMR_StopTimer
 270              		.thumb
 271              		.thumb_func
 272              		.type	TMR_StopTimer, %function
 273              	TMR_StopTimer:
 274              	.LFB33:
  59:.\tmr.c       **** 
  60:.\tmr.c       **** /*******************************************************/
ARM GAS  C:\Users\Martin\AppData\Local\Temp\ccVLoXeX.s 			page 7


  61:.\tmr.c       **** void TMR_StopTimer(uint8 numTimer)
  62:.\tmr.c       **** {
 275              		.loc 1 62 0
 276              		.cfi_startproc
 277              		@ args = 0, pretend = 0, frame = 8
 278              		@ frame_needed = 1, uses_anonymous_args = 0
 279              		@ link register save eliminated.
 280 0000 80B4     		push	{r7}
 281              	.LCFI10:
 282              		.cfi_def_cfa_offset 4
 283 0002 83B0     		sub	sp, sp, #12
 284              	.LCFI11:
 285              		.cfi_def_cfa_offset 16
 286 0004 00AF     		add	r7, sp, #0
 287              		.cfi_offset 7, -4
 288              	.LCFI12:
 289              		.cfi_def_cfa_register 7
 290 0006 0346     		mov	r3, r0
 291 0008 FB71     		strb	r3, [r7, #7]
  63:.\tmr.c       **** 	Timer[numTimer].count = 0;
 292              		.loc 1 63 0
 293 000a FA79     		ldrb	r2, [r7, #7]	@ zero_extendqisi2
 294 000c 40F20003 		movw	r3, #:lower16:Timer
 295 0010 C0F20003 		movt	r3, #:upper16:Timer
 296 0014 4FEA0212 		lsl	r2, r2, #4
 297 0018 1344     		add	r3, r2, r3
 298 001a 4FF00002 		mov	r2, #0
 299 001e 1A60     		str	r2, [r3, #0]
  64:.\tmr.c       **** 	Timer[numTimer].status = TIMER_DISABLED;
 300              		.loc 1 64 0
 301 0020 FB79     		ldrb	r3, [r7, #7]	@ zero_extendqisi2
 302 0022 40F20002 		movw	r2, #:lower16:Timer
 303 0026 C0F20002 		movt	r2, #:upper16:Timer
 304 002a 4FEA4303 		lsl	r3, r3, #1
 305 002e 03F10103 		add	r3, r3, #1
 306 0032 4FEAC303 		lsl	r3, r3, #3
 307 0036 1344     		add	r3, r3, r2
 308 0038 4FF00002 		mov	r2, #0
 309 003c 5A71     		strb	r2, [r3, #5]
  65:.\tmr.c       **** }
 310              		.loc 1 65 0
 311 003e 07F10C07 		add	r7, r7, #12
 312 0042 BD46     		mov	sp, r7
 313 0044 80BC     		pop	{r7}
 314 0046 7047     		bx	lr
 315              		.cfi_endproc
 316              	.LFE33:
 317              		.size	TMR_StopTimer, .-TMR_StopTimer
 318              		.section	.text.TMR_HandleTask,"ax",%progbits
 319              		.align	2
 320              		.global	TMR_HandleTask
 321              		.thumb
 322              		.thumb_func
 323              		.type	TMR_HandleTask, %function
 324              	TMR_HandleTask:
 325              	.LFB34:
  66:.\tmr.c       **** 
ARM GAS  C:\Users\Martin\AppData\Local\Temp\ccVLoXeX.s 			page 8


  67:.\tmr.c       **** 
  68:.\tmr.c       **** /*******************************************************/
  69:.\tmr.c       **** void TMR_HandleTask(void)
  70:.\tmr.c       **** {
 326              		.loc 1 70 0
 327              		.cfi_startproc
 328              		@ args = 0, pretend = 0, frame = 8
 329              		@ frame_needed = 1, uses_anonymous_args = 0
 330 0000 80B5     		push	{r7, lr}
 331              	.LCFI13:
 332              		.cfi_def_cfa_offset 8
 333 0002 82B0     		sub	sp, sp, #8
 334              	.LCFI14:
 335              		.cfi_def_cfa_offset 16
 336 0004 00AF     		add	r7, sp, #0
 337              		.cfi_offset 14, -4
 338              		.cfi_offset 7, -8
 339              	.LCFI15:
 340              		.cfi_def_cfa_register 7
  71:.\tmr.c       **** 	uint8 i;
  72:.\tmr.c       **** 	uint32 timediff;
  73:.\tmr.c       **** 	
  74:.\tmr.c       **** 	/* get new time (down counter) */
  75:.\tmr.c       **** 	NewTime = 0xFFFFFFFF - TIMER_ReadCounter();
 341              		.loc 1 75 0
 342 0006 FFF7FEFF 		bl	TIMER_ReadCounter
 343 000a 0346     		mov	r3, r0
 344 000c 6FEA0302 		mvn	r2, r3
 345 0010 40F20003 		movw	r3, #:lower16:NewTime
 346 0014 C0F20003 		movt	r3, #:upper16:NewTime
 347 0018 1A60     		str	r2, [r3, #0]
  76:.\tmr.c       **** 	
  77:.\tmr.c       ****     if (IsFirstExecution)
 348              		.loc 1 77 0
 349 001a 40F20003 		movw	r3, #:lower16:IsFirstExecution
 350 001e C0F20003 		movt	r3, #:upper16:IsFirstExecution
 351 0022 1B78     		ldrb	r3, [r3, #0]	@ zero_extendqisi2
 352 0024 002B     		cmp	r3, #0
 353 0026 11D0     		beq	.L12
  78:.\tmr.c       ****     {
  79:.\tmr.c       ****         OldTime = NewTime;
 354              		.loc 1 79 0
 355 0028 40F20003 		movw	r3, #:lower16:NewTime
 356 002c C0F20003 		movt	r3, #:upper16:NewTime
 357 0030 1A68     		ldr	r2, [r3, #0]
 358 0032 40F20003 		movw	r3, #:lower16:OldTime
 359 0036 C0F20003 		movt	r3, #:upper16:OldTime
 360 003a 1A60     		str	r2, [r3, #0]
  80:.\tmr.c       ****         IsFirstExecution = FALSE;
 361              		.loc 1 80 0
 362 003c 40F20003 		movw	r3, #:lower16:IsFirstExecution
 363 0040 C0F20003 		movt	r3, #:upper16:IsFirstExecution
 364 0044 4FF00002 		mov	r2, #0
 365 0048 1A70     		strb	r2, [r3, #0]
  81:.\tmr.c       ****         return;
 366              		.loc 1 81 0
 367 004a B0E0     		b	.L20
ARM GAS  C:\Users\Martin\AppData\Local\Temp\ccVLoXeX.s 			page 9


 368              	.L12:
  82:.\tmr.c       ****     }
  83:.\tmr.c       ****     
  84:.\tmr.c       **** 	/* this variable is set by isr when timer runs over */
  85:.\tmr.c       **** 	if (TimerOverrun == TRUE)
 369              		.loc 1 85 0
 370 004c 40F20003 		movw	r3, #:lower16:TimerOverrun
 371 0050 C0F20003 		movt	r3, #:upper16:TimerOverrun
 372 0054 1B78     		ldrb	r3, [r3, #0]	@ zero_extendqisi2
 373 0056 012B     		cmp	r3, #1
 374 0058 19D1     		bne	.L14
  86:.\tmr.c       **** 	{
  87:.\tmr.c       **** 		timediff = TIMER_PERIOD_1000SEC - OldTime + NewTime;
 375              		.loc 1 87 0
 376 005a 40F20003 		movw	r3, #:lower16:NewTime
 377 005e C0F20003 		movt	r3, #:upper16:NewTime
 378 0062 1A68     		ldr	r2, [r3, #0]
 379 0064 40F20003 		movw	r3, #:lower16:OldTime
 380 0068 C0F20003 		movt	r3, #:upper16:OldTime
 381 006c 1B68     		ldr	r3, [r3, #0]
 382 006e C3EB0202 		rsb	r2, r3, r2
 383 0072 4CF60023 		movw	r3, #:lower16:1000000000
 384 0076 C3F69A33 		movt	r3, #:upper16:1000000000
 385 007a 1344     		add	r3, r2, r3
 386 007c 7B60     		str	r3, [r7, #4]
  88:.\tmr.c       **** 		TimerOverrun = FALSE;
 387              		.loc 1 88 0
 388 007e 40F20003 		movw	r3, #:lower16:TimerOverrun
 389 0082 C0F20003 		movt	r3, #:upper16:TimerOverrun
 390 0086 4FF00002 		mov	r2, #0
 391 008a 1A70     		strb	r2, [r3, #0]
 392 008c 0CE0     		b	.L15
 393              	.L14:
  89:.\tmr.c       **** 	}
  90:.\tmr.c       **** 	else
  91:.\tmr.c       **** 	{
  92:.\tmr.c       **** 		timediff = NewTime - OldTime;
 394              		.loc 1 92 0
 395 008e 40F20003 		movw	r3, #:lower16:NewTime
 396 0092 C0F20003 		movt	r3, #:upper16:NewTime
 397 0096 1A68     		ldr	r2, [r3, #0]
 398 0098 40F20003 		movw	r3, #:lower16:OldTime
 399 009c C0F20003 		movt	r3, #:upper16:OldTime
 400 00a0 1B68     		ldr	r3, [r3, #0]
 401 00a2 C3EB0203 		rsb	r3, r3, r2
 402 00a6 7B60     		str	r3, [r7, #4]
 403              	.L15:
  93:.\tmr.c       **** 	}
  94:.\tmr.c       **** 	
  95:.\tmr.c       **** 	OldTime = NewTime;
 404              		.loc 1 95 0
 405 00a8 40F20003 		movw	r3, #:lower16:NewTime
 406 00ac C0F20003 		movt	r3, #:upper16:NewTime
 407 00b0 1A68     		ldr	r2, [r3, #0]
 408 00b2 40F20003 		movw	r3, #:lower16:OldTime
 409 00b6 C0F20003 		movt	r3, #:upper16:OldTime
 410 00ba 1A60     		str	r2, [r3, #0]
ARM GAS  C:\Users\Martin\AppData\Local\Temp\ccVLoXeX.s 			page 10


  96:.\tmr.c       **** 	
  97:.\tmr.c       **** 	/* update timers */
  98:.\tmr.c       **** 	for (i=0; i<MAX_TIMERS; i++)
 411              		.loc 1 98 0
 412 00bc 4FF00003 		mov	r3, #0
 413 00c0 FB70     		strb	r3, [r7, #3]
 414 00c2 71E0     		b	.L16
 415              	.L19:
  99:.\tmr.c       **** 	{
 100:.\tmr.c       **** 		if (Timer[i].status == TIMER_ENABLED)
 416              		.loc 1 100 0
 417 00c4 FB78     		ldrb	r3, [r7, #3]	@ zero_extendqisi2
 418 00c6 40F20002 		movw	r2, #:lower16:Timer
 419 00ca C0F20002 		movt	r2, #:upper16:Timer
 420 00ce 4FEA4303 		lsl	r3, r3, #1
 421 00d2 03F10103 		add	r3, r3, #1
 422 00d6 4FEAC303 		lsl	r3, r3, #3
 423 00da 1344     		add	r3, r3, r2
 424 00dc 5B79     		ldrb	r3, [r3, #5]	@ zero_extendqisi2
 425 00de 012B     		cmp	r3, #1
 426 00e0 5ED1     		bne	.L17
 101:.\tmr.c       **** 		{
 102:.\tmr.c       **** 			/* increase timer */
 103:.\tmr.c       **** 			Timer[i].count += timediff;
 427              		.loc 1 103 0
 428 00e2 F978     		ldrb	r1, [r7, #3]	@ zero_extendqisi2
 429 00e4 FA78     		ldrb	r2, [r7, #3]	@ zero_extendqisi2
 430 00e6 40F20003 		movw	r3, #:lower16:Timer
 431 00ea C0F20003 		movt	r3, #:upper16:Timer
 432 00ee 4FEA0212 		lsl	r2, r2, #4
 433 00f2 1344     		add	r3, r2, r3
 434 00f4 1A68     		ldr	r2, [r3, #0]
 435 00f6 7B68     		ldr	r3, [r7, #4]
 436 00f8 1A44     		add	r2, r2, r3
 437 00fa 40F20003 		movw	r3, #:lower16:Timer
 438 00fe C0F20003 		movt	r3, #:upper16:Timer
 439 0102 4FEA0111 		lsl	r1, r1, #4
 440 0106 0B44     		add	r3, r1, r3
 441 0108 1A60     		str	r2, [r3, #0]
 104:.\tmr.c       **** 			if (Timer[i].count >= Timer[i].value)
 442              		.loc 1 104 0
 443 010a FA78     		ldrb	r2, [r7, #3]	@ zero_extendqisi2
 444 010c 40F20003 		movw	r3, #:lower16:Timer
 445 0110 C0F20003 		movt	r3, #:upper16:Timer
 446 0114 4FEA0212 		lsl	r2, r2, #4
 447 0118 1344     		add	r3, r2, r3
 448 011a 1A68     		ldr	r2, [r3, #0]
 449 011c F978     		ldrb	r1, [r7, #3]	@ zero_extendqisi2
 450 011e 40F20003 		movw	r3, #:lower16:Timer
 451 0122 C0F20003 		movt	r3, #:upper16:Timer
 452 0126 4FEA0111 		lsl	r1, r1, #4
 453 012a 0B44     		add	r3, r1, r3
 454 012c 03F10403 		add	r3, r3, #4
 455 0130 1B68     		ldr	r3, [r3, #0]
 456 0132 9A42     		cmp	r2, r3
 457 0134 34D3     		bcc	.L17
 105:.\tmr.c       **** 			{
ARM GAS  C:\Users\Martin\AppData\Local\Temp\ccVLoXeX.s 			page 11


 106:.\tmr.c       **** 				/* call timer down function */
 107:.\tmr.c       **** 				Timer[i].func();
 458              		.loc 1 107 0
 459 0136 FA78     		ldrb	r2, [r7, #3]	@ zero_extendqisi2
 460 0138 40F20003 		movw	r3, #:lower16:Timer
 461 013c C0F20003 		movt	r3, #:upper16:Timer
 462 0140 4FEA4202 		lsl	r2, r2, #1
 463 0144 02F10102 		add	r2, r2, #1
 464 0148 53F83230 		ldr	r3, [r3, r2, lsl #3]
 465 014c 9847     		blx	r3
 108:.\tmr.c       **** 				if (Timer[i].mode != TIMER_MODE_CONTINUOUS)
 466              		.loc 1 108 0
 467 014e FB78     		ldrb	r3, [r7, #3]	@ zero_extendqisi2
 468 0150 40F20002 		movw	r2, #:lower16:Timer
 469 0154 C0F20002 		movt	r2, #:upper16:Timer
 470 0158 4FEA4303 		lsl	r3, r3, #1
 471 015c 03F10103 		add	r3, r3, #1
 472 0160 4FEAC303 		lsl	r3, r3, #3
 473 0164 1344     		add	r3, r3, r2
 474 0166 1B79     		ldrb	r3, [r3, #4]	@ zero_extendqisi2
 475 0168 022B     		cmp	r3, #2
 476 016a 0ED0     		beq	.L18
 109:.\tmr.c       **** 				{
 110:.\tmr.c       **** 					Timer[i].status = TIMER_DISABLED;
 477              		.loc 1 110 0
 478 016c FB78     		ldrb	r3, [r7, #3]	@ zero_extendqisi2
 479 016e 40F20002 		movw	r2, #:lower16:Timer
 480 0172 C0F20002 		movt	r2, #:upper16:Timer
 481 0176 4FEA4303 		lsl	r3, r3, #1
 482 017a 03F10103 		add	r3, r3, #1
 483 017e 4FEAC303 		lsl	r3, r3, #3
 484 0182 1344     		add	r3, r3, r2
 485 0184 4FF00002 		mov	r2, #0
 486 0188 5A71     		strb	r2, [r3, #5]
 487              	.L18:
 111:.\tmr.c       **** 				}
 112:.\tmr.c       **** 				Timer[i].count = 0;
 488              		.loc 1 112 0
 489 018a FA78     		ldrb	r2, [r7, #3]	@ zero_extendqisi2
 490 018c 40F20003 		movw	r3, #:lower16:Timer
 491 0190 C0F20003 		movt	r3, #:upper16:Timer
 492 0194 4FEA0212 		lsl	r2, r2, #4
 493 0198 1344     		add	r3, r2, r3
 494 019a 4FF00002 		mov	r2, #0
 495 019e 1A60     		str	r2, [r3, #0]
 496              	.L17:
 497              		.loc 1 98 0
 498 01a0 FB78     		ldrb	r3, [r7, #3]
 499 01a2 03F10103 		add	r3, r3, #1
 500 01a6 FB70     		strb	r3, [r7, #3]
 501              	.L16:
 502 01a8 FB78     		ldrb	r3, [r7, #3]	@ zero_extendqisi2
 503 01aa 092B     		cmp	r3, #9
 504 01ac 8AD9     		bls	.L19
 505              	.L20:
 113:.\tmr.c       **** 			}
 114:.\tmr.c       **** 		}
ARM GAS  C:\Users\Martin\AppData\Local\Temp\ccVLoXeX.s 			page 12


 115:.\tmr.c       **** 	}
 116:.\tmr.c       **** 	
 117:.\tmr.c       **** 	
 118:.\tmr.c       **** }
 506              		.loc 1 118 0
 507 01ae 07F10807 		add	r7, r7, #8
 508 01b2 BD46     		mov	sp, r7
 509 01b4 80BD     		pop	{r7, pc}
 510              		.cfi_endproc
 511              	.LFE34:
 512              		.size	TMR_HandleTask, .-TMR_HandleTask
 513 01b6 00BF     		.text
 514              	.Letext0: