ARM GAS  C:\Users\Martin\AppData\Local\Temp\ccVLoXeX.s 			page 1


   1              		.syntax unified
   2              		.cpu cortex-m3
   3              		.fpu softvfp
   4              		.eabi_attribute 20, 1
   5              		.eabi_attribute 21, 1
   6              		.eabi_attribute 23, 3
   7              		.eabi_attribute 24, 1
   8              		.eabi_attribute 25, 1
   9              		.eabi_attribute 26, 1
  10              		.eabi_attribute 30, 6
  11              		.eabi_attribute 18, 4
  12              		.thumb
  13              		.file	"tmr.c"
  14              		.section	.debug_abbrev,"",%progbits
  15              	.Ldebug_abbrev0:
  16              		.section	.debug_info,"",%progbits
  17              	.Ldebug_info0:
  18              		.section	.debug_line,"",%progbits
  19              	.Ldebug_line0:
  20 0000 A7010000 		.text
  20      02001201 
  20      00000201 
  20      FB0E0D00 
  20      01010101 
  21              	.Ltext0:
  22              		.cfi_sections	.debug_frame
  23              		.bss
  24              	TimerOverrun:
  25 0000 00       		.space	1
  26              		.data
  27              		.type	IsFirstExecution, %object
  28              		.size	IsFirstExecution, 1
  29              	IsFirstExecution:
  30 0000 01       		.byte	1
  31              		.bss
  32 0001 000000   		.align	2
  33              	Timer:
  34 0004 00000000 		.space	160
  34      00000000 
  34      00000000 
  34      00000000 
  34      00000000 
  35              		.align	2
  36              	NewTime:
  37 00a4 00000000 		.space	4
  38              		.align	2
  39              	OldTime:
  40 00a8 00000000 		.space	4
  41              		.section	.text.isr_timer_routine,"ax",%progbits
  42              		.align	2
  43              		.global	isr_timer_routine
  44              		.thumb
  45              		.thumb_func
  46              		.type	isr_timer_routine, %function
  47              	isr_timer_routine:
  48              	.LFB29:
  49              		.file 1 ".\\tmr.c"
ARM GAS  C:\Users\Martin\AppData\Local\Temp\ccVLoXeX.s 			page 2


   1:.\tmr.c       **** /* Copyright (C) <2014> <Martin Schalk>
   2:.\tmr.c       ****  * All rights reserved.
   3:.\tmr.c       ****  *
   4:.\tmr.c       ****  * This software may be modified and distributed under the terms
   5:.\tmr.c       ****  * of the BSD license.  See the LICENSE file for details.
   6:.\tmr.c       ****  */
   7:.\tmr.c       **** 
   8:.\tmr.c       **** 
   9:.\tmr.c       **** #include <project.h>
  10:.\tmr.c       **** #include "types.h"
  11:.\tmr.c       **** #include "timer.h"
  12:.\tmr.c       **** #include "tmr.h"
  13:.\tmr.c       **** #include "global.h"
  14:.\tmr.c       **** 
  15:.\tmr.c       **** static BOOL 	TimerOverrun = FALSE;
  16:.\tmr.c       **** static BOOL     IsFirstExecution = TRUE;
  17:.\tmr.c       **** static TIMER 	Timer[MAX_TIMERS];
  18:.\tmr.c       **** static uint32	NewTime, OldTime;
  19:.\tmr.c       **** 
  20:.\tmr.c       **** /*******************************************************/
  21:.\tmr.c       **** CY_ISR(isr_timer_routine)
  22:.\tmr.c       **** {
  50              		.loc 1 22 0
  51              		.cfi_startproc
  52              		@ args = 0, pretend = 0, frame = 0
  53              		@ frame_needed = 1, uses_anonymous_args = 0
  54              		@ link register save eliminated.
  55 0000 80B4     		push	{r7}
  56              	.LCFI0:
  57              		.cfi_def_cfa_offset 4
  58 0002 00AF     		add	r7, sp, #0
  59              		.cfi_offset 7, -4
  60              	.LCFI1:
  61              		.cfi_def_cfa_register 7
  23:.\tmr.c       **** 	TimerOverrun = TRUE;
  62              		.loc 1 23 0
  63 0004 40F20003 		movw	r3, #:lower16:TimerOverrun
  64 0008 C0F20003 		movt	r3, #:upper16:TimerOverrun
  65 000c 4FF00102 		mov	r2, #1
  66 0010 1A70     		strb	r2, [r3, #0]
  24:.\tmr.c       **** }
  67              		.loc 1 24 0
  68 0012 BD46     		mov	sp, r7
  69 0014 80BC     		pop	{r7}
  70 0016 7047     		bx	lr
  71              		.cfi_endproc
  72              	.LFE29:
  73              		.size	isr_timer_routine, .-isr_timer_routine
  74              		.section	.text.TMR_Init,"ax",%progbits
  75              		.align	2
  76              		.global	TMR_Init
  77              		.thumb
  78              		.thumb_func
  79              		.type	TMR_Init, %function
  80              	TMR_Init:
  81              	.LFB30:
  25:.\tmr.c       **** 
ARM GAS  C:\Users\Martin\AppData\Local\Temp\ccVLoXeX.s 			page 3


  26:.\tmr.c       **** 
  27:.\tmr.c       **** /*******************************************************/
  28:.\tmr.c       **** STATUS 	TMR_Init(void)
  29:.\tmr.c       **** {
  82              		.loc 1 29 0
  83              		.cfi_startproc
  84              		@ args = 0, pretend = 0, frame = 0
  85              		@ frame_needed = 1, uses_anonymous_args = 0
  86 0000 80B5     		push	{r7, lr}
  87              	.LCFI2:
  88              		.cfi_def_cfa_offset 8
  89 0002 00AF     		add	r7, sp, #0
  90              		.cfi_offset 14, -4
  91              		.cfi_offset 7, -8
  92              	.LCFI3:
  93              		.cfi_def_cfa_register 7
  30:.\tmr.c       **** 	NewTime = OldTime = 0;
  94              		.loc 1 30 0
  95 0004 40F20003 		movw	r3, #:lower16:OldTime
  96 0008 C0F20003 		movt	r3, #:upper16:OldTime
  97 000c 4FF00002 		mov	r2, #0
  98 0010 1A60     		str	r2, [r3, #0]
  99 0012 40F20003 		movw	r3, #:lower16:OldTime
 100 0016 C0F20003 		movt	r3, #:upper16:OldTime
 101 001a 1A68     		ldr	r2, [r3, #0]
 102 001c 40F20003 		movw	r3, #:lower16:NewTime
 103 0020 C0F20003 		movt	r3, #:upper16:NewTime
 104 0024 1A60     		str	r2, [r3, #0]
  31:.\tmr.c       **** 	memset(Timer, 0, sizeof(Timer));
 105              		.loc 1 31 0
 106 0026 40F20000 		movw	r0, #:lower16:Timer
 107 002a C0F20000 		movt	r0, #:upper16:Timer
 108 002e 4FF00001 		mov	r1, #0
 109 0032 4FF0A002 		mov	r2, #160
 110 0036 FFF7FEFF 		bl	memset
  32:.\tmr.c       **** 	
  33:.\tmr.c       **** 	TIMER_Init();
 111              		.loc 1 33 0
 112 003a FFF7FEFF 		bl	TIMER_Init
  34:.\tmr.c       **** 	Isr_timer_SetVector(isr_timer_routine);
 113              		.loc 1 34 0
 114 003e 40F20000 		movw	r0, #:lower16:isr_timer_routine
 115 0042 C0F20000 		movt	r0, #:upper16:isr_timer_routine
 116 0046 FFF7FEFF 		bl	Isr_timer_SetVector
  35:.\tmr.c       **** 	Isr_timer_Start();
 117              		.loc 1 35 0
 118 004a FFF7FEFF 		bl	Isr_timer_Start
  36:.\tmr.c       **** 	TIMER_WritePeriod(TIMER_PERIOD_1000SEC); //clock 1MHz
 119              		.loc 1 36 0
 120 004e 4CF60020 		movw	r0, #:lower16:1000000000
 121 0052 C3F69A30 		movt	r0, #:upper16:1000000000
 122 0056 FFF7FEFF 		bl	TIMER_WritePeriod
  37:.\tmr.c       **** 	TIMER_Enable();
 123              		.loc 1 37 0
 124 005a FFF7FEFF 		bl	TIMER_Enable
  38:.\tmr.c       **** 	TIMER_CLOCK_Start();
 125              		.loc 1 38 0
ARM GAS  C:\Users\Martin\AppData\Local\Temp\ccVLoXeX.s 			page 4


 126 005e FFF7FEFF 		bl	TIMER_CLOCK_Start
  39:.\tmr.c       **** 	
  40:.\tmr.c       **** 	return SUCCESS;
 127              		.loc 1 40 0
 128 0062 4FF00003 		mov	r3, #0
  41:.\tmr.c       **** }
 129              		.loc 1 41 0
 130 0066 1846     		mov	r0, r3
 131 0068 80BD     		pop	{r7, pc}
 132              		.cfi_endproc
 133              	.LFE30:
 134              		.size	TMR_Init, .-TMR_Init
 135 006a 00BF     		.section	.text.TMR_SetTimer,"ax",%progbits
 136              		.align	2
 137              		.global	TMR_SetTimer
 138              		.thumb
 139              		.thumb_func
 140              		.type	TMR_SetTimer, %function
 141              	TMR_SetTimer:
 142              	.LFB31:
  42:.\tmr.c       **** 
  43:.\tmr.c       **** /*******************************************************/
  44:.\tmr.c       **** void TMR_SetTimer(uint8 numTimer, uint32 us, TMR_FUNC func, uint8 mode, uint8 status)
  45:.\tmr.c       **** {
 143              		.loc 1 45 0
 144              		.cfi_startproc
 145              		@ args = 4, pretend = 0, frame = 16
 146              		@ frame_needed = 1, uses_anonymous_args = 0
 147              		@ link register save eliminated.
 148 0000 80B4     		push	{r7}
 149              	.LCFI4:
 150              		.cfi_def_cfa_offset 4
 151 0002 85B0     		sub	sp, sp, #20
 152              	.LCFI5:
 153              		.cfi_def_cfa_offset 24
 154 0004 00AF     		add	r7, sp, #0
 155              		.cfi_offset 7, -4
 156              	.LCFI6:
 157              		.cfi_def_cfa_register 7
 158 0006 B960     		str	r1, [r7, #8]
 159 0008 7A60     		str	r2, [r7, #4]
 160 000a 0246     		mov	r2, r0
 161 000c FA73     		strb	r2, [r7, #15]
 162 000e FB70     		strb	r3, [r7, #3]
  46:.\tmr.c       **** 	Timer[numTimer].count = 0;
 163              		.loc 1 46 0
 164 0010 FA7B     		ldrb	r2, [r7, #15]	@ zero_extendqisi2
 165 0012 40F20003 		movw	r3, #:lower16:Timer
 166 0016 C0F20003 		movt	r3, #:upper16:Timer
 167 001a 4FEA0212 		lsl	r2, r2, #4
 168 001e 1344     		add	r3, r2, r3
 169 0020 4FF00002 		mov	r2, #0
 170 0024 1A60     		str	r2, [r3, #0]
  47:.\tmr.c       **** 	Timer[numTimer].value = us;
 171              		.loc 1 47 0
 172 0026 FA7B     		ldrb	r2, [r7, #15]	@ zero_extendqisi2
 173 0028 40F20003 		movw	r3, #:lower16:Timer
ARM GAS  C:\Users\Martin\AppData\Local\Temp\ccVLoXeX.s 			page 5


 174 002c C0F20003 		movt	r3, #:upper16:Timer
 175 0030 4FEA0212 		lsl	r2, r2, #4
 176 0034 1344     		add	r3, r2, r3
 177 0036 03F10403 		add	r3, r3, #4
 178 003a BA68     		ldr	r2, [r7, #8]
 179 003c 1A60     		str	r2, [r3, #0]
  48:.\tmr.c       **** 	Timer[numTimer].func = func;
 180              		.loc 1 48 0
 181 003e FA7B     		ldrb	r2, [r7, #15]	@ zero_extendqisi2
 182 0040 40F20003 		movw	r3, #:lower16:Timer
 183 0044 C0F20003 		movt	r3, #:upper16:Timer
 184 0048 4FEA4202 		lsl	r2, r2, #1
 185 004c 02F10102 		add	r2, r2, #1
 186 0050 7968     		ldr	r1, [r7, #4]
 187 0052 43F83210 		str	r1, [r3, r2, lsl #3]
  49:.\tmr.c       **** 	Timer[numTimer].mode = mode;
 188              		.loc 1 49 0
 189 0056 FB7B     		ldrb	r3, [r7, #15]	@ zero_extendqisi2
 190 0058 40F20002 		movw	r2, #:lower16:Timer
 191 005c C0F20002 		movt	r2, #:upper16:Timer
 192 0060 4FEA4303 		lsl	r3, r3, #1
 193 0064 03F10103 		add	r3, r3, #1
 194 0068 4FEAC303 		lsl	r3, r3, #3
 195 006c 1344     		add	r3, r3, r2
 196 006e FA78     		ldrb	r2, [r7, #3]
 197 0070 1A71     		strb	r2, [r3, #4]
  50:.\tmr.c       **** 	Timer[numTimer].status = status;
 198              		.loc 1 50 0
 199 0072 FB7B     		ldrb	r3, [r7, #15]	@ zero_extendqisi2
 200 0074 40F20002 		movw	r2, #:lower16:Timer
 201 0078 C0F20002 		movt	r2, #:upper16:Timer
 202 007c 4FEA4303 		lsl	r3, r3, #1
 203 0080 03F10103 		add	r3, r3, #1
 204 0084 4FEAC303 		lsl	r3, r3, #3
 205 0088 1344     		add	r3, r3, r2
 206 008a 3A7E     		ldrb	r2, [r7, #24]
 207 008c 5A71     		strb	r2, [r3, #5]
  51:.\tmr.c       **** }
 208              		.loc 1 51 0
 209 008e 07F11407 		add	r7, r7, #20
 210 0092 BD46     		mov	sp, r7
 211 0094 80BC     		pop	{r7}
 212 0096 7047     		bx	lr
 213              		.cfi_endproc
 214              	.LFE31:
 215              		.size	TMR_SetTimer, .-TMR_SetTimer
 216              		.section	.text.TMR_StartTimer,"ax",%progbits
 217              		.align	2
 218              		.global	TMR_StartTimer
 219              		.thumb
 220              		.thumb_func
 221              		.type	TMR_StartTimer, %function
 222              	TMR_StartTimer:
 223              	.LFB32:
  52:.\tmr.c       **** 
  53:.\tmr.c       **** /*******************************************************/
  54:.\tmr.c       **** void TMR_StartTimer(uint8 numTimer)
ARM GAS  C:\Users\Martin\AppData\Local\Temp\ccVLoXeX.s 			page 6


  55:.\tmr.c       **** {
 224              		.loc 1 55 0
 225              		.cfi_startproc
 226              		@ args = 0, pretend = 0, frame = 8
 227              		@ frame_needed = 1, uses_anonymous_args = 0
 228              		@ link register save eliminated.
 229 0000 80B4     		push	{r7}
 230              	.LCFI7:
 231              		.cfi_def_cfa_offset 4
 232 0002 83B0     		sub	sp, sp, #12
 233              	.LCFI8:
 234              		.cfi_def_cfa_offset 16
 235 0004 00AF     		add	r7, sp, #0
 236              		.cfi_offset 7, -4
 237              	.LCFI9:
 238              		.cfi_def_cfa_register 7
 239 0006 0346     		mov	r3, r0
 240 0008 FB71     		strb	r3, [r7, #7]
  56:.\tmr.c       **** 	Timer[numTimer].count = 0;
 241              		.loc 1 56 0
 242 000a FA79     		ldrb	r2, [r7, #7]	@ zero_extendqisi2
 243 000c 40F20003 		movw	r3, #:lower16:Timer
 244 0010 C0F20003 		movt	r3, #:upper16:Timer
 245 0014 4FEA0212 		lsl	r2, r2, #4
 246 0018 1344     		add	r3, r2, r3
 247 001a 4FF00002 		mov	r2, #0
 248 001e 1A60     		str	r2, [r3, #0]
  57:.\tmr.c       **** 	Timer[numTimer].status = TIMER_ENABLED;
 249              		.loc 1 57 0
 250 0020 FB79     		ldrb	r3, [r7, #7]	@ zero_extendqisi2
 251 0022 40F20002 		movw	r2, #:lower16:Timer
 252 0026 C0F20002 		movt	r2, #:upper16:Timer
 253 002a 4FEA4303 		lsl	r3, r3, #1
 254 002e 03F10103 		add	r3, r3, #1
 255 0032 4FEAC303 		lsl	r3, r3, #3
 256 0036 1344     		add	r3, r3, r2
 257 0038 4FF00102 		mov	r2, #1
 258 003c 5A71     		strb	r2, [r3, #5]
  58:.\tmr.c       **** }
 259              		.loc 1 58 0
 260 003e 07F10C07 		add	r7, r7, #12
 261 0042 BD46     		mov	sp, r7
 262 0044 80BC     		pop	{r7}
 263 0046 7047     		bx	lr
 264              		.cfi_endproc
 265              	.LFE32:
 266              		.size	TMR_StartTimer, .-TMR_StartTimer
 267              		.section	.text.TMR_StopTimer,"ax",%progbits
 268              		.align	2
 269              		.global	TMR_StopTimer
 270              		.thumb
 271              		.thumb_func
 272              		.type	TMR_StopTimer, %function
 273              	TMR_StopTimer:
 274              	.LFB33:
  59:.\tmr.c       **** 
  60:.\tmr.c       **** /*******************************************************/
ARM GAS  C:\Users\Martin\AppData\Local\Temp\ccVLoXeX.s 			page 7


  61:.\tmr.c       **** void TMR_StopTimer(uint8 numTimer)
  62:.\tmr.c       **** {
 275              		.loc 1 62 0
 276              		.cfi_startproc
 277              		@ args = 0, pretend = 0, frame = 8
 278              		@ frame_needed = 1, uses_anonymous_args = 0
 279              		@ link register save eliminated.
 280 0000 80B4     		push	{r7}
 281              	.LCFI10:
 282              		.cfi_def_cfa_offset 4
 283 0002 83B0     		sub	sp, sp, #12
 284              	.LCFI11:
 285              		.cfi_def_cfa_offset 16
 286 0004 00AF     		add	r7, sp, #0
 287              		.cfi_offset 7, -4
 288              	.LCFI12:
 289              		.cfi_def_cfa_register 7
 290 0006 0346     		mov	r3, r0
 291 0008 FB71     		strb	r3, [r7, #7]
  63:.\tmr.c       **** 	Timer[numTimer].count = 0;
 292              		.loc 1 63 0
 293 000a FA79     		ldrb	r2, [r7, #7]	@ zero_extendqisi2
 294 000c 40F20003 		movw	r3, #:lower16:Timer
 295 0010 C0F20003 		movt	r3, #:upper16:Timer
 296 0014 4FEA0212 		lsl	r2, r2, #4
 297 0018 1344     		add	r3, r2, r3
 298 001a 4FF00002 		mov	r2, #0
 299 001e 1A60     		str	r2, [r3, #0]
  64:.\tmr.c       **** 	Timer[numTimer].status = TIMER_DISABLED;
 300              		.loc 1 64 0
 301 0020 FB79     		ldrb	r3, [r7, #7]	@ zero_extendqisi2
 302 0022 40F20002 		movw	r2, #:lower16:Timer
 303 0026 C0F20002 		movt	r2, #:upper16:Timer
 304 002a 4FEA4303 		lsl	r3, r3, #1
 305 002e 03F10103 		add	r3, r3, #1
 306 0032 4FEAC303 		lsl	r3, r3, #3
 307 0036 1344     		add	r3, r3, r2
 308 0038 4FF00002 		mov	r2, #0
 309 003c 5A71     		strb	r2, [r3, #5]
  65:.\tmr.c       **** }
 310              		.loc 1 65 0
 311 003e 07F10C07 		add	r7, r7, #12
 312 0042 BD46     		mov	sp, r7
 313 0044 80BC     		pop	{r7}
 314 0046 7047     		bx	lr
 315              		.cfi_endproc
 316              	.LFE33:
 317              		.size	TMR_StopTimer, .-TMR_StopTimer
 318              		.section	.text.TMR_HandleTask,"ax",%progbits
 319              		.align	2
 320              		.global	TMR_HandleTask
 321              		.thumb
 322              		.thumb_func
 323              		.type	TMR_HandleTask, %function
 324              	TMR_HandleTask:
 325              	.LFB34:
  66:.\tmr.c       **** 
ARM GAS  C:\Users\Martin\AppData\Local\Temp\ccVLoXeX.s 			page 8


  67:.\tmr.c       **** 
  68:.\tmr.c       **** /*******************************************************/
  69:.\tmr.c       **** void TMR_HandleTask(void)
  70:.\tmr.c       **** {
 326              		.loc 1 70 0
 327              		.cfi_startproc
 328              		@ args = 0, pretend = 0, frame = 8
 329              		@ frame_needed = 1, uses_anonymous_args = 0
 330 0000 80B5     		push	{r7, lr}
 331              	.LCFI13:
 332              		.cfi_def_cfa_offset 8
 333 0002 82B0     		sub	sp, sp, #8
 334              	.LCFI14:
 335              		.cfi_def_cfa_offset 16
 336 0004 00AF     		add	r7, sp, #0
 337              		.cfi_offset 14, -4
 338              		.cfi_offset 7, -8
 339              	.LCFI15:
 340              		.cfi_def_cfa_register 7
  71:.\tmr.c       **** 	uint8 i;
  72:.\tmr.c       **** 	uint32 timediff;
  73:.\tmr.c       **** 	
  74:.\tmr.c       **** 	/* get new time (down counter) */
  75:.\tmr.c       **** 	NewTime = 0xFFFFFFFF - TIMER_ReadCounter();
 341              		.loc 1 75 0
 342 0006 FFF7FEFF 		bl	TIMER_ReadCounter
 343 000a 0346     		mov	r3, r0
 344 000c 6FEA0302 		mvn	r2, r3
 345 0010 40F20003 		movw	r3, #:lower16:NewTime
 346 0014 C0F20003 		movt	r3, #:upper16:NewTime
 347 0018 1A60     		str	r2, [r3, #0]
  76:.\tmr.c       **** 	
  77:.\tmr.c       ****     if (IsFirstExecution)
 348              		.loc 1 77 0
 349 001a 40F20003 		movw	r3, #:lower16:IsFirstExecution
 350 001e C0F20003 		movt	r3, #:upper16:IsFirstExecution
 351 0022 1B78     		ldrb	r3, [r3, #0]	@ zero_extendqisi2
 352 0024 002B     		cmp	r3, #0
 353 0026 11D0     		beq	.L12
  78:.\tmr.c       ****     {
  79:.\tmr.c       ****         OldTime = NewTime;
 354              		.loc 1 79 0
 355 0028 40F20003 		movw	r3, #:lower16:NewTime
 356 002c C0F20003 		movt	r3, #:upper16:NewTime
 357 0030 1A68     		ldr	r2, [r3, #0]
 358 0032 40F20003 		movw	r3, #:lower16:OldTime
 359 0036 C0F20003 		movt	r3, #:upper16:OldTime
 360 003a 1A60     		str	r2, [r3, #0]
  80:.\tmr.c       ****         IsFirstExecution = FALSE;
 361              		.loc 1 80 0
 362 003c 40F20003 		movw	r3, #:lower16:IsFirstExecution
 363 0040 C0F20003 		movt	r3, #:upper16:IsFirstExecution
 364 0044 4FF00002 		mov	r2, #0
 365 0048 1A70     		strb	r2, [r3, #0]
  81:.\tmr.c       ****         return;
 366              		.loc 1 81 0
 367 004a B0E0     		b	.L20
ARM GAS  C:\Users\Martin\AppData\Local\Temp\ccVLoXeX.s 			page 9


 368              	.L12:
  82:.\tmr.c       ****     }
  83:.\tmr.c       ****     
  84:.\tmr.c       **** 	/* this variable is set by isr when timer runs over */
  85:.\tmr.c       **** 	if (TimerOverrun == TRUE)
 369              		.loc 1 85 0
 370 004c 40F20003 		movw	r3, #:lower16:TimerOverrun
 371 0050 C0F20003 		movt	r3, #:upper16:TimerOverrun
 372 0054 1B78     		ldrb	r3, [r3, #0]	@ zero_extendqisi2
 373 0056 012B     		cmp	r3, #1
 374 0058 19D1     		bne	.L14
  86:.\tmr.c       **** 	{
  87:.\tmr.c       **** 		timediff = TIMER_PERIOD_1000SEC - OldTime + NewTime;
 375              		.loc 1 87 0
 376 005a 40F20003 		movw	r3, #:lower16:NewTime
 377 005e C0F20003 		movt	r3, #:upper16:NewTime
 378 0062 1A68     		ldr	r2, [r3, #0]
 379 0064 40F20003 		movw	r3, #:lower16:OldTime
 380 0068 C0F20003 		movt	r3, #:upper16:OldTime
 381 006c 1B68     		ldr	r3, [r3, #0]
 382 006e C3EB0202 		rsb	r2, r3, r2
 383 0072 4CF60023 		movw	r3, #:lower16:1000000000
 384 0076 C3F69A33 		movt	r3, #:upper16:1000000000
 385 007a 1344     		add	r3, r2, r3
 386 007c 7B60     		str	r3, [r7, #4]
  88:.\tmr.c       **** 		TimerOverrun = FALSE;
 387              		.loc 1 88 0
 388 007e 40F20003 		movw	r3, #:lower16:TimerOverrun
 389 0082 C0F20003 		movt	r3, #:upper16:TimerOverrun
 390 0086 4FF00002 		mov	r2, #0
 391 008a 1A70     		strb	r2, [r3, #0]
 392 008c 0CE0     		b	.L15
 393              	.L14:
  89:.\tmr.c       **** 	}
  90:.\tmr.c       **** 	else
  91:.\tmr.c       **** 	{
  92:.\tmr.c       **** 		timediff = NewTime - OldTime;
 394              		.loc 1 92 0
 395 008e 40F20003 		movw	r3, #:lower16:NewTime
 396 0092 C0F20003 		movt	r3, #:upper16:NewTime
 397 0096 1A68     		ldr	r2, [r3, #0]
 398 0098 40F20003 		movw	r3, #:lower16:OldTime
 399 009c C0F20003 		movt	r3, #:upper16:OldTime
 400 00a0 1B68     		ldr	r3, [r3, #0]
 401 00a2 C3EB0203 		rsb	r3, r3, r2
 402 00a6 7B60     		str	r3, [r7, #4]
 403              	.L15:
  93:.\tmr.c       **** 	}
  94:.\tmr.c       **** 	
  95:.\tmr.c       **** 	OldTime = NewTime;
 404              		.loc 1 95 0
 405 00a8 40F20003 		movw	r3, #:lower16:NewTime
 406 00ac C0F20003 		movt	r3, #:upper16:NewTime
 407 00b0 1A68     		ldr	r2, [r3, #0]
 408 00b2 40F20003 		movw	r3, #:lower16:OldTime
 409 00b6 C0F20003 		movt	r3, #:upper16:OldTime
 410 00ba 1A60     		str	r2, [r3, #0]
ARM GAS  C:\Users\Martin\AppData\Local\Temp\ccVLoXeX.s 			page 10


  96:.\tmr.c       **** 	
  97:.\tmr.c       **** 	/* update timers */
  98:.\tmr.c       **** 	for (i=0; i<MAX_TIMERS; i++)
 411              		.loc 1 98 0
 412 00bc 4FF00003 		mov	r3, #0
 413 00c0 FB70     		strb	r3, [r7, #3]
 414 00c2 71E0     		b	.L16
 415              	.L19:
  99:.\tmr.c       **** 	{
 100:.\tmr.c       **** 		if (Timer[i].status == TIMER_ENABLED)
 416              		.loc 1 100 0
 417 00c4 FB78     		ldrb	r3, [r7, #3]	@ zero_extendqisi2
 418 00c6 40F20002 		movw	r2, #:lower16:Timer
 419 00ca C0F20002 		movt	r2, #:upper16:Timer
 420 00ce 4FEA4303 		lsl	r3, r3, #1
 421 00d2 03F10103 		add	r3, r3, #1
 422 00d6 4FEAC303 		lsl	r3, r3, #3
 423 00da 1344     		add	r3, r3, r2
 424 00dc 5B79     		ldrb	r3, [r3, #5]	@ zero_extendqisi2
 425 00de 012B     		cmp	r3, #1
 426 00e0 5ED1     		bne	.L17
 101:.\tmr.c       **** 		{
 102:.\tmr.c       **** 			/* increase timer */
 103:.\tmr.c       **** 			Timer[i].count += timediff;
 427              		.loc 1 103 0
 428 00e2 F978     		ldrb	r1, [r7, #3]	@ zero_extendqisi2
 429 00e4 FA78     		ldrb	r2, [r7, #3]	@ zero_extendqisi2
 430 00e6 40F20003 		movw	r3, #:lower16:Timer
 431 00ea C0F20003 		movt	r3, #:upper16:Timer
 432 00ee 4FEA0212 		lsl	r2, r2, #4
 433 00f2 1344     		add	r3, r2, r3
 434 00f4 1A68     		ldr	r2, [r3, #0]
 435 00f6 7B68     		ldr	r3, [r7, #4]
 436 00f8 1A44     		add	r2, r2, r3
 437 00fa 40F20003 		movw	r3, #:lower16:Timer
 438 00fe C0F20003 		movt	r3, #:upper16:Timer
 439 0102 4FEA0111 		lsl	r1, r1, #4
 440 0106 0B44     		add	r3, r1, r3
 441 0108 1A60     		str	r2, [r3, #0]
 104:.\tmr.c       **** 			if (Timer[i].count >= Timer[i].value)
 442              		.loc 1 104 0
 443 010a FA78     		ldrb	r2, [r7, #3]	@ zero_extendqisi2
 444 010c 40F20003 		movw	r3, #:lower16:Timer
 445 0110 C0F20003 		movt	r3, #:upper16:Timer
 446 0114 4FEA0212 		lsl	r2, r2, #4
 447 0118 1344     		add	r3, r2, r3
 448 011a 1A68     		ldr	r2, [r3, #0]
 449 011c F978     		ldrb	r1, [r7, #3]	@ zero_extendqisi2
 450 011e 40F20003 		movw	r3, #:lower16:Timer
 451 0122 C0F20003 		movt	r3, #:upper16:Timer
 452 0126 4FEA0111 		lsl	r1, r1, #4
 453 012a 0B44     		add	r3, r1, r3
 454 012c 03F10403 		add	r3, r3, #4
 455 0130 1B68     		ldr	r3, [r3, #0]
 456 0132 9A42     		cmp	r2, r3
 457 0134 34D3     		bcc	.L17
 105:.\tmr.c       **** 			{
ARM GAS  C:\Users\Martin\AppData\Local\Temp\ccVLoXeX.s 			page 11


 106:.\tmr.c       **** 				/* call timer down function */
 107:.\tmr.c       **** 				Timer[i].func();
 458              		.loc 1 107 0
 459 0136 FA78     		ldrb	r2, [r7, #3]	@ zero_extendqisi2
 460 0138 40F20003 		movw	r3, #:lower16:Timer
 461 013c C0F20003 		movt	r3, #:upper16:Timer
 462 0140 4FEA4202 		lsl	r2, r2, #1
 463 0144 02F10102 		add	r2, r2, #1
 464 0148 53F83230 		ldr	r3, [r3, r2, lsl #3]
 465 014c 9847     		blx	r3
 108:.\tmr.c       **** 				if (Timer[i].mode != TIMER_MODE_CONTINUOUS)
 466              		.loc 1 108 0
 467 014e FB78     		ldrb	r3, [r7, #3]	@ zero_extendqisi2
 468 0150 40F20002 		movw	r2, #:lower16:Timer
 469 0154 C0F20002 		movt	r2, #:upper16:Timer
 470 0158 4FEA4303 		lsl	r3, r3, #1
 471 015c 03F10103 		add	r3, r3, #1
 472 0160 4FEAC303 		lsl	r3, r3, #3
 473 0164 1344     		add	r3, r3, r2
 474 0166 1B79     		ldrb	r3, [r3, #4]	@ zero_extendqisi2
 475 0168 022B     		cmp	r3, #2
 476 016a 0ED0     		beq	.L18
 109:.\tmr.c       **** 				{
 110:.\tmr.c       **** 					Timer[i].status = TIMER_DISABLED;
 477              		.loc 1 110 0
 478 016c FB78     		ldrb	r3, [r7, #3]	@ zero_extendqisi2
 479 016e 40F20002 		movw	r2, #:lower16:Timer
 480 0172 C0F20002 		movt	r2, #:upper16:Timer
 481 0176 4FEA4303 		lsl	r3, r3, #1
 482 017a 03F10103 		add	r3, r3, #1
 483 017e 4FEAC303 		lsl	r3, r3, #3
 484 0182 1344     		add	r3, r3, r2
 485 0184 4FF00002 		mov	r2, #0
 486 0188 5A71     		strb	r2, [r3, #5]
 487              	.L18:
 111:.\tmr.c       **** 				}
 112:.\tmr.c       **** 				Timer[i].count = 0;
 488              		.loc 1 112 0
 489 018a FA78     		ldrb	r2, [r7, #3]	@ zero_extendqisi2
 490 018c 40F20003 		movw	r3, #:lower16:Timer
 491 0190 C0F20003 		movt	r3, #:upper16:Timer
 492 0194 4FEA0212 		lsl	r2, r2, #4
 493 0198 1344     		add	r3, r2, r3
 494 019a 4FF00002 		mov	r2, #0
 495 019e 1A60     		str	r2, [r3, #0]
 496              	.L17:
 497              		.loc 1 98 0
 498 01a0 FB78     		ldrb	r3, [r7, #3]
 499 01a2 03F10103 		add	r3, r3, #1
 500 01a6 FB70     		strb	r3, [r7, #3]
 501              	.L16:
 502 01a8 FB78     		ldrb	r3, [r7, #3]	@ zero_extendqisi2
 503 01aa 092B     		cmp	r3, #9
 504 01ac 8AD9     		bls	.L19
 505              	.L20:
 113:.\tmr.c       **** 			}
 114:.\tmr.c       **** 		}
ARM GAS  C:\Users\Martin\AppData\Local\Temp\ccVLoXeX.s 			page 12


 115:.\tmr.c       **** 	}
 116:.\tmr.c       **** 	
 117:.\tmr.c       **** 	
 118:.\tmr.c       **** }
 506              		.loc 1 118 0
 507 01ae 07F10807 		add	r7, r7, #8
 508 01b2 BD46     		mov	sp, r7
 509 01b4 80BD     		pop	{r7, pc}
 510              		.cfi_endproc
 511              	.LFE34:
 512              		.size	TMR_HandleTask, .-TMR_HandleTask
 513 01b6 00BF     		.text
 514              	.Letext0:
 515              		.section	.debug_loc,"",%progbits
 516              	.Ldebug_loc0:
 517              	.LLST0:
 518 0000 00000000 		.4byte	.LFB29
 519 0004 02000000 		.4byte	.LCFI0
 520 0008 0100     		.2byte	0x1
 521 000a 5D       		.byte	0x5d
 522 000b 02000000 		.4byte	.LCFI0
 523 000f 04000000 		.4byte	.LCFI1
 524 0013 0200     		.2byte	0x2
 525 0015 7D       		.byte	0x7d
 526 0016 04       		.sleb128 4
 527 0017 04000000 		.4byte	.LCFI1
 528 001b 18000000 		.4byte	.LFE29
 529 001f 0200     		.2byte	0x2
 530 0021 77       		.byte	0x77
 531 0022 04       		.sleb128 4
 532 0023 00000000 		.4byte	0x0
 533 0027 00000000 		.4byte	0x0
 534              	.LLST1:
 535 002b 00000000 		.4byte	.LFB30
 536 002f 02000000 		.4byte	.LCFI2
 537 0033 0100     		.2byte	0x1
 538 0035 5D       		.byte	0x5d
 539 0036 02000000 		.4byte	.LCFI2
 540 003a 04000000 		.4byte	.LCFI3
 541 003e 0200     		.2byte	0x2
 542 0040 7D       		.byte	0x7d
 543 0041 08       		.sleb128 8
 544 0042 04000000 		.4byte	.LCFI3
 545 0046 6A000000 		.4byte	.LFE30
 546 004a 0200     		.2byte	0x2
 547 004c 77       		.byte	0x77
 548 004d 08       		.sleb128 8
 549 004e 00000000 		.4byte	0x0
 550 0052 00000000 		.4byte	0x0
 551              	.LLST2:
 552 0056 00000000 		.4byte	.LFB31
 553 005a 02000000 		.4byte	.LCFI4
 554 005e 0100     		.2byte	0x1
 555 0060 5D       		.byte	0x5d
 556 0061 02000000 		.4byte	.LCFI4
 557 0065 04000000 		.4byte	.LCFI5
 558 0069 0200     		.2byte	0x2
ARM GAS  C:\Users\Martin\AppData\Local\Temp\ccVLoXeX.s 			page 13


 559 006b 7D       		.byte	0x7d
 560 006c 04       		.sleb128 4
 561 006d 04000000 		.4byte	.LCFI5
 562 0071 06000000 		.4byte	.LCFI6
 563 0075 0200     		.2byte	0x2
 564 0077 7D       		.byte	0x7d
 565 0078 18       		.sleb128 24
 566 0079 06000000 		.4byte	.LCFI6
 567 007d 98000000 		.4byte	.LFE31
 568 0081 0200     		.2byte	0x2
 569 0083 77       		.byte	0x77
 570 0084 18       		.sleb128 24
 571 0085 00000000 		.4byte	0x0
 572 0089 00000000 		.4byte	0x0
 573              	.LLST3:
 574 008d 00000000 		.4byte	.LFB32
 575 0091 02000000 		.4byte	.LCFI7
 576 0095 0100     		.2byte	0x1
 577 0097 5D       		.byte	0x5d
 578 0098 02000000 		.4byte	.LCFI7
 579 009c 04000000 		.4byte	.LCFI8
 580 00a0 0200     		.2byte	0x2
 581 00a2 7D       		.byte	0x7d
 582 00a3 04       		.sleb128 4
 583 00a4 04000000 		.4byte	.LCFI8
 584 00a8 06000000 		.4byte	.LCFI9
 585 00ac 0200     		.2byte	0x2
 586 00ae 7D       		.byte	0x7d
 587 00af 10       		.sleb128 16
 588 00b0 06000000 		.4byte	.LCFI9
 589 00b4 48000000 		.4byte	.LFE32
 590 00b8 0200     		.2byte	0x2
 591 00ba 77       		.byte	0x77
 592 00bb 10       		.sleb128 16
 593 00bc 00000000 		.4byte	0x0
 594 00c0 00000000 		.4byte	0x0
 595              	.LLST4:
 596 00c4 00000000 		.4byte	.LFB33
 597 00c8 02000000 		.4byte	.LCFI10
 598 00cc 0100     		.2byte	0x1
 599 00ce 5D       		.byte	0x5d
 600 00cf 02000000 		.4byte	.LCFI10
 601 00d3 04000000 		.4byte	.LCFI11
 602 00d7 0200     		.2byte	0x2
 603 00d9 7D       		.byte	0x7d
 604 00da 04       		.sleb128 4
 605 00db 04000000 		.4byte	.LCFI11
 606 00df 06000000 		.4byte	.LCFI12
 607 00e3 0200     		.2byte	0x2
 608 00e5 7D       		.byte	0x7d
 609 00e6 10       		.sleb128 16
 610 00e7 06000000 		.4byte	.LCFI12
 611 00eb 48000000 		.4byte	.LFE33
 612 00ef 0200     		.2byte	0x2
 613 00f1 77       		.byte	0x77
 614 00f2 10       		.sleb128 16
 615 00f3 00000000 		.4byte	0x0
ARM GAS  C:\Users\Martin\AppData\Local\Temp\ccVLoXeX.s 			page 14


 616 00f7 00000000 		.4byte	0x0
 617              	.LLST5:
 618 00fb 00000000 		.4byte	.LFB34
 619 00ff 02000000 		.4byte	.LCFI13
 620 0103 0100     		.2byte	0x1
 621 0105 5D       		.byte	0x5d
 622 0106 02000000 		.4byte	.LCFI13
 623 010a 04000000 		.4byte	.LCFI14
 624 010e 0200     		.2byte	0x2
 625 0110 7D       		.byte	0x7d
 626 0111 08       		.sleb128 8
 627 0112 04000000 		.4byte	.LCFI14
 628 0116 06000000 		.4byte	.LCFI15
 629 011a 0200     		.2byte	0x2
 630 011c 7D       		.byte	0x7d
 631 011d 10       		.sleb128 16
 632 011e 06000000 		.4byte	.LCFI15
 633 0122 B6010000 		.4byte	.LFE34
 634 0126 0200     		.2byte	0x2
 635 0128 77       		.byte	0x77
 636 0129 10       		.sleb128 16
 637 012a 00000000 		.4byte	0x0
 638 012e 00000000 		.4byte	0x0
 639              		.file 2 "c:\\program files (x86)\\cypress\\psoc creator\\2.2\\psoc creator\\import\\gnu_cs\\arm\\4
 640              		.file 3 "./Generated_Source/PSoC5/cytypes.h"
 641              		.file 4 ".\\/types.h"
 642              		.file 5 ".\\/tmr.h"
 643              		.file 6 "./Generated_Source/PSoC5/core_cm3.h"
 644              		.section	.debug_info
 645 0000 B5020000 		.4byte	0x2b5
 646 0004 0200     		.2byte	0x2
 647 0006 00000000 		.4byte	.Ldebug_abbrev0
 648 000a 04       		.byte	0x4
 649 000b 01       		.uleb128 0x1
 650 000c 8F010000 		.4byte	.LASF35
 651 0010 01       		.byte	0x1
 652 0011 0E000000 		.4byte	.LASF36
 653 0015 64000000 		.4byte	.LASF37
 654 0019 00000000 		.4byte	0x0
 655 001d 00000000 		.4byte	0x0
 656 0021 00000000 		.4byte	.Ldebug_ranges0+0x0
 657 0025 00000000 		.4byte	.Ldebug_line0
 658 0029 02       		.uleb128 0x2
 659 002a 01       		.byte	0x1
 660 002b 06       		.byte	0x6
 661 002c E8010000 		.4byte	.LASF0
 662 0030 03       		.uleb128 0x3
 663 0031 60010000 		.4byte	.LASF9
 664 0035 02       		.byte	0x2
 665 0036 2A       		.byte	0x2a
 666 0037 3B000000 		.4byte	0x3b
 667 003b 02       		.uleb128 0x2
 668 003c 01       		.byte	0x1
 669 003d 08       		.byte	0x8
 670 003e 56000000 		.4byte	.LASF1
 671 0042 02       		.uleb128 0x2
 672 0043 02       		.byte	0x2
ARM GAS  C:\Users\Martin\AppData\Local\Temp\ccVLoXeX.s 			page 15


 673 0044 05       		.byte	0x5
 674 0045 C1010000 		.4byte	.LASF2
 675 0049 02       		.uleb128 0x2
 676 004a 02       		.byte	0x2
 677 004b 07       		.byte	0x7
 678 004c C5000000 		.4byte	.LASF3
 679 0050 02       		.uleb128 0x2
 680 0051 04       		.byte	0x4
 681 0052 05       		.byte	0x5
 682 0053 D1010000 		.4byte	.LASF4
 683 0057 02       		.uleb128 0x2
 684 0058 04       		.byte	0x4
 685 0059 07       		.byte	0x7
 686 005a B3000000 		.4byte	.LASF5
 687 005e 02       		.uleb128 0x2
 688 005f 08       		.byte	0x8
 689 0060 05       		.byte	0x5
 690 0061 00000000 		.4byte	.LASF6
 691 0065 02       		.uleb128 0x2
 692 0066 08       		.byte	0x8
 693 0067 07       		.byte	0x7
 694 0068 49010000 		.4byte	.LASF7
 695 006c 04       		.uleb128 0x4
 696 006d 04       		.byte	0x4
 697 006e 05       		.byte	0x5
 698 006f 696E7400 		.ascii	"int\000"
 699 0073 02       		.uleb128 0x2
 700 0074 04       		.byte	0x4
 701 0075 07       		.byte	0x7
 702 0076 22010000 		.4byte	.LASF8
 703 007a 03       		.uleb128 0x3
 704 007b CB010000 		.4byte	.LASF10
 705 007f 03       		.byte	0x3
 706 0080 4C       		.byte	0x4c
 707 0081 3B000000 		.4byte	0x3b
 708 0085 03       		.uleb128 0x3
 709 0086 1B010000 		.4byte	.LASF11
 710 008a 03       		.byte	0x3
 711 008b 4E       		.byte	0x4e
 712 008c 57000000 		.4byte	0x57
 713 0090 02       		.uleb128 0x2
 714 0091 04       		.byte	0x4
 715 0092 04       		.byte	0x4
 716 0093 50000000 		.4byte	.LASF12
 717 0097 02       		.uleb128 0x2
 718 0098 08       		.byte	0x8
 719 0099 04       		.byte	0x4
 720 009a 06010000 		.4byte	.LASF13
 721 009e 02       		.uleb128 0x2
 722 009f 01       		.byte	0x1
 723 00a0 08       		.byte	0x8
 724 00a1 A8010000 		.4byte	.LASF14
 725 00a5 05       		.uleb128 0x5
 726 00a6 04       		.byte	0x4
 727 00a7 AB000000 		.4byte	0xab
 728 00ab 06       		.uleb128 0x6
 729 00ac 01       		.byte	0x1
ARM GAS  C:\Users\Martin\AppData\Local\Temp\ccVLoXeX.s 			page 16


 730 00ad 07       		.uleb128 0x7
 731 00ae 04       		.byte	0x4
 732 00af 07       		.byte	0x7
 733 00b0 03       		.uleb128 0x3
 734 00b1 BA010000 		.4byte	.LASF15
 735 00b5 04       		.byte	0x4
 736 00b6 0E       		.byte	0xe
 737 00b7 7A000000 		.4byte	0x7a
 738 00bb 03       		.uleb128 0x3
 739 00bc 31000000 		.4byte	.LASF16
 740 00c0 04       		.byte	0x4
 741 00c1 0F       		.byte	0xf
 742 00c2 30000000 		.4byte	0x30
 743 00c6 03       		.uleb128 0x3
 744 00c7 40010000 		.4byte	.LASF17
 745 00cb 05       		.byte	0x5
 746 00cc 20       		.byte	0x20
 747 00cd A5000000 		.4byte	0xa5
 748 00d1 08       		.uleb128 0x8
 749 00d2 88010000 		.4byte	.LASF38
 750 00d6 10       		.byte	0x10
 751 00d7 05       		.byte	0x5
 752 00d8 24       		.byte	0x24
 753 00d9 24010000 		.4byte	0x124
 754 00dd 09       		.uleb128 0x9
 755 00de 2B000000 		.4byte	.LASF18
 756 00e2 05       		.byte	0x5
 757 00e3 25       		.byte	0x25
 758 00e4 85000000 		.4byte	0x85
 759 00e8 02       		.byte	0x2
 760 00e9 23       		.byte	0x23
 761 00ea 00       		.uleb128 0x0
 762 00eb 09       		.uleb128 0x9
 763 00ec 25000000 		.4byte	.LASF19
 764 00f0 05       		.byte	0x5
 765 00f1 26       		.byte	0x26
 766 00f2 85000000 		.4byte	0x85
 767 00f6 02       		.byte	0x2
 768 00f7 23       		.byte	0x23
 769 00f8 04       		.uleb128 0x4
 770 00f9 09       		.uleb128 0x9
 771 00fa 0D010000 		.4byte	.LASF20
 772 00fe 05       		.byte	0x5
 773 00ff 27       		.byte	0x27
 774 0100 C6000000 		.4byte	0xc6
 775 0104 02       		.byte	0x2
 776 0105 23       		.byte	0x23
 777 0106 08       		.uleb128 0x8
 778 0107 09       		.uleb128 0x9
 779 0108 6E010000 		.4byte	.LASF21
 780 010c 05       		.byte	0x5
 781 010d 28       		.byte	0x28
 782 010e 7A000000 		.4byte	0x7a
 783 0112 02       		.byte	0x2
 784 0113 23       		.byte	0x23
 785 0114 0C       		.uleb128 0xc
 786 0115 09       		.uleb128 0x9
ARM GAS  C:\Users\Martin\AppData\Local\Temp\ccVLoXeX.s 			page 17


 787 0116 1E000000 		.4byte	.LASF22
 788 011a 05       		.byte	0x5
 789 011b 29       		.byte	0x29
 790 011c 7A000000 		.4byte	0x7a
 791 0120 02       		.byte	0x2
 792 0121 23       		.byte	0x23
 793 0122 0D       		.uleb128 0xd
 794 0123 00       		.byte	0x0
 795 0124 03       		.uleb128 0x3
 796 0125 68010000 		.4byte	.LASF23
 797 0129 05       		.byte	0x5
 798 012a 2A       		.byte	0x2a
 799 012b D1000000 		.4byte	0xd1
 800 012f 0A       		.uleb128 0xa
 801 0130 01       		.byte	0x1
 802 0131 D8000000 		.4byte	.LASF39
 803 0135 01       		.byte	0x1
 804 0136 15       		.byte	0x15
 805 0137 01       		.byte	0x1
 806 0138 00000000 		.4byte	.LFB29
 807 013c 18000000 		.4byte	.LFE29
 808 0140 00000000 		.4byte	.LLST0
 809 0144 0B       		.uleb128 0xb
 810 0145 01       		.byte	0x1
 811 0146 12010000 		.4byte	.LASF40
 812 014a 01       		.byte	0x1
 813 014b 1C       		.byte	0x1c
 814 014c 01       		.byte	0x1
 815 014d B0000000 		.4byte	0xb0
 816 0151 00000000 		.4byte	.LFB30
 817 0155 6A000000 		.4byte	.LFE30
 818 0159 2B000000 		.4byte	.LLST1
 819 015d 0C       		.uleb128 0xc
 820 015e 01       		.byte	0x1
 821 015f AD010000 		.4byte	.LASF25
 822 0163 01       		.byte	0x1
 823 0164 2C       		.byte	0x2c
 824 0165 01       		.byte	0x1
 825 0166 00000000 		.4byte	.LFB31
 826 016a 98000000 		.4byte	.LFE31
 827 016e 56000000 		.4byte	.LLST2
 828 0172 BC010000 		.4byte	0x1bc
 829 0176 0D       		.uleb128 0xd
 830 0177 47000000 		.4byte	.LASF24
 831 017b 01       		.byte	0x1
 832 017c 2C       		.byte	0x2c
 833 017d 7A000000 		.4byte	0x7a
 834 0181 02       		.byte	0x2
 835 0182 91       		.byte	0x91
 836 0183 77       		.sleb128 -9
 837 0184 0E       		.uleb128 0xe
 838 0185 757300   		.ascii	"us\000"
 839 0188 01       		.byte	0x1
 840 0189 2C       		.byte	0x2c
 841 018a 85000000 		.4byte	0x85
 842 018e 02       		.byte	0x2
 843 018f 91       		.byte	0x91
ARM GAS  C:\Users\Martin\AppData\Local\Temp\ccVLoXeX.s 			page 18


 844 0190 70       		.sleb128 -16
 845 0191 0D       		.uleb128 0xd
 846 0192 0D010000 		.4byte	.LASF20
 847 0196 01       		.byte	0x1
 848 0197 2C       		.byte	0x2c
 849 0198 C6000000 		.4byte	0xc6
 850 019c 02       		.byte	0x2
 851 019d 91       		.byte	0x91
 852 019e 6C       		.sleb128 -20
 853 019f 0D       		.uleb128 0xd
 854 01a0 6E010000 		.4byte	.LASF21
 855 01a4 01       		.byte	0x1
 856 01a5 2C       		.byte	0x2c
 857 01a6 7A000000 		.4byte	0x7a
 858 01aa 02       		.byte	0x2
 859 01ab 91       		.byte	0x91
 860 01ac 6B       		.sleb128 -21
 861 01ad 0D       		.uleb128 0xd
 862 01ae 1E000000 		.4byte	.LASF22
 863 01b2 01       		.byte	0x1
 864 01b3 2C       		.byte	0x2c
 865 01b4 7A000000 		.4byte	0x7a
 866 01b8 02       		.byte	0x2
 867 01b9 91       		.byte	0x91
 868 01ba 00       		.sleb128 0
 869 01bb 00       		.byte	0x0
 870 01bc 0C       		.uleb128 0xc
 871 01bd 01       		.byte	0x1
 872 01be 79010000 		.4byte	.LASF26
 873 01c2 01       		.byte	0x1
 874 01c3 36       		.byte	0x36
 875 01c4 01       		.byte	0x1
 876 01c5 00000000 		.4byte	.LFB32
 877 01c9 48000000 		.4byte	.LFE32
 878 01cd 8D000000 		.4byte	.LLST3
 879 01d1 E4010000 		.4byte	0x1e4
 880 01d5 0D       		.uleb128 0xd
 881 01d6 47000000 		.4byte	.LASF24
 882 01da 01       		.byte	0x1
 883 01db 36       		.byte	0x36
 884 01dc 7A000000 		.4byte	0x7a
 885 01e0 02       		.byte	0x2
 886 01e1 91       		.byte	0x91
 887 01e2 77       		.sleb128 -9
 888 01e3 00       		.byte	0x0
 889 01e4 0C       		.uleb128 0xc
 890 01e5 01       		.byte	0x1
 891 01e6 DA010000 		.4byte	.LASF27
 892 01ea 01       		.byte	0x1
 893 01eb 3D       		.byte	0x3d
 894 01ec 01       		.byte	0x1
 895 01ed 00000000 		.4byte	.LFB33
 896 01f1 48000000 		.4byte	.LFE33
 897 01f5 C4000000 		.4byte	.LLST4
 898 01f9 0C020000 		.4byte	0x20c
 899 01fd 0D       		.uleb128 0xd
 900 01fe 47000000 		.4byte	.LASF24
ARM GAS  C:\Users\Martin\AppData\Local\Temp\ccVLoXeX.s 			page 19


 901 0202 01       		.byte	0x1
 902 0203 3D       		.byte	0x3d
 903 0204 7A000000 		.4byte	0x7a
 904 0208 02       		.byte	0x2
 905 0209 91       		.byte	0x91
 906 020a 77       		.sleb128 -9
 907 020b 00       		.byte	0x0
 908 020c 0C       		.uleb128 0xc
 909 020d 01       		.byte	0x1
 910 020e F7000000 		.4byte	.LASF28
 911 0212 01       		.byte	0x1
 912 0213 45       		.byte	0x45
 913 0214 01       		.byte	0x1
 914 0215 00000000 		.4byte	.LFB34
 915 0219 B6010000 		.4byte	.LFE34
 916 021d FB000000 		.4byte	.LLST5
 917 0221 40020000 		.4byte	0x240
 918 0225 0F       		.uleb128 0xf
 919 0226 6900     		.ascii	"i\000"
 920 0228 01       		.byte	0x1
 921 0229 47       		.byte	0x47
 922 022a 7A000000 		.4byte	0x7a
 923 022e 02       		.byte	0x2
 924 022f 91       		.byte	0x91
 925 0230 73       		.sleb128 -13
 926 0231 10       		.uleb128 0x10
 927 0232 36000000 		.4byte	.LASF29
 928 0236 01       		.byte	0x1
 929 0237 48       		.byte	0x48
 930 0238 85000000 		.4byte	0x85
 931 023c 02       		.byte	0x2
 932 023d 91       		.byte	0x91
 933 023e 74       		.sleb128 -12
 934 023f 00       		.byte	0x0
 935 0240 10       		.uleb128 0x10
 936 0241 9B010000 		.4byte	.LASF30
 937 0245 01       		.byte	0x1
 938 0246 0F       		.byte	0xf
 939 0247 BB000000 		.4byte	0xbb
 940 024b 05       		.byte	0x5
 941 024c 03       		.byte	0x3
 942 024d 00000000 		.4byte	TimerOverrun
 943 0251 10       		.uleb128 0x10
 944 0252 2F010000 		.4byte	.LASF31
 945 0256 01       		.byte	0x1
 946 0257 10       		.byte	0x10
 947 0258 BB000000 		.4byte	0xbb
 948 025c 05       		.byte	0x5
 949 025d 03       		.byte	0x3
 950 025e 00000000 		.4byte	IsFirstExecution
 951 0262 11       		.uleb128 0x11
 952 0263 24010000 		.4byte	0x124
 953 0267 72020000 		.4byte	0x272
 954 026b 12       		.uleb128 0x12
 955 026c AD000000 		.4byte	0xad
 956 0270 09       		.byte	0x9
 957 0271 00       		.byte	0x0
ARM GAS  C:\Users\Martin\AppData\Local\Temp\ccVLoXeX.s 			page 20


 958 0272 10       		.uleb128 0x10
 959 0273 73010000 		.4byte	.LASF32
 960 0277 01       		.byte	0x1
 961 0278 11       		.byte	0x11
 962 0279 62020000 		.4byte	0x262
 963 027d 05       		.byte	0x5
 964 027e 03       		.byte	0x3
 965 027f 04000000 		.4byte	Timer
 966 0283 10       		.uleb128 0x10
 967 0284 3F000000 		.4byte	.LASF33
 968 0288 01       		.byte	0x1
 969 0289 12       		.byte	0x12
 970 028a 85000000 		.4byte	0x85
 971 028e 05       		.byte	0x5
 972 028f 03       		.byte	0x3
 973 0290 A4000000 		.4byte	NewTime
 974 0294 10       		.uleb128 0x10
 975 0295 16000000 		.4byte	.LASF34
 976 0299 01       		.byte	0x1
 977 029a 12       		.byte	0x12
 978 029b 85000000 		.4byte	0x85
 979 029f 05       		.byte	0x5
 980 02a0 03       		.byte	0x3
 981 02a1 A8000000 		.4byte	OldTime
 982 02a5 13       		.uleb128 0x13
 983 02a6 EA000000 		.4byte	.LASF41
 984 02aa 06       		.byte	0x6
 985 02ab CE06     		.2byte	0x6ce
 986 02ad B3020000 		.4byte	0x2b3
 987 02b1 01       		.byte	0x1
 988 02b2 01       		.byte	0x1
 989 02b3 14       		.uleb128 0x14
 990 02b4 6C000000 		.4byte	0x6c
 991 02b8 00       		.byte	0x0
 992              		.section	.debug_abbrev
 993 0000 01       		.uleb128 0x1
 994 0001 11       		.uleb128 0x11
 995 0002 01       		.byte	0x1
 996 0003 25       		.uleb128 0x25
 997 0004 0E       		.uleb128 0xe
 998 0005 13       		.uleb128 0x13
 999 0006 0B       		.uleb128 0xb
 1000 0007 03       		.uleb128 0x3
 1001 0008 0E       		.uleb128 0xe
 1002 0009 1B       		.uleb128 0x1b
 1003 000a 0E       		.uleb128 0xe
 1004 000b 11       		.uleb128 0x11
 1005 000c 01       		.uleb128 0x1
 1006 000d 52       		.uleb128 0x52
 1007 000e 01       		.uleb128 0x1
 1008 000f 55       		.uleb128 0x55
 1009 0010 06       		.uleb128 0x6
 1010 0011 10       		.uleb128 0x10
 1011 0012 06       		.uleb128 0x6
 1012 0013 00       		.byte	0x0
 1013 0014 00       		.byte	0x0
 1014 0015 02       		.uleb128 0x2
ARM GAS  C:\Users\Martin\AppData\Local\Temp\ccVLoXeX.s 			page 21


 1015 0016 24       		.uleb128 0x24
 1016 0017 00       		.byte	0x0
 1017 0018 0B       		.uleb128 0xb
 1018 0019 0B       		.uleb128 0xb
 1019 001a 3E       		.uleb128 0x3e
 1020 001b 0B       		.uleb128 0xb
 1021 001c 03       		.uleb128 0x3
 1022 001d 0E       		.uleb128 0xe
 1023 001e 00       		.byte	0x0
 1024 001f 00       		.byte	0x0
 1025 0020 03       		.uleb128 0x3
 1026 0021 16       		.uleb128 0x16
 1027 0022 00       		.byte	0x0
 1028 0023 03       		.uleb128 0x3
 1029 0024 0E       		.uleb128 0xe
 1030 0025 3A       		.uleb128 0x3a
 1031 0026 0B       		.uleb128 0xb
 1032 0027 3B       		.uleb128 0x3b
 1033 0028 0B       		.uleb128 0xb
 1034 0029 49       		.uleb128 0x49
 1035 002a 13       		.uleb128 0x13
 1036 002b 00       		.byte	0x0
 1037 002c 00       		.byte	0x0
 1038 002d 04       		.uleb128 0x4
 1039 002e 24       		.uleb128 0x24
 1040 002f 00       		.byte	0x0
 1041 0030 0B       		.uleb128 0xb
 1042 0031 0B       		.uleb128 0xb
 1043 0032 3E       		.uleb128 0x3e
 1044 0033 0B       		.uleb128 0xb
 1045 0034 03       		.uleb128 0x3
 1046 0035 08       		.uleb128 0x8
 1047 0036 00       		.byte	0x0
 1048 0037 00       		.byte	0x0
 1049 0038 05       		.uleb128 0x5
 1050 0039 0F       		.uleb128 0xf
 1051 003a 00       		.byte	0x0
 1052 003b 0B       		.uleb128 0xb
 1053 003c 0B       		.uleb128 0xb
 1054 003d 49       		.uleb128 0x49
 1055 003e 13       		.uleb128 0x13
 1056 003f 00       		.byte	0x0
 1057 0040 00       		.byte	0x0
 1058 0041 06       		.uleb128 0x6
 1059 0042 15       		.uleb128 0x15
 1060 0043 00       		.byte	0x0
 1061 0044 27       		.uleb128 0x27
 1062 0045 0C       		.uleb128 0xc
 1063 0046 00       		.byte	0x0
 1064 0047 00       		.byte	0x0
 1065 0048 07       		.uleb128 0x7
 1066 0049 24       		.uleb128 0x24
 1067 004a 00       		.byte	0x0
 1068 004b 0B       		.uleb128 0xb
 1069 004c 0B       		.uleb128 0xb
 1070 004d 3E       		.uleb128 0x3e
 1071 004e 0B       		.uleb128 0xb
ARM GAS  C:\Users\Martin\AppData\Local\Temp\ccVLoXeX.s 			page 22


 1072 004f 00       		.byte	0x0
 1073 0050 00       		.byte	0x0
 1074 0051 08       		.uleb128 0x8
 1075 0052 13       		.uleb128 0x13
 1076 0053 01       		.byte	0x1
 1077 0054 03       		.uleb128 0x3
 1078 0055 0E       		.uleb128 0xe
 1079 0056 0B       		.uleb128 0xb
 1080 0057 0B       		.uleb128 0xb
 1081 0058 3A       		.uleb128 0x3a
 1082 0059 0B       		.uleb128 0xb
 1083 005a 3B       		.uleb128 0x3b
 1084 005b 0B       		.uleb128 0xb
 1085 005c 01       		.uleb128 0x1
 1086 005d 13       		.uleb128 0x13
 1087 005e 00       		.byte	0x0
 1088 005f 00       		.byte	0x0
 1089 0060 09       		.uleb128 0x9
 1090 0061 0D       		.uleb128 0xd
 1091 0062 00       		.byte	0x0
 1092 0063 03       		.uleb128 0x3
 1093 0064 0E       		.uleb128 0xe
 1094 0065 3A       		.uleb128 0x3a
 1095 0066 0B       		.uleb128 0xb
 1096 0067 3B       		.uleb128 0x3b
 1097 0068 0B       		.uleb128 0xb
 1098 0069 49       		.uleb128 0x49
 1099 006a 13       		.uleb128 0x13
 1100 006b 38       		.uleb128 0x38
 1101 006c 0A       		.uleb128 0xa
 1102 006d 00       		.byte	0x0
 1103 006e 00       		.byte	0x0
 1104 006f 0A       		.uleb128 0xa
 1105 0070 2E       		.uleb128 0x2e
 1106 0071 00       		.byte	0x0
 1107 0072 3F       		.uleb128 0x3f
 1108 0073 0C       		.uleb128 0xc
 1109 0074 03       		.uleb128 0x3
 1110 0075 0E       		.uleb128 0xe
 1111 0076 3A       		.uleb128 0x3a
 1112 0077 0B       		.uleb128 0xb
 1113 0078 3B       		.uleb128 0x3b
 1114 0079 0B       		.uleb128 0xb
 1115 007a 27       		.uleb128 0x27
 1116 007b 0C       		.uleb128 0xc
 1117 007c 11       		.uleb128 0x11
 1118 007d 01       		.uleb128 0x1
 1119 007e 12       		.uleb128 0x12
 1120 007f 01       		.uleb128 0x1
 1121 0080 40       		.uleb128 0x40
 1122 0081 06       		.uleb128 0x6
 1123 0082 00       		.byte	0x0
 1124 0083 00       		.byte	0x0
 1125 0084 0B       		.uleb128 0xb
 1126 0085 2E       		.uleb128 0x2e
 1127 0086 00       		.byte	0x0
 1128 0087 3F       		.uleb128 0x3f
ARM GAS  C:\Users\Martin\AppData\Local\Temp\ccVLoXeX.s 			page 23


 1129 0088 0C       		.uleb128 0xc
 1130 0089 03       		.uleb128 0x3
 1131 008a 0E       		.uleb128 0xe
 1132 008b 3A       		.uleb128 0x3a
 1133 008c 0B       		.uleb128 0xb
 1134 008d 3B       		.uleb128 0x3b
 1135 008e 0B       		.uleb128 0xb
 1136 008f 27       		.uleb128 0x27
 1137 0090 0C       		.uleb128 0xc
 1138 0091 49       		.uleb128 0x49
 1139 0092 13       		.uleb128 0x13
 1140 0093 11       		.uleb128 0x11
 1141 0094 01       		.uleb128 0x1
 1142 0095 12       		.uleb128 0x12
 1143 0096 01       		.uleb128 0x1
 1144 0097 40       		.uleb128 0x40
 1145 0098 06       		.uleb128 0x6
 1146 0099 00       		.byte	0x0
 1147 009a 00       		.byte	0x0
 1148 009b 0C       		.uleb128 0xc
 1149 009c 2E       		.uleb128 0x2e
 1150 009d 01       		.byte	0x1
 1151 009e 3F       		.uleb128 0x3f
 1152 009f 0C       		.uleb128 0xc
 1153 00a0 03       		.uleb128 0x3
 1154 00a1 0E       		.uleb128 0xe
 1155 00a2 3A       		.uleb128 0x3a
 1156 00a3 0B       		.uleb128 0xb
 1157 00a4 3B       		.uleb128 0x3b
 1158 00a5 0B       		.uleb128 0xb
 1159 00a6 27       		.uleb128 0x27
 1160 00a7 0C       		.uleb128 0xc
 1161 00a8 11       		.uleb128 0x11
 1162 00a9 01       		.uleb128 0x1
 1163 00aa 12       		.uleb128 0x12
 1164 00ab 01       		.uleb128 0x1
 1165 00ac 40       		.uleb128 0x40
 1166 00ad 06       		.uleb128 0x6
 1167 00ae 01       		.uleb128 0x1
 1168 00af 13       		.uleb128 0x13
 1169 00b0 00       		.byte	0x0
 1170 00b1 00       		.byte	0x0
 1171 00b2 0D       		.uleb128 0xd
 1172 00b3 05       		.uleb128 0x5
 1173 00b4 00       		.byte	0x0
 1174 00b5 03       		.uleb128 0x3
 1175 00b6 0E       		.uleb128 0xe
 1176 00b7 3A       		.uleb128 0x3a
 1177 00b8 0B       		.uleb128 0xb
 1178 00b9 3B       		.uleb128 0x3b
 1179 00ba 0B       		.uleb128 0xb
 1180 00bb 49       		.uleb128 0x49
 1181 00bc 13       		.uleb128 0x13
 1182 00bd 02       		.uleb128 0x2
 1183 00be 0A       		.uleb128 0xa
 1184 00bf 00       		.byte	0x0
 1185 00c0 00       		.byte	0x0
ARM GAS  C:\Users\Martin\AppData\Local\Temp\ccVLoXeX.s 			page 24


 1186 00c1 0E       		.uleb128 0xe
 1187 00c2 05       		.uleb128 0x5
 1188 00c3 00       		.byte	0x0
 1189 00c4 03       		.uleb128 0x3
 1190 00c5 08       		.uleb128 0x8
 1191 00c6 3A       		.uleb128 0x3a
 1192 00c7 0B       		.uleb128 0xb
 1193 00c8 3B       		.uleb128 0x3b
 1194 00c9 0B       		.uleb128 0xb
 1195 00ca 49       		.uleb128 0x49
 1196 00cb 13       		.uleb128 0x13
 1197 00cc 02       		.uleb128 0x2
 1198 00cd 0A       		.uleb128 0xa
 1199 00ce 00       		.byte	0x0
 1200 00cf 00       		.byte	0x0
 1201 00d0 0F       		.uleb128 0xf
 1202 00d1 34       		.uleb128 0x34
 1203 00d2 00       		.byte	0x0
 1204 00d3 03       		.uleb128 0x3
 1205 00d4 08       		.uleb128 0x8
 1206 00d5 3A       		.uleb128 0x3a
 1207 00d6 0B       		.uleb128 0xb
 1208 00d7 3B       		.uleb128 0x3b
 1209 00d8 0B       		.uleb128 0xb
 1210 00d9 49       		.uleb128 0x49
 1211 00da 13       		.uleb128 0x13
 1212 00db 02       		.uleb128 0x2
 1213 00dc 0A       		.uleb128 0xa
 1214 00dd 00       		.byte	0x0
 1215 00de 00       		.byte	0x0
 1216 00df 10       		.uleb128 0x10
 1217 00e0 34       		.uleb128 0x34
 1218 00e1 00       		.byte	0x0
 1219 00e2 03       		.uleb128 0x3
 1220 00e3 0E       		.uleb128 0xe
 1221 00e4 3A       		.uleb128 0x3a
 1222 00e5 0B       		.uleb128 0xb
 1223 00e6 3B       		.uleb128 0x3b
 1224 00e7 0B       		.uleb128 0xb
 1225 00e8 49       		.uleb128 0x49
 1226 00e9 13       		.uleb128 0x13
 1227 00ea 02       		.uleb128 0x2
 1228 00eb 0A       		.uleb128 0xa
 1229 00ec 00       		.byte	0x0
 1230 00ed 00       		.byte	0x0
 1231 00ee 11       		.uleb128 0x11
 1232 00ef 01       		.uleb128 0x1
 1233 00f0 01       		.byte	0x1
 1234 00f1 49       		.uleb128 0x49
 1235 00f2 13       		.uleb128 0x13
 1236 00f3 01       		.uleb128 0x1
 1237 00f4 13       		.uleb128 0x13
 1238 00f5 00       		.byte	0x0
 1239 00f6 00       		.byte	0x0
 1240 00f7 12       		.uleb128 0x12
 1241 00f8 21       		.uleb128 0x21
 1242 00f9 00       		.byte	0x0
ARM GAS  C:\Users\Martin\AppData\Local\Temp\ccVLoXeX.s 			page 25


 1243 00fa 49       		.uleb128 0x49
 1244 00fb 13       		.uleb128 0x13
 1245 00fc 2F       		.uleb128 0x2f
 1246 00fd 0B       		.uleb128 0xb
 1247 00fe 00       		.byte	0x0
 1248 00ff 00       		.byte	0x0
 1249 0100 13       		.uleb128 0x13
 1250 0101 34       		.uleb128 0x34
 1251 0102 00       		.byte	0x0
 1252 0103 03       		.uleb128 0x3
 1253 0104 0E       		.uleb128 0xe
 1254 0105 3A       		.uleb128 0x3a
 1255 0106 0B       		.uleb128 0xb
 1256 0107 3B       		.uleb128 0x3b
 1257 0108 05       		.uleb128 0x5
 1258 0109 49       		.uleb128 0x49
 1259 010a 13       		.uleb128 0x13
 1260 010b 3F       		.uleb128 0x3f
 1261 010c 0C       		.uleb128 0xc
 1262 010d 3C       		.uleb128 0x3c
 1263 010e 0C       		.uleb128 0xc
 1264 010f 00       		.byte	0x0
 1265 0110 00       		.byte	0x0
 1266 0111 14       		.uleb128 0x14
 1267 0112 35       		.uleb128 0x35
 1268 0113 00       		.byte	0x0
 1269 0114 49       		.uleb128 0x49
 1270 0115 13       		.uleb128 0x13
 1271 0116 00       		.byte	0x0
 1272 0117 00       		.byte	0x0
 1273 0118 00       		.byte	0x0
 1274              		.section	.debug_pubnames,"",%progbits
 1275 0000 7A000000 		.4byte	0x7a
 1276 0004 0200     		.2byte	0x2
 1277 0006 00000000 		.4byte	.Ldebug_info0
 1278 000a B9020000 		.4byte	0x2b9
 1279 000e 2F010000 		.4byte	0x12f
 1280 0012 6973725F 		.ascii	"isr_timer_routine\000"
 1280      74696D65 
 1280      725F726F 
 1280      7574696E 
 1280      6500
 1281 0024 44010000 		.4byte	0x144
 1282 0028 544D525F 		.ascii	"TMR_Init\000"
 1282      496E6974 
 1282      00
 1283 0031 5D010000 		.4byte	0x15d
 1284 0035 544D525F 		.ascii	"TMR_SetTimer\000"
 1284      53657454 
 1284      696D6572 
 1284      00
 1285 0042 BC010000 		.4byte	0x1bc
 1286 0046 544D525F 		.ascii	"TMR_StartTimer\000"
 1286      53746172 
 1286      7454696D 
 1286      657200
 1287 0055 E4010000 		.4byte	0x1e4
ARM GAS  C:\Users\Martin\AppData\Local\Temp\ccVLoXeX.s 			page 26


 1288 0059 544D525F 		.ascii	"TMR_StopTimer\000"
 1288      53746F70 
 1288      54696D65 
 1288      7200
 1289 0067 0C020000 		.4byte	0x20c
 1290 006b 544D525F 		.ascii	"TMR_HandleTask\000"
 1290      48616E64 
 1290      6C655461 
 1290      736B00
 1291 007a 00000000 		.4byte	0x0
 1292              		.section	.debug_aranges,"",%progbits
 1293 0000 44000000 		.4byte	0x44
 1294 0004 0200     		.2byte	0x2
 1295 0006 00000000 		.4byte	.Ldebug_info0
 1296 000a 04       		.byte	0x4
 1297 000b 00       		.byte	0x0
 1298 000c 0000     		.2byte	0x0
 1299 000e 0000     		.2byte	0x0
 1300 0010 00000000 		.4byte	.LFB29
 1301 0014 18000000 		.4byte	.LFE29-.LFB29
 1302 0018 00000000 		.4byte	.LFB30
 1303 001c 6A000000 		.4byte	.LFE30-.LFB30
 1304 0020 00000000 		.4byte	.LFB31
 1305 0024 98000000 		.4byte	.LFE31-.LFB31
 1306 0028 00000000 		.4byte	.LFB32
 1307 002c 48000000 		.4byte	.LFE32-.LFB32
 1308 0030 00000000 		.4byte	.LFB33
 1309 0034 48000000 		.4byte	.LFE33-.LFB33
 1310 0038 00000000 		.4byte	.LFB34
 1311 003c B6010000 		.4byte	.LFE34-.LFB34
 1312 0040 00000000 		.4byte	0x0
 1313 0044 00000000 		.4byte	0x0
 1314              		.section	.debug_ranges,"",%progbits
 1315              	.Ldebug_ranges0:
 1316 0000 00000000 		.4byte	.Ltext0
 1317 0004 00000000 		.4byte	.Letext0
 1318 0008 00000000 		.4byte	.LFB29
 1319 000c 18000000 		.4byte	.LFE29
 1320 0010 00000000 		.4byte	.LFB30
 1321 0014 6A000000 		.4byte	.LFE30
 1322 0018 00000000 		.4byte	.LFB31
 1323 001c 98000000 		.4byte	.LFE31
 1324 0020 00000000 		.4byte	.LFB32
 1325 0024 48000000 		.4byte	.LFE32
 1326 0028 00000000 		.4byte	.LFB33
 1327 002c 48000000 		.4byte	.LFE33
 1328 0030 00000000 		.4byte	.LFB34
 1329 0034 B6010000 		.4byte	.LFE34
 1330 0038 00000000 		.4byte	0x0
 1331 003c 00000000 		.4byte	0x0
 1332              		.section	.debug_str,"MS",%progbits,1
 1333              	.LASF6:
 1334 0000 6C6F6E67 		.ascii	"long long int\000"
 1334      206C6F6E 
 1334      6720696E 
 1334      7400
 1335              	.LASF36:
ARM GAS  C:\Users\Martin\AppData\Local\Temp\ccVLoXeX.s 			page 27


 1336 000e 2E5C746D 		.ascii	".\\tmr.c\000"
 1336      722E6300 
 1337              	.LASF34:
 1338 0016 4F6C6454 		.ascii	"OldTime\000"
 1338      696D6500 
 1339              	.LASF22:
 1340 001e 73746174 		.ascii	"status\000"
 1340      757300
 1341              	.LASF19:
 1342 0025 76616C75 		.ascii	"value\000"
 1342      6500
 1343              	.LASF18:
 1344 002b 636F756E 		.ascii	"count\000"
 1344      7400
 1345              	.LASF16:
 1346 0031 424F4F4C 		.ascii	"BOOL\000"
 1346      00
 1347              	.LASF29:
 1348 0036 74696D65 		.ascii	"timediff\000"
 1348      64696666 
 1348      00
 1349              	.LASF33:
 1350 003f 4E657754 		.ascii	"NewTime\000"
 1350      696D6500 
 1351              	.LASF24:
 1352 0047 6E756D54 		.ascii	"numTimer\000"
 1352      696D6572 
 1352      00
 1353              	.LASF12:
 1354 0050 666C6F61 		.ascii	"float\000"
 1354      7400
 1355              	.LASF1:
 1356 0056 756E7369 		.ascii	"unsigned char\000"
 1356      676E6564 
 1356      20636861 
 1356      7200
 1357              	.LASF37:
 1358 0064 583A5C72 		.ascii	"X:\\roboticscode\\trunk\\psoc\\psoc_creator_2.2\\Dr"
 1358      6F626F74 
 1358      69637363 
 1358      6F64655C 
 1358      7472756E 
 1359 0092 6976655F 		.ascii	"ive_Platform\\DrivePlatform.cydsn\000"
 1359      506C6174 
 1359      666F726D 
 1359      5C447269 
 1359      7665506C 
 1360              	.LASF5:
 1361 00b3 6C6F6E67 		.ascii	"long unsigned int\000"
 1361      20756E73 
 1361      69676E65 
 1361      6420696E 
 1361      7400
 1362              	.LASF3:
 1363 00c5 73686F72 		.ascii	"short unsigned int\000"
 1363      7420756E 
 1363      7369676E 
ARM GAS  C:\Users\Martin\AppData\Local\Temp\ccVLoXeX.s 			page 28


 1363      65642069 
 1363      6E7400
 1364              	.LASF39:
 1365 00d8 6973725F 		.ascii	"isr_timer_routine\000"
 1365      74696D65 
 1365      725F726F 
 1365      7574696E 
 1365      6500
 1366              	.LASF41:
 1367 00ea 49544D5F 		.ascii	"ITM_RxBuffer\000"
 1367      52784275 
 1367      66666572 
 1367      00
 1368              	.LASF28:
 1369 00f7 544D525F 		.ascii	"TMR_HandleTask\000"
 1369      48616E64 
 1369      6C655461 
 1369      736B00
 1370              	.LASF13:
 1371 0106 646F7562 		.ascii	"double\000"
 1371      6C6500
 1372              	.LASF20:
 1373 010d 66756E63 		.ascii	"func\000"
 1373      00
 1374              	.LASF40:
 1375 0112 544D525F 		.ascii	"TMR_Init\000"
 1375      496E6974 
 1375      00
 1376              	.LASF11:
 1377 011b 75696E74 		.ascii	"uint32\000"
 1377      333200
 1378              	.LASF8:
 1379 0122 756E7369 		.ascii	"unsigned int\000"
 1379      676E6564 
 1379      20696E74 
 1379      00
 1380              	.LASF31:
 1381 012f 49734669 		.ascii	"IsFirstExecution\000"
 1381      72737445 
 1381      78656375 
 1381      74696F6E 
 1381      00
 1382              	.LASF17:
 1383 0140 544D525F 		.ascii	"TMR_FUNC\000"
 1383      46554E43 
 1383      00
 1384              	.LASF7:
 1385 0149 6C6F6E67 		.ascii	"long long unsigned int\000"
 1385      206C6F6E 
 1385      6720756E 
 1385      7369676E 
 1385      65642069 
 1386              	.LASF9:
 1387 0160 75696E74 		.ascii	"uint8_t\000"
 1387      385F7400 
 1388              	.LASF23:
 1389 0168 54494D45 		.ascii	"TIMER\000"
ARM GAS  C:\Users\Martin\AppData\Local\Temp\ccVLoXeX.s 			page 29


 1389      5200
 1390              	.LASF21:
 1391 016e 6D6F6465 		.ascii	"mode\000"
 1391      00
 1392              	.LASF32:
 1393 0173 54696D65 		.ascii	"Timer\000"
 1393      7200
 1394              	.LASF26:
 1395 0179 544D525F 		.ascii	"TMR_StartTimer\000"
 1395      53746172 
 1395      7454696D 
 1395      657200
 1396              	.LASF38:
 1397 0188 5F74696D 		.ascii	"_timer\000"
 1397      657200
 1398              	.LASF35:
 1399 018f 474E5520 		.ascii	"GNU C 4.4.1\000"
 1399      4320342E 
 1399      342E3100 
 1400              	.LASF30:
 1401 019b 54696D65 		.ascii	"TimerOverrun\000"
 1401      724F7665 
 1401      7272756E 
 1401      00
 1402              	.LASF14:
 1403 01a8 63686172 		.ascii	"char\000"
 1403      00
 1404              	.LASF25:
 1405 01ad 544D525F 		.ascii	"TMR_SetTimer\000"
 1405      53657454 
 1405      696D6572 
 1405      00
 1406              	.LASF15:
 1407 01ba 53544154 		.ascii	"STATUS\000"
 1407      555300
 1408              	.LASF2:
 1409 01c1 73686F72 		.ascii	"short int\000"
 1409      7420696E 
 1409      7400
 1410              	.LASF10:
 1411 01cb 75696E74 		.ascii	"uint8\000"
 1411      3800
 1412              	.LASF4:
 1413 01d1 6C6F6E67 		.ascii	"long int\000"
 1413      20696E74 
 1413      00
 1414              	.LASF27:
 1415 01da 544D525F 		.ascii	"TMR_StopTimer\000"
 1415      53746F70 
 1415      54696D65 
 1415      7200
 1416              	.LASF0:
 1417 01e8 7369676E 		.ascii	"signed char\000"
 1417      65642063 
 1417      68617200 
 1418              		.ident	"GCC: (Sourcery G++ Lite 2010q1-188) 4.4.1"
