ARM GAS  C:\Users\Martin\AppData\Local\Temp\ccSl8uza.s 			page 1


   1              		.syntax unified
   2              		.cpu cortex-m3
   3              		.fpu softvfp
   4              		.eabi_attribute 20, 1
   5              		.eabi_attribute 21, 1
   6              		.eabi_attribute 23, 3
   7              		.eabi_attribute 24, 1
   8              		.eabi_attribute 25, 1
   9              		.eabi_attribute 26, 1
  10              		.eabi_attribute 30, 6
  11              		.eabi_attribute 18, 4
  12              		.thumb
  13              		.file	"cyfitter_cfg.c"
  20 0000 E8010000 		.text
  20      0200F000 
  20      00000201 
  20      FB0E0D00 
  20      01010101 
  21              	.Ltext0:
  22              		.cfi_sections	.debug_frame
  23              		.section	.text.CYMEMZERO8,"ax",%progbits
  24              		.align	2
  25              		.thumb
  26              		.thumb_func
  27              		.type	CYMEMZERO8, %function
  28              	CYMEMZERO8:
  29              	.LFB0:
  30              		.file 1 ".\\Generated_Source\\PSoC5\\cyfitter_cfg.c"
   1:.\Generated_Source\PSoC5/cyfitter_cfg.c **** /*******************************************************************************
   2:.\Generated_Source\PSoC5/cyfitter_cfg.c **** * FILENAME: cyfitter_cfg.c
   3:.\Generated_Source\PSoC5/cyfitter_cfg.c **** * PSoC Creator 2.2 Component Pack 6
   4:.\Generated_Source\PSoC5/cyfitter_cfg.c **** *
   5:.\Generated_Source\PSoC5/cyfitter_cfg.c **** * Description:
   6:.\Generated_Source\PSoC5/cyfitter_cfg.c **** * This file is automatically generated by PSoC Creator with device 
   7:.\Generated_Source\PSoC5/cyfitter_cfg.c **** * initialization code.  Except for the user defined sections in
   8:.\Generated_Source\PSoC5/cyfitter_cfg.c **** * CyClockStartupError(), this file should not be modified.
   9:.\Generated_Source\PSoC5/cyfitter_cfg.c **** *
  10:.\Generated_Source\PSoC5/cyfitter_cfg.c **** ********************************************************************************
  11:.\Generated_Source\PSoC5/cyfitter_cfg.c **** * Copyright 2013, Cypress Semiconductor Corporation.  All rights reserved.
  12:.\Generated_Source\PSoC5/cyfitter_cfg.c **** * You may use this file only in accordance with the license, terms, conditions, 
  13:.\Generated_Source\PSoC5/cyfitter_cfg.c **** * disclaimers, and limitations in the end user license agreement accompanying 
  14:.\Generated_Source\PSoC5/cyfitter_cfg.c **** * the software package with which this file was provided.
  15:.\Generated_Source\PSoC5/cyfitter_cfg.c **** ********************************************************************************/
  16:.\Generated_Source\PSoC5/cyfitter_cfg.c **** 
  17:.\Generated_Source\PSoC5/cyfitter_cfg.c **** #include <string.h>
  18:.\Generated_Source\PSoC5/cyfitter_cfg.c **** #include <cytypes.h>
  19:.\Generated_Source\PSoC5/cyfitter_cfg.c **** #include <cydevice_trm.h>
  20:.\Generated_Source\PSoC5/cyfitter_cfg.c **** #include <cyfitter.h>
  21:.\Generated_Source\PSoC5/cyfitter_cfg.c **** #include <CyLib.h>
  22:.\Generated_Source\PSoC5/cyfitter_cfg.c **** #include <cyfitter_cfg.h>
  23:.\Generated_Source\PSoC5/cyfitter_cfg.c **** 
ARM GAS  C:\Users\Martin\AppData\Local\Temp\ccSl8uza.s 			page 2


  24:.\Generated_Source\PSoC5/cyfitter_cfg.c **** /* Clock startup error codes                                                   */
  25:.\Generated_Source\PSoC5/cyfitter_cfg.c **** #define CYCLOCKSTART_NO_ERROR    0u
  26:.\Generated_Source\PSoC5/cyfitter_cfg.c **** #define CYCLOCKSTART_XTAL_ERROR  1u
  27:.\Generated_Source\PSoC5/cyfitter_cfg.c **** #define CYCLOCKSTART_32KHZ_ERROR 2u
  28:.\Generated_Source\PSoC5/cyfitter_cfg.c **** #define CYCLOCKSTART_PLL_ERROR   3u
  29:.\Generated_Source\PSoC5/cyfitter_cfg.c **** 
  30:.\Generated_Source\PSoC5/cyfitter_cfg.c **** #ifdef CY_NEED_CYCLOCKSTARTUPERROR
  31:.\Generated_Source\PSoC5/cyfitter_cfg.c **** /*******************************************************************************
  32:.\Generated_Source\PSoC5/cyfitter_cfg.c **** * Function Name: CyClockStartupError
  33:.\Generated_Source\PSoC5/cyfitter_cfg.c **** ********************************************************************************
  34:.\Generated_Source\PSoC5/cyfitter_cfg.c **** * Summary:
  35:.\Generated_Source\PSoC5/cyfitter_cfg.c **** *  If an error is encountered during clock configuration (crystal startup error,
  36:.\Generated_Source\PSoC5/cyfitter_cfg.c **** *  PLL lock error, etc.), the system will end up here.  Unless reimplemented by
  37:.\Generated_Source\PSoC5/cyfitter_cfg.c **** *  the customer, this function will stop in an infinite loop.
  38:.\Generated_Source\PSoC5/cyfitter_cfg.c **** *
  39:.\Generated_Source\PSoC5/cyfitter_cfg.c **** * Parameters:
  40:.\Generated_Source\PSoC5/cyfitter_cfg.c **** *   void
  41:.\Generated_Source\PSoC5/cyfitter_cfg.c **** *
  42:.\Generated_Source\PSoC5/cyfitter_cfg.c **** * Return:
  43:.\Generated_Source\PSoC5/cyfitter_cfg.c **** *   void
  44:.\Generated_Source\PSoC5/cyfitter_cfg.c **** *
  45:.\Generated_Source\PSoC5/cyfitter_cfg.c **** *******************************************************************************/
  46:.\Generated_Source\PSoC5/cyfitter_cfg.c **** #if defined(__GNUC__) || defined(__ARMCC_VERSION)
  47:.\Generated_Source\PSoC5/cyfitter_cfg.c **** __attribute__ ((unused))
  48:.\Generated_Source\PSoC5/cyfitter_cfg.c **** #endif
  49:.\Generated_Source\PSoC5/cyfitter_cfg.c **** static void CyClockStartupError(uint8 errorCode);
  50:.\Generated_Source\PSoC5/cyfitter_cfg.c **** #if defined(__GNUC__) || defined(__ARMCC_VERSION)
  51:.\Generated_Source\PSoC5/cyfitter_cfg.c **** __attribute__ ((unused))
  52:.\Generated_Source\PSoC5/cyfitter_cfg.c **** #endif
  53:.\Generated_Source\PSoC5/cyfitter_cfg.c **** static void CyClockStartupError(uint8 errorCode)
  54:.\Generated_Source\PSoC5/cyfitter_cfg.c **** {
  55:.\Generated_Source\PSoC5/cyfitter_cfg.c ****     /* To remove the compiler warning if errorCode not used.                */
  56:.\Generated_Source\PSoC5/cyfitter_cfg.c ****     errorCode = errorCode;
  57:.\Generated_Source\PSoC5/cyfitter_cfg.c **** 
  58:.\Generated_Source\PSoC5/cyfitter_cfg.c ****     /* `#START CyClockStartupError` */
  59:.\Generated_Source\PSoC5/cyfitter_cfg.c **** 
  60:.\Generated_Source\PSoC5/cyfitter_cfg.c ****     /* If we have a clock startup error (bad MHz crystal, PLL lock, etc.),  */
  61:.\Generated_Source\PSoC5/cyfitter_cfg.c ****     /* we will end up here to allow the customer to implement something to  */
  62:.\Generated_Source\PSoC5/cyfitter_cfg.c ****     /* deal with the clock condition.                                       */
  63:.\Generated_Source\PSoC5/cyfitter_cfg.c **** 
  64:.\Generated_Source\PSoC5/cyfitter_cfg.c ****     /* `#END` */
  65:.\Generated_Source\PSoC5/cyfitter_cfg.c **** 
  66:.\Generated_Source\PSoC5/cyfitter_cfg.c ****     /* If nothing else, stop here since the clocks have not started         */
  67:.\Generated_Source\PSoC5/cyfitter_cfg.c ****     /* correctly.                                                           */
  68:.\Generated_Source\PSoC5/cyfitter_cfg.c ****     while(1) {}
  69:.\Generated_Source\PSoC5/cyfitter_cfg.c **** }
  70:.\Generated_Source\PSoC5/cyfitter_cfg.c **** #endif
  71:.\Generated_Source\PSoC5/cyfitter_cfg.c **** 
  72:.\Generated_Source\PSoC5/cyfitter_cfg.c **** 
  73:.\Generated_Source\PSoC5/cyfitter_cfg.c **** #if defined(__GNUC__) || defined(__ARMCC_VERSION)
  74:.\Generated_Source\PSoC5/cyfitter_cfg.c **** 	#define CYPACKED __attribute__ ((packed))
  75:.\Generated_Source\PSoC5/cyfitter_cfg.c **** 	#define CYALIGNED __attribute__ ((aligned))
  76:.\Generated_Source\PSoC5/cyfitter_cfg.c **** 	
  77:.\Generated_Source\PSoC5/cyfitter_cfg.c **** 	#if defined(__ARMCC_VERSION)
  78:.\Generated_Source\PSoC5/cyfitter_cfg.c **** 		#define CY_CFG_MEMORY_BARRIER() __memory_changed()
  79:.\Generated_Source\PSoC5/cyfitter_cfg.c **** 	#else
  80:.\Generated_Source\PSoC5/cyfitter_cfg.c **** 		#define CY_CFG_MEMORY_BARRIER() __sync_synchronize()
ARM GAS  C:\Users\Martin\AppData\Local\Temp\ccSl8uza.s 			page 3


  81:.\Generated_Source\PSoC5/cyfitter_cfg.c **** 	#endif
  82:.\Generated_Source\PSoC5/cyfitter_cfg.c **** 	
  83:.\Generated_Source\PSoC5/cyfitter_cfg.c **** 	/*******************************************************************************
  84:.\Generated_Source\PSoC5/cyfitter_cfg.c **** 	* Function Name: CYMEMZERO8
  85:.\Generated_Source\PSoC5/cyfitter_cfg.c **** 	********************************************************************************
  86:.\Generated_Source\PSoC5/cyfitter_cfg.c **** 	* Summary:
  87:.\Generated_Source\PSoC5/cyfitter_cfg.c **** 	*  This function is provided as a way to initialize a block of memory to zero
  88:.\Generated_Source\PSoC5/cyfitter_cfg.c **** 	*  one byte at a time.  While this is a 32bit processor, some of the 
  89:.\Generated_Source\PSoC5/cyfitter_cfg.c **** 	*  configuration registers are only 8bits wide.  This allows us to initialize
  90:.\Generated_Source\PSoC5/cyfitter_cfg.c **** 	*  just the registers we care about.
  91:.\Generated_Source\PSoC5/cyfitter_cfg.c **** 	*
  92:.\Generated_Source\PSoC5/cyfitter_cfg.c **** 	* Parameters:  
  93:.\Generated_Source\PSoC5/cyfitter_cfg.c **** 	*   addr  - The first address to start writing zero to.
  94:.\Generated_Source\PSoC5/cyfitter_cfg.c **** 	*   count - The number of bytes to write 0 to.
  95:.\Generated_Source\PSoC5/cyfitter_cfg.c **** 	*
  96:.\Generated_Source\PSoC5/cyfitter_cfg.c **** 	* Return:
  97:.\Generated_Source\PSoC5/cyfitter_cfg.c **** 	*   void
  98:.\Generated_Source\PSoC5/cyfitter_cfg.c **** 	*
  99:.\Generated_Source\PSoC5/cyfitter_cfg.c **** 	*******************************************************************************/
 100:.\Generated_Source\PSoC5/cyfitter_cfg.c **** 	__attribute__ ((unused))
 101:.\Generated_Source\PSoC5/cyfitter_cfg.c **** 	static void CYMEMZERO8(void *addr, uint32 count);
 102:.\Generated_Source\PSoC5/cyfitter_cfg.c **** 	__attribute__ ((unused))
 103:.\Generated_Source\PSoC5/cyfitter_cfg.c **** 	static void CYMEMZERO8(void *addr, uint32 count)
 104:.\Generated_Source\PSoC5/cyfitter_cfg.c **** 	{
  31              		.loc 1 104 0
  32              		.cfi_startproc
  33              		@ args = 0, pretend = 0, frame = 16
  34              		@ frame_needed = 1, uses_anonymous_args = 0
  35              		@ link register save eliminated.
  36 0000 80B4     		push	{r7}
  37              	.LCFI0:
  38              		.cfi_def_cfa_offset 4
  39 0002 85B0     		sub	sp, sp, #20
  40              	.LCFI1:
  41              		.cfi_def_cfa_offset 24
  42 0004 00AF     		add	r7, sp, #0
  43              		.cfi_offset 7, -4
  44              	.LCFI2:
  45              		.cfi_def_cfa_register 7
  46 0006 7860     		str	r0, [r7, #4]
  47 0008 3960     		str	r1, [r7, #0]
 105:.\Generated_Source\PSoC5/cyfitter_cfg.c **** 		volatile uint8 * const addr8 = (volatile uint8 *)addr;
  48              		.loc 1 105 0
  49 000a 7B68     		ldr	r3, [r7, #4]
  50 000c BB60     		str	r3, [r7, #8]
 106:.\Generated_Source\PSoC5/cyfitter_cfg.c **** 		uint32 i;
 107:.\Generated_Source\PSoC5/cyfitter_cfg.c **** 		for (i = 0u; i < count; i++)
  51              		.loc 1 107 0
  52 000e 4FF00003 		mov	r3, #0
  53 0012 FB60     		str	r3, [r7, #12]
  54 0014 09E0     		b	.L2
  55              	.L3:
 108:.\Generated_Source\PSoC5/cyfitter_cfg.c **** 		{
 109:.\Generated_Source\PSoC5/cyfitter_cfg.c **** 			addr8[i] = 0u;
  56              		.loc 1 109 0
  57 0016 BA68     		ldr	r2, [r7, #8]
  58 0018 FB68     		ldr	r3, [r7, #12]
ARM GAS  C:\Users\Martin\AppData\Local\Temp\ccSl8uza.s 			page 4


  59 001a 1344     		add	r3, r2, r3
  60 001c 4FF00002 		mov	r2, #0
  61 0020 1A70     		strb	r2, [r3, #0]
  62              		.loc 1 107 0
  63 0022 FB68     		ldr	r3, [r7, #12]
  64 0024 03F10103 		add	r3, r3, #1
  65 0028 FB60     		str	r3, [r7, #12]
  66              	.L2:
  67 002a FA68     		ldr	r2, [r7, #12]
  68 002c 3B68     		ldr	r3, [r7, #0]
  69 002e 9A42     		cmp	r2, r3
  70 0030 F1D3     		bcc	.L3
 110:.\Generated_Source\PSoC5/cyfitter_cfg.c **** 		}
 111:.\Generated_Source\PSoC5/cyfitter_cfg.c **** 	}
  71              		.loc 1 111 0
  72 0032 07F11407 		add	r7, r7, #20
  73 0036 BD46     		mov	sp, r7
  74 0038 80BC     		pop	{r7}
  75 003a 7047     		bx	lr
  76              		.cfi_endproc
  77              	.LFE0:
  78              		.size	CYMEMZERO8, .-CYMEMZERO8
  79              		.section	.text.CYCONFIGCPY8,"ax",%progbits
  80              		.align	2
  81              		.thumb
  82              		.thumb_func
  83              		.type	CYCONFIGCPY8, %function
  84              	CYCONFIGCPY8:
  85              	.LFB1:
 112:.\Generated_Source\PSoC5/cyfitter_cfg.c **** 
 113:.\Generated_Source\PSoC5/cyfitter_cfg.c **** 	/*******************************************************************************
 114:.\Generated_Source\PSoC5/cyfitter_cfg.c **** 	* Function Name: CYCONFIGCPY8
 115:.\Generated_Source\PSoC5/cyfitter_cfg.c **** 	********************************************************************************
 116:.\Generated_Source\PSoC5/cyfitter_cfg.c **** 	* Summary:
 117:.\Generated_Source\PSoC5/cyfitter_cfg.c **** 	*  This function is provided as a way to copy data from one location to another
 118:.\Generated_Source\PSoC5/cyfitter_cfg.c **** 	*  one byte at a time.  While this is a 32bit processor, some of the 
 119:.\Generated_Source\PSoC5/cyfitter_cfg.c **** 	*  configuration registers are only 8bits wide.  This allows us to initialize
 120:.\Generated_Source\PSoC5/cyfitter_cfg.c **** 	*  just the registers we care about.
 121:.\Generated_Source\PSoC5/cyfitter_cfg.c **** 	*
 122:.\Generated_Source\PSoC5/cyfitter_cfg.c **** 	* Parameters:  
 123:.\Generated_Source\PSoC5/cyfitter_cfg.c **** 	*   dest  - The destination address to copy data to.
 124:.\Generated_Source\PSoC5/cyfitter_cfg.c **** 	*   src   - The source address to copy data from.
 125:.\Generated_Source\PSoC5/cyfitter_cfg.c **** 	*   count - The number of bytes to copy from 'src' to 'dest'.
 126:.\Generated_Source\PSoC5/cyfitter_cfg.c **** 	*
 127:.\Generated_Source\PSoC5/cyfitter_cfg.c **** 	* Return:
 128:.\Generated_Source\PSoC5/cyfitter_cfg.c **** 	*   void
 129:.\Generated_Source\PSoC5/cyfitter_cfg.c **** 	*
 130:.\Generated_Source\PSoC5/cyfitter_cfg.c **** 	*******************************************************************************/
 131:.\Generated_Source\PSoC5/cyfitter_cfg.c **** 	__attribute__ ((unused))
 132:.\Generated_Source\PSoC5/cyfitter_cfg.c **** 	static void CYCONFIGCPY8(void *dest, const void *src, uint32 count);
 133:.\Generated_Source\PSoC5/cyfitter_cfg.c **** 	__attribute__ ((unused))
 134:.\Generated_Source\PSoC5/cyfitter_cfg.c **** 	static void CYCONFIGCPY8(void *dest, const void *src, uint32 count)
 135:.\Generated_Source\PSoC5/cyfitter_cfg.c **** 	{
  86              		.loc 1 135 0
  87              		.cfi_startproc
  88              		@ args = 0, pretend = 0, frame = 32
  89              		@ frame_needed = 1, uses_anonymous_args = 0
ARM GAS  C:\Users\Martin\AppData\Local\Temp\ccSl8uza.s 			page 5


  90              		@ link register save eliminated.
  91 0000 80B4     		push	{r7}
  92              	.LCFI3:
  93              		.cfi_def_cfa_offset 4
  94 0002 89B0     		sub	sp, sp, #36
  95              	.LCFI4:
  96              		.cfi_def_cfa_offset 40
  97 0004 00AF     		add	r7, sp, #0
  98              		.cfi_offset 7, -4
  99              	.LCFI5:
 100              		.cfi_def_cfa_register 7
 101 0006 F860     		str	r0, [r7, #12]
 102 0008 B960     		str	r1, [r7, #8]
 103 000a 7A60     		str	r2, [r7, #4]
 136:.\Generated_Source\PSoC5/cyfitter_cfg.c **** 		volatile uint8 * const dest8 = (volatile uint8 *)dest;
 104              		.loc 1 136 0
 105 000c FB68     		ldr	r3, [r7, #12]
 106 000e 7B61     		str	r3, [r7, #20]
 137:.\Generated_Source\PSoC5/cyfitter_cfg.c **** 		const uint8 * const src8 = (const uint8 *)src;
 107              		.loc 1 137 0
 108 0010 BB68     		ldr	r3, [r7, #8]
 109 0012 BB61     		str	r3, [r7, #24]
 138:.\Generated_Source\PSoC5/cyfitter_cfg.c **** 		uint32 i;
 139:.\Generated_Source\PSoC5/cyfitter_cfg.c **** 		for (i = 0u; i < count; i++)
 110              		.loc 1 139 0
 111 0014 4FF00003 		mov	r3, #0
 112 0018 FB61     		str	r3, [r7, #28]
 113 001a 0BE0     		b	.L6
 114              	.L7:
 140:.\Generated_Source\PSoC5/cyfitter_cfg.c **** 		{
 141:.\Generated_Source\PSoC5/cyfitter_cfg.c **** 			dest8[i] = src8[i];
 115              		.loc 1 141 0
 116 001c 7A69     		ldr	r2, [r7, #20]
 117 001e FB69     		ldr	r3, [r7, #28]
 118 0020 1344     		add	r3, r2, r3
 119 0022 B969     		ldr	r1, [r7, #24]
 120 0024 FA69     		ldr	r2, [r7, #28]
 121 0026 0A44     		add	r2, r1, r2
 122 0028 1278     		ldrb	r2, [r2, #0]	@ zero_extendqisi2
 123 002a 1A70     		strb	r2, [r3, #0]
 124              		.loc 1 139 0
 125 002c FB69     		ldr	r3, [r7, #28]
 126 002e 03F10103 		add	r3, r3, #1
 127 0032 FB61     		str	r3, [r7, #28]
 128              	.L6:
 129 0034 FA69     		ldr	r2, [r7, #28]
 130 0036 7B68     		ldr	r3, [r7, #4]
 131 0038 9A42     		cmp	r2, r3
 132 003a EFD3     		bcc	.L7
 142:.\Generated_Source\PSoC5/cyfitter_cfg.c **** 		}
 143:.\Generated_Source\PSoC5/cyfitter_cfg.c **** 	}
 133              		.loc 1 143 0
 134 003c 07F12407 		add	r7, r7, #36
 135 0040 BD46     		mov	sp, r7
 136 0042 80BC     		pop	{r7}
 137 0044 7047     		bx	lr
 138              		.cfi_endproc
ARM GAS  C:\Users\Martin\AppData\Local\Temp\ccSl8uza.s 			page 6


 139              	.LFE1:
 140              		.size	CYCONFIGCPY8, .-CYCONFIGCPY8
 141 0046 00BF     		.section	.text.CYCONFIGCPYCODE8,"ax",%progbits
 142              		.align	2
 143              		.thumb
 144              		.thumb_func
 145              		.type	CYCONFIGCPYCODE8, %function
 146              	CYCONFIGCPYCODE8:
 147              	.LFB2:
 144:.\Generated_Source\PSoC5/cyfitter_cfg.c **** 
 145:.\Generated_Source\PSoC5/cyfitter_cfg.c **** 	/*******************************************************************************
 146:.\Generated_Source\PSoC5/cyfitter_cfg.c **** 	* Function Name: CYCONFIGCPYCODE8
 147:.\Generated_Source\PSoC5/cyfitter_cfg.c **** 	********************************************************************************
 148:.\Generated_Source\PSoC5/cyfitter_cfg.c **** 	* Summary:
 149:.\Generated_Source\PSoC5/cyfitter_cfg.c **** 	*  This function is provided as a way to copy data from one location to another
 150:.\Generated_Source\PSoC5/cyfitter_cfg.c **** 	*  one byte at a time.  While this is a 32bit processor, some of the 
 151:.\Generated_Source\PSoC5/cyfitter_cfg.c **** 	*  configuration registers are only 8bits wide.  This allows us to initialize
 152:.\Generated_Source\PSoC5/cyfitter_cfg.c **** 	*  just the registers we care about.
 153:.\Generated_Source\PSoC5/cyfitter_cfg.c **** 	*
 154:.\Generated_Source\PSoC5/cyfitter_cfg.c **** 	* Parameters:  
 155:.\Generated_Source\PSoC5/cyfitter_cfg.c **** 	*   dest  - The destination address to copy data to.
 156:.\Generated_Source\PSoC5/cyfitter_cfg.c **** 	*   src   - The source address to copy data from.
 157:.\Generated_Source\PSoC5/cyfitter_cfg.c **** 	*   count - The number of bytes to copy from 'src' to 'dest'.
 158:.\Generated_Source\PSoC5/cyfitter_cfg.c **** 	*
 159:.\Generated_Source\PSoC5/cyfitter_cfg.c **** 	* Return:
 160:.\Generated_Source\PSoC5/cyfitter_cfg.c **** 	*   void
 161:.\Generated_Source\PSoC5/cyfitter_cfg.c **** 	*
 162:.\Generated_Source\PSoC5/cyfitter_cfg.c **** 	*******************************************************************************/
 163:.\Generated_Source\PSoC5/cyfitter_cfg.c **** 	__attribute__ ((unused))
 164:.\Generated_Source\PSoC5/cyfitter_cfg.c **** 	static void CYCONFIGCPYCODE8(void *dest, const void *src, uint32 count);
 165:.\Generated_Source\PSoC5/cyfitter_cfg.c **** 	__attribute__ ((unused))
 166:.\Generated_Source\PSoC5/cyfitter_cfg.c **** 	static void CYCONFIGCPYCODE8(void *dest, const void *src, uint32 count)
 167:.\Generated_Source\PSoC5/cyfitter_cfg.c **** 	{
 148              		.loc 1 167 0
 149              		.cfi_startproc
 150              		@ args = 0, pretend = 0, frame = 16
 151              		@ frame_needed = 1, uses_anonymous_args = 0
 152 0000 80B5     		push	{r7, lr}
 153              	.LCFI6:
 154              		.cfi_def_cfa_offset 8
 155 0002 84B0     		sub	sp, sp, #16
 156              	.LCFI7:
 157              		.cfi_def_cfa_offset 24
 158 0004 00AF     		add	r7, sp, #0
 159              		.cfi_offset 14, -4
 160              		.cfi_offset 7, -8
 161              	.LCFI8:
 162              		.cfi_def_cfa_register 7
 163 0006 F860     		str	r0, [r7, #12]
 164 0008 B960     		str	r1, [r7, #8]
 165 000a 7A60     		str	r2, [r7, #4]
 168:.\Generated_Source\PSoC5/cyfitter_cfg.c **** 		CYCONFIGCPY8(dest, src, count);
 166              		.loc 1 168 0
 167 000c F868     		ldr	r0, [r7, #12]
 168 000e B968     		ldr	r1, [r7, #8]
 169 0010 7A68     		ldr	r2, [r7, #4]
 170 0012 FFF7FEFF 		bl	CYCONFIGCPY8
ARM GAS  C:\Users\Martin\AppData\Local\Temp\ccSl8uza.s 			page 7


 169:.\Generated_Source\PSoC5/cyfitter_cfg.c **** 	}
 171              		.loc 1 169 0
 172 0016 07F11007 		add	r7, r7, #16
 173 001a BD46     		mov	sp, r7
 174 001c 80BD     		pop	{r7, pc}
 175              		.cfi_endproc
 176              	.LFE2:
 177              		.size	CYCONFIGCPYCODE8, .-CYCONFIGCPYCODE8
 178 001e 00BF     		.section	.text.CYMEMZERO,"ax",%progbits
 179              		.align	2
 180              		.thumb
 181              		.thumb_func
 182              		.type	CYMEMZERO, %function
 183              	CYMEMZERO:
 184              	.LFB3:
 170:.\Generated_Source\PSoC5/cyfitter_cfg.c **** 
 171:.\Generated_Source\PSoC5/cyfitter_cfg.c **** 	__attribute__ ((unused))
 172:.\Generated_Source\PSoC5/cyfitter_cfg.c **** 	static void CYMEMZERO(void *s, size_t n);
 173:.\Generated_Source\PSoC5/cyfitter_cfg.c **** 	__attribute__ ((unused))
 174:.\Generated_Source\PSoC5/cyfitter_cfg.c **** 	static void CYMEMZERO(void *s, size_t n)
 175:.\Generated_Source\PSoC5/cyfitter_cfg.c **** 	{
 185              		.loc 1 175 0
 186              		.cfi_startproc
 187              		@ args = 0, pretend = 0, frame = 8
 188              		@ frame_needed = 1, uses_anonymous_args = 0
 189 0000 80B5     		push	{r7, lr}
 190              	.LCFI9:
 191              		.cfi_def_cfa_offset 8
 192 0002 82B0     		sub	sp, sp, #8
 193              	.LCFI10:
 194              		.cfi_def_cfa_offset 16
 195 0004 00AF     		add	r7, sp, #0
 196              		.cfi_offset 14, -4
 197              		.cfi_offset 7, -8
 198              	.LCFI11:
 199              		.cfi_def_cfa_register 7
 200 0006 7860     		str	r0, [r7, #4]
 201 0008 3960     		str	r1, [r7, #0]
 176:.\Generated_Source\PSoC5/cyfitter_cfg.c **** 		(void)memset(s, 0, n);
 202              		.loc 1 176 0
 203 000a 7868     		ldr	r0, [r7, #4]
 204 000c 4FF00001 		mov	r1, #0
 205 0010 3A68     		ldr	r2, [r7, #0]
 206 0012 FFF7FEFF 		bl	memset
 177:.\Generated_Source\PSoC5/cyfitter_cfg.c **** 	}
 207              		.loc 1 177 0
 208 0016 07F10807 		add	r7, r7, #8
 209 001a BD46     		mov	sp, r7
 210 001c 80BD     		pop	{r7, pc}
 211              		.cfi_endproc
 212              	.LFE3:
 213              		.size	CYMEMZERO, .-CYMEMZERO
 214 001e 00BF     		.section	.text.CYCONFIGCPY,"ax",%progbits
 215              		.align	2
 216              		.thumb
 217              		.thumb_func
 218              		.type	CYCONFIGCPY, %function
ARM GAS  C:\Users\Martin\AppData\Local\Temp\ccSl8uza.s 			page 8


 219              	CYCONFIGCPY:
 220              	.LFB4:
 178:.\Generated_Source\PSoC5/cyfitter_cfg.c **** 	__attribute__ ((unused))
 179:.\Generated_Source\PSoC5/cyfitter_cfg.c **** 	static void CYCONFIGCPY(void *dest, const void *src, size_t n);
 180:.\Generated_Source\PSoC5/cyfitter_cfg.c **** 	__attribute__ ((unused))
 181:.\Generated_Source\PSoC5/cyfitter_cfg.c **** 	static void CYCONFIGCPY(void *dest, const void *src, size_t n)
 182:.\Generated_Source\PSoC5/cyfitter_cfg.c **** 	{
 221              		.loc 1 182 0
 222              		.cfi_startproc
 223              		@ args = 0, pretend = 0, frame = 16
 224              		@ frame_needed = 1, uses_anonymous_args = 0
 225 0000 80B5     		push	{r7, lr}
 226              	.LCFI12:
 227              		.cfi_def_cfa_offset 8
 228 0002 84B0     		sub	sp, sp, #16
 229              	.LCFI13:
 230              		.cfi_def_cfa_offset 24
 231 0004 00AF     		add	r7, sp, #0
 232              		.cfi_offset 14, -4
 233              		.cfi_offset 7, -8
 234              	.LCFI14:
 235              		.cfi_def_cfa_register 7
 236 0006 F860     		str	r0, [r7, #12]
 237 0008 B960     		str	r1, [r7, #8]
 238 000a 7A60     		str	r2, [r7, #4]
 183:.\Generated_Source\PSoC5/cyfitter_cfg.c **** 		(void)memcpy(dest, src, n);
 239              		.loc 1 183 0
 240 000c F868     		ldr	r0, [r7, #12]
 241 000e B968     		ldr	r1, [r7, #8]
 242 0010 7A68     		ldr	r2, [r7, #4]
 243 0012 FFF7FEFF 		bl	memcpy
 184:.\Generated_Source\PSoC5/cyfitter_cfg.c **** 	}
 244              		.loc 1 184 0
 245 0016 07F11007 		add	r7, r7, #16
 246 001a BD46     		mov	sp, r7
 247 001c 80BD     		pop	{r7, pc}
 248              		.cfi_endproc
 249              	.LFE4:
 250              		.size	CYCONFIGCPY, .-CYCONFIGCPY
 251 001e 00BF     		.section	.text.CYCONFIGCPYCODE,"ax",%progbits
 252              		.align	2
 253              		.thumb
 254              		.thumb_func
 255              		.type	CYCONFIGCPYCODE, %function
 256              	CYCONFIGCPYCODE:
 257              	.LFB5:
 185:.\Generated_Source\PSoC5/cyfitter_cfg.c **** 	__attribute__ ((unused))
 186:.\Generated_Source\PSoC5/cyfitter_cfg.c **** 	static void CYCONFIGCPYCODE(void *dest, const void *src, size_t n);
 187:.\Generated_Source\PSoC5/cyfitter_cfg.c **** 	__attribute__ ((unused))
 188:.\Generated_Source\PSoC5/cyfitter_cfg.c **** 	static void CYCONFIGCPYCODE(void *dest, const void *src, size_t n)
 189:.\Generated_Source\PSoC5/cyfitter_cfg.c **** 	{
 258              		.loc 1 189 0
 259              		.cfi_startproc
 260              		@ args = 0, pretend = 0, frame = 16
 261              		@ frame_needed = 1, uses_anonymous_args = 0
 262 0000 80B5     		push	{r7, lr}
 263              	.LCFI15:
ARM GAS  C:\Users\Martin\AppData\Local\Temp\ccSl8uza.s 			page 9


 264              		.cfi_def_cfa_offset 8
 265 0002 84B0     		sub	sp, sp, #16
 266              	.LCFI16:
 267              		.cfi_def_cfa_offset 24
 268 0004 00AF     		add	r7, sp, #0
 269              		.cfi_offset 14, -4
 270              		.cfi_offset 7, -8
 271              	.LCFI17:
 272              		.cfi_def_cfa_register 7
 273 0006 F860     		str	r0, [r7, #12]
 274 0008 B960     		str	r1, [r7, #8]
 275 000a 7A60     		str	r2, [r7, #4]
 190:.\Generated_Source\PSoC5/cyfitter_cfg.c **** 		(void)memcpy(dest, src, n);
 276              		.loc 1 190 0
 277 000c F868     		ldr	r0, [r7, #12]
 278 000e B968     		ldr	r1, [r7, #8]
 279 0010 7A68     		ldr	r2, [r7, #4]
 280 0012 FFF7FEFF 		bl	memcpy
 191:.\Generated_Source\PSoC5/cyfitter_cfg.c **** 	}
 281              		.loc 1 191 0
 282 0016 07F11007 		add	r7, r7, #16
 283 001a BD46     		mov	sp, r7
 284 001c 80BD     		pop	{r7, pc}
 285              		.cfi_endproc
 286              	.LFE5:
 287              		.size	CYCONFIGCPYCODE, .-CYCONFIGCPYCODE
 288 001e 00BF     		.section	.text.ClockSetup,"ax",%progbits
 289              		.align	2
 290              		.thumb
 291              		.thumb_func
 292              		.type	ClockSetup, %function
 293              	ClockSetup:
 294              	.LFB6:
 192:.\Generated_Source\PSoC5/cyfitter_cfg.c **** #else
 193:.\Generated_Source\PSoC5/cyfitter_cfg.c **** 	#error Unsupported toolchain
 194:.\Generated_Source\PSoC5/cyfitter_cfg.c **** #endif
 195:.\Generated_Source\PSoC5/cyfitter_cfg.c **** 
 196:.\Generated_Source\PSoC5/cyfitter_cfg.c **** 
 197:.\Generated_Source\PSoC5/cyfitter_cfg.c **** /*******************************************************************************
 198:.\Generated_Source\PSoC5/cyfitter_cfg.c **** * Function Name: ClockSetup
 199:.\Generated_Source\PSoC5/cyfitter_cfg.c **** ********************************************************************************
 200:.\Generated_Source\PSoC5/cyfitter_cfg.c **** *
 201:.\Generated_Source\PSoC5/cyfitter_cfg.c **** * Summary:
 202:.\Generated_Source\PSoC5/cyfitter_cfg.c **** *  Performs the initialization of all of the clocks in the device based on the
 203:.\Generated_Source\PSoC5/cyfitter_cfg.c **** *  settings in the Clock tab of the DWR.  This includes enabling the requested
 204:.\Generated_Source\PSoC5/cyfitter_cfg.c **** *  clocks and setting the necessary dividers to produce the desired frequency. 
 205:.\Generated_Source\PSoC5/cyfitter_cfg.c **** *
 206:.\Generated_Source\PSoC5/cyfitter_cfg.c **** * Parameters:
 207:.\Generated_Source\PSoC5/cyfitter_cfg.c **** *  void
 208:.\Generated_Source\PSoC5/cyfitter_cfg.c **** *
 209:.\Generated_Source\PSoC5/cyfitter_cfg.c **** * Return:
 210:.\Generated_Source\PSoC5/cyfitter_cfg.c **** *  void
 211:.\Generated_Source\PSoC5/cyfitter_cfg.c **** *
 212:.\Generated_Source\PSoC5/cyfitter_cfg.c **** *******************************************************************************/
 213:.\Generated_Source\PSoC5/cyfitter_cfg.c **** static void ClockSetup(void);
 214:.\Generated_Source\PSoC5/cyfitter_cfg.c **** static void ClockSetup(void)
 215:.\Generated_Source\PSoC5/cyfitter_cfg.c **** {
ARM GAS  C:\Users\Martin\AppData\Local\Temp\ccSl8uza.s 			page 10


 295              		.loc 1 215 0
 296              		.cfi_startproc
 297              		@ args = 0, pretend = 0, frame = 0
 298              		@ frame_needed = 1, uses_anonymous_args = 0
 299 0000 80B5     		push	{r7, lr}
 300              	.LCFI18:
 301              		.cfi_def_cfa_offset 8
 302 0002 00AF     		add	r7, sp, #0
 303              		.cfi_offset 14, -4
 304              		.cfi_offset 7, -8
 305              	.LCFI19:
 306              		.cfi_def_cfa_register 7
 216:.\Generated_Source\PSoC5/cyfitter_cfg.c **** 
 217:.\Generated_Source\PSoC5/cyfitter_cfg.c **** 
 218:.\Generated_Source\PSoC5/cyfitter_cfg.c **** 	/* Configure ILO based on settings from Clock DWR */
 219:.\Generated_Source\PSoC5/cyfitter_cfg.c **** 	CY_SET_XTND_REG8((void CYFAR *)(CYREG_SLOWCLK_ILO_CR0), 0x02u);
 307              		.loc 1 219 0
 308 0004 44F20033 		movw	r3, #:lower16:1073758976
 309 0008 C4F20003 		movt	r3, #:upper16:1073758976
 310 000c 4FF00202 		mov	r2, #2
 311 0010 1A70     		strb	r2, [r3, #0]
 220:.\Generated_Source\PSoC5/cyfitter_cfg.c **** 	CY_SET_XTND_REG8((void CYFAR *)(CYREG_CLKDIST_CR), 0x08u);
 312              		.loc 1 220 0
 313 0012 44F20003 		movw	r3, #:lower16:1073758208
 314 0016 C4F20003 		movt	r3, #:upper16:1073758208
 315 001a 4FF00802 		mov	r2, #8
 316 001e 1A70     		strb	r2, [r3, #0]
 221:.\Generated_Source\PSoC5/cyfitter_cfg.c **** 
 222:.\Generated_Source\PSoC5/cyfitter_cfg.c **** 	/* Configure IMO based on settings from Clock DWR */
 223:.\Generated_Source\PSoC5/cyfitter_cfg.c **** 	CY_SET_XTND_REG8((void CYFAR *)(CYREG_FASTCLK_IMO_CR), 0x03u);
 317              		.loc 1 223 0
 318 0020 44F20023 		movw	r3, #:lower16:1073758720
 319 0024 C4F20003 		movt	r3, #:upper16:1073758720
 320 0028 4FF00302 		mov	r2, #3
 321 002c 1A70     		strb	r2, [r3, #0]
 224:.\Generated_Source\PSoC5/cyfitter_cfg.c **** 	CY_SET_XTND_REG8((void CYFAR *)(CYREG_IMO_TR1), (CY_GET_XTND_REG8((void CYFAR *)CYREG_FLSHID_CUST_
 322              		.loc 1 224 0
 323 002e 44F2A163 		movw	r3, #:lower16:1073759905
 324 0032 C4F20003 		movt	r3, #:upper16:1073759905
 325 0036 40F20812 		movw	r2, #:lower16:1224737032
 326 003a C4F60012 		movt	r2, #:upper16:1224737032
 327 003e 1278     		ldrb	r2, [r2, #0]
 328 0040 D2B2     		uxtb	r2, r2
 329 0042 1A70     		strb	r2, [r3, #0]
 225:.\Generated_Source\PSoC5/cyfitter_cfg.c **** 
 226:.\Generated_Source\PSoC5/cyfitter_cfg.c **** 	/* Configure PLL based on settings from Clock DWR */
 227:.\Generated_Source\PSoC5/cyfitter_cfg.c **** 	CY_SET_XTND_REG16((void CYFAR *)(CYREG_FASTCLK_PLL_P), 0x0008u);
 330              		.loc 1 227 0
 331 0044 44F22223 		movw	r3, #:lower16:1073758754
 332 0048 C4F20003 		movt	r3, #:upper16:1073758754
 333 004c 4FF00802 		mov	r2, #8
 334 0050 1A80     		strh	r2, [r3, #0]	@ movhi
 228:.\Generated_Source\PSoC5/cyfitter_cfg.c **** 	CY_SET_XTND_REG16((void CYFAR *)(CYREG_FASTCLK_PLL_CFG0), 0x1051u);
 335              		.loc 1 228 0
 336 0052 44F22023 		movw	r3, #:lower16:1073758752
 337 0056 C4F20003 		movt	r3, #:upper16:1073758752
 338 005a 41F25102 		movw	r2, #4177
ARM GAS  C:\Users\Martin\AppData\Local\Temp\ccSl8uza.s 			page 11


 339 005e 1A80     		strh	r2, [r3, #0]	@ movhi
 229:.\Generated_Source\PSoC5/cyfitter_cfg.c **** 	/* Wait 250us for the PLL to lock */
 230:.\Generated_Source\PSoC5/cyfitter_cfg.c **** 	CyDelayCycles(250u * 12u); /* Delay 250us based on 12MHz clock */
 340              		.loc 1 230 0
 341 0060 40F6B830 		movw	r0, #3000
 342 0064 FFF7FEFF 		bl	CyDelayCycles
 231:.\Generated_Source\PSoC5/cyfitter_cfg.c **** 
 232:.\Generated_Source\PSoC5/cyfitter_cfg.c **** 	/* Configure Bus/Master Clock based on settings from Clock DWR */
 233:.\Generated_Source\PSoC5/cyfitter_cfg.c **** 	CY_SET_XTND_REG8((void CYFAR *)(CYREG_CLKDIST_MSTR0), 0x03u);
 343              		.loc 1 233 0
 344 0068 44F20403 		movw	r3, #:lower16:1073758212
 345 006c C4F20003 		movt	r3, #:upper16:1073758212
 346 0070 4FF00302 		mov	r2, #3
 347 0074 1A70     		strb	r2, [r3, #0]
 234:.\Generated_Source\PSoC5/cyfitter_cfg.c **** 	CY_SET_XTND_REG8((void CYFAR *)(CYREG_CLKDIST_MSTR1), 0x01u);
 348              		.loc 1 234 0
 349 0076 44F20503 		movw	r3, #:lower16:1073758213
 350 007a C4F20003 		movt	r3, #:upper16:1073758213
 351 007e 4FF00102 		mov	r2, #1
 352 0082 1A70     		strb	r2, [r3, #0]
 235:.\Generated_Source\PSoC5/cyfitter_cfg.c **** 	CY_SET_XTND_REG8((void CYFAR *)(CYREG_CLKDIST_MSTR0), 0x00u);
 353              		.loc 1 235 0
 354 0084 44F20403 		movw	r3, #:lower16:1073758212
 355 0088 C4F20003 		movt	r3, #:upper16:1073758212
 356 008c 4FF00002 		mov	r2, #0
 357 0090 1A70     		strb	r2, [r3, #0]
 236:.\Generated_Source\PSoC5/cyfitter_cfg.c **** 	CY_SET_XTND_REG8((void CYFAR *)(CYREG_CLKDIST_MSTR0), 0x07u);
 358              		.loc 1 236 0
 359 0092 44F20403 		movw	r3, #:lower16:1073758212
 360 0096 C4F20003 		movt	r3, #:upper16:1073758212
 361 009a 4FF00702 		mov	r2, #7
 362 009e 1A70     		strb	r2, [r3, #0]
 237:.\Generated_Source\PSoC5/cyfitter_cfg.c **** 	CY_SET_XTND_REG8((void CYFAR *)(CYREG_CLKDIST_BCFG0), 0x00u);
 363              		.loc 1 237 0
 364 00a0 44F20603 		movw	r3, #:lower16:1073758214
 365 00a4 C4F20003 		movt	r3, #:upper16:1073758214
 366 00a8 4FF00002 		mov	r2, #0
 367 00ac 1A70     		strb	r2, [r3, #0]
 238:.\Generated_Source\PSoC5/cyfitter_cfg.c **** 	CY_SET_XTND_REG8((void CYFAR *)(CYREG_CLKDIST_BCFG2), 0x48u);
 368              		.loc 1 238 0
 369 00ae 44F20803 		movw	r3, #:lower16:1073758216
 370 00b2 C4F20003 		movt	r3, #:upper16:1073758216
 371 00b6 4FF04802 		mov	r2, #72
 372 00ba 1A70     		strb	r2, [r3, #0]
 239:.\Generated_Source\PSoC5/cyfitter_cfg.c **** 	CY_SET_XTND_REG8((void CYFAR *)(CYREG_CLKDIST_MSTR0), 0x00u);
 373              		.loc 1 239 0
 374 00bc 44F20403 		movw	r3, #:lower16:1073758212
 375 00c0 C4F20003 		movt	r3, #:upper16:1073758212
 376 00c4 4FF00002 		mov	r2, #0
 377 00c8 1A70     		strb	r2, [r3, #0]
 240:.\Generated_Source\PSoC5/cyfitter_cfg.c **** 	CY_SET_XTND_REG8((void CYFAR *)(CYREG_CLKDIST_LD), 0x02u);
 378              		.loc 1 240 0
 379 00ca 44F20103 		movw	r3, #:lower16:1073758209
 380 00ce C4F20003 		movt	r3, #:upper16:1073758209
 381 00d2 4FF00202 		mov	r2, #2
 382 00d6 1A70     		strb	r2, [r3, #0]
 241:.\Generated_Source\PSoC5/cyfitter_cfg.c **** }
ARM GAS  C:\Users\Martin\AppData\Local\Temp\ccSl8uza.s 			page 12


 383              		.loc 1 241 0
 384 00d8 80BD     		pop	{r7, pc}
 385              		.cfi_endproc
 386              	.LFE6:
 387              		.size	ClockSetup, .-ClockSetup
 388 00da 00BF     		.section	.text.AnalogSetDefault,"ax",%progbits
 389              		.align	2
 390              		.thumb
 391              		.thumb_func
 392              		.type	AnalogSetDefault, %function
 393              	AnalogSetDefault:
 394              	.LFB7:
 242:.\Generated_Source\PSoC5/cyfitter_cfg.c **** 
 243:.\Generated_Source\PSoC5/cyfitter_cfg.c **** 
 244:.\Generated_Source\PSoC5/cyfitter_cfg.c **** /* Analog API Functions */
 245:.\Generated_Source\PSoC5/cyfitter_cfg.c **** 
 246:.\Generated_Source\PSoC5/cyfitter_cfg.c **** 
 247:.\Generated_Source\PSoC5/cyfitter_cfg.c **** /*******************************************************************************
 248:.\Generated_Source\PSoC5/cyfitter_cfg.c **** * Function Name: AnalogSetDefault
 249:.\Generated_Source\PSoC5/cyfitter_cfg.c **** ********************************************************************************
 250:.\Generated_Source\PSoC5/cyfitter_cfg.c **** *
 251:.\Generated_Source\PSoC5/cyfitter_cfg.c **** * Summary:
 252:.\Generated_Source\PSoC5/cyfitter_cfg.c **** *  Sets up the analog portions of the chip to default values based on chip
 253:.\Generated_Source\PSoC5/cyfitter_cfg.c **** *  configuration options from the project.
 254:.\Generated_Source\PSoC5/cyfitter_cfg.c **** *
 255:.\Generated_Source\PSoC5/cyfitter_cfg.c **** * Parameters:
 256:.\Generated_Source\PSoC5/cyfitter_cfg.c **** *  void
 257:.\Generated_Source\PSoC5/cyfitter_cfg.c **** *
 258:.\Generated_Source\PSoC5/cyfitter_cfg.c **** * Return:
 259:.\Generated_Source\PSoC5/cyfitter_cfg.c **** *  void
 260:.\Generated_Source\PSoC5/cyfitter_cfg.c **** *
 261:.\Generated_Source\PSoC5/cyfitter_cfg.c **** *******************************************************************************/
 262:.\Generated_Source\PSoC5/cyfitter_cfg.c **** static void AnalogSetDefault(void);
 263:.\Generated_Source\PSoC5/cyfitter_cfg.c **** static void AnalogSetDefault(void)
 264:.\Generated_Source\PSoC5/cyfitter_cfg.c **** {
 395              		.loc 1 264 0
 396              		.cfi_startproc
 397              		@ args = 0, pretend = 0, frame = 0
 398              		@ frame_needed = 1, uses_anonymous_args = 0
 399              		@ link register save eliminated.
 400 0000 80B4     		push	{r7}
 401              	.LCFI20:
 402              		.cfi_def_cfa_offset 4
 403 0002 00AF     		add	r7, sp, #0
 404              		.cfi_offset 7, -4
 405              	.LCFI21:
 406              		.cfi_def_cfa_register 7
 265:.\Generated_Source\PSoC5/cyfitter_cfg.c **** 	CY_SET_XTND_REG16((void CYFAR *)CYREG_PM_ACT_CFG10, 0x0310u);
 407              		.loc 1 265 0
 408 0004 44F2AA33 		movw	r3, #:lower16:1073759146
 409 0008 C4F20003 		movt	r3, #:upper16:1073759146
 410 000c 4FF44472 		mov	r2, #784
 411 0010 1A80     		strh	r2, [r3, #0]	@ movhi
 266:.\Generated_Source\PSoC5/cyfitter_cfg.c **** 	CY_SET_XTND_REG8((void CYFAR *)CYREG_DAC0_CR0, 0x1Eu);
 412              		.loc 1 266 0
 413 0012 45F62003 		movw	r3, #:lower16:1073764384
 414 0016 C4F20003 		movt	r3, #:upper16:1073764384
ARM GAS  C:\Users\Martin\AppData\Local\Temp\ccSl8uza.s 			page 13


 415 001a 4FF01E02 		mov	r2, #30
 416 001e 1A70     		strb	r2, [r3, #0]
 267:.\Generated_Source\PSoC5/cyfitter_cfg.c **** 	CY_SET_XTND_REG8((void CYFAR *)CYREG_DAC1_CR0, 0x1Eu);
 417              		.loc 1 267 0
 418 0020 45F62403 		movw	r3, #:lower16:1073764388
 419 0024 C4F20003 		movt	r3, #:upper16:1073764388
 420 0028 4FF01E02 		mov	r2, #30
 421 002c 1A70     		strb	r2, [r3, #0]
 268:.\Generated_Source\PSoC5/cyfitter_cfg.c **** 	CY_SET_XTND_REG8((void CYFAR *)CYREG_DAC2_CR0, 0x1Eu);
 422              		.loc 1 268 0
 423 002e 45F62803 		movw	r3, #:lower16:1073764392
 424 0032 C4F20003 		movt	r3, #:upper16:1073764392
 425 0036 4FF01E02 		mov	r2, #30
 426 003a 1A70     		strb	r2, [r3, #0]
 269:.\Generated_Source\PSoC5/cyfitter_cfg.c **** 	CY_SET_XTND_REG8((void CYFAR *)CYREG_DAC3_CR0, 0x1Eu);
 427              		.loc 1 269 0
 428 003c 45F62C03 		movw	r3, #:lower16:1073764396
 429 0040 C4F20003 		movt	r3, #:upper16:1073764396
 430 0044 4FF01E02 		mov	r2, #30
 431 0048 1A70     		strb	r2, [r3, #0]
 270:.\Generated_Source\PSoC5/cyfitter_cfg.c **** 	CY_SET_XTND_REG8((void CYFAR *)CYREG_SAR0_CSR0, 0xC0u);
 432              		.loc 1 270 0
 433 004a 45F60013 		movw	r3, #:lower16:1073764608
 434 004e C4F20003 		movt	r3, #:upper16:1073764608
 435 0052 6FF03F02 		mvn	r2, #63
 436 0056 1A70     		strb	r2, [r3, #0]
 271:.\Generated_Source\PSoC5/cyfitter_cfg.c **** 	CY_SET_XTND_REG8((void CYFAR *)CYREG_SAR0_CSR3, 0x0Cu);
 437              		.loc 1 271 0
 438 0058 45F60313 		movw	r3, #:lower16:1073764611
 439 005c C4F20003 		movt	r3, #:upper16:1073764611
 440 0060 4FF00C02 		mov	r2, #12
 441 0064 1A70     		strb	r2, [r3, #0]
 272:.\Generated_Source\PSoC5/cyfitter_cfg.c **** 	CY_SET_XTND_REG8((void CYFAR *)CYREG_SAR1_CSR0, 0xC0u);
 442              		.loc 1 272 0
 443 0066 45F60813 		movw	r3, #:lower16:1073764616
 444 006a C4F20003 		movt	r3, #:upper16:1073764616
 445 006e 6FF03F02 		mvn	r2, #63
 446 0072 1A70     		strb	r2, [r3, #0]
 273:.\Generated_Source\PSoC5/cyfitter_cfg.c **** 	CY_SET_XTND_REG8((void CYFAR *)CYREG_SAR1_CSR3, 0x0Cu);
 447              		.loc 1 273 0
 448 0074 45F60B13 		movw	r3, #:lower16:1073764619
 449 0078 C4F20003 		movt	r3, #:upper16:1073764619
 450 007c 4FF00C02 		mov	r2, #12
 451 0080 1A70     		strb	r2, [r3, #0]
 274:.\Generated_Source\PSoC5/cyfitter_cfg.c **** 	CY_SET_XTND_REG8((void CYFAR *)CYREG_PUMP_CR0, 0x44u);
 452              		.loc 1 274 0
 453 0082 45F67603 		movw	r3, #:lower16:1073764470
 454 0086 C4F20003 		movt	r3, #:upper16:1073764470
 455 008a 4FF04402 		mov	r2, #68
 456 008e 1A70     		strb	r2, [r3, #0]
 275:.\Generated_Source\PSoC5/cyfitter_cfg.c **** }
 457              		.loc 1 275 0
 458 0090 BD46     		mov	sp, r7
 459 0092 80BC     		pop	{r7}
 460 0094 7047     		bx	lr
 461              		.cfi_endproc
 462              	.LFE7:
ARM GAS  C:\Users\Martin\AppData\Local\Temp\ccSl8uza.s 			page 14


 463              		.size	AnalogSetDefault, .-AnalogSetDefault
 464 0096 00BF     		.section	.text.SetAnalogRoutingPumps,"ax",%progbits
 465              		.align	2
 466              		.global	SetAnalogRoutingPumps
 467              		.thumb
 468              		.thumb_func
 469              		.type	SetAnalogRoutingPumps, %function
 470              	SetAnalogRoutingPumps:
 471              	.LFB8:
 276:.\Generated_Source\PSoC5/cyfitter_cfg.c **** 
 277:.\Generated_Source\PSoC5/cyfitter_cfg.c **** 
 278:.\Generated_Source\PSoC5/cyfitter_cfg.c **** /*******************************************************************************
 279:.\Generated_Source\PSoC5/cyfitter_cfg.c **** * Function Name: SetAnalogRoutingPumps
 280:.\Generated_Source\PSoC5/cyfitter_cfg.c **** ********************************************************************************
 281:.\Generated_Source\PSoC5/cyfitter_cfg.c **** *
 282:.\Generated_Source\PSoC5/cyfitter_cfg.c **** * Summary:
 283:.\Generated_Source\PSoC5/cyfitter_cfg.c **** * Enables or disables the analog pumps feeding analog routing switches.
 284:.\Generated_Source\PSoC5/cyfitter_cfg.c **** * Intended to be called at startup, based on the Vdda system configuration;
 285:.\Generated_Source\PSoC5/cyfitter_cfg.c **** * may be called during operation when the user informs us that the Vdda voltage
 286:.\Generated_Source\PSoC5/cyfitter_cfg.c **** * crossed the pump threshold.
 287:.\Generated_Source\PSoC5/cyfitter_cfg.c **** *
 288:.\Generated_Source\PSoC5/cyfitter_cfg.c **** * Parameters:
 289:.\Generated_Source\PSoC5/cyfitter_cfg.c **** *  enabled - 1 to enable the pumps, 0 to disable the pumps
 290:.\Generated_Source\PSoC5/cyfitter_cfg.c **** *
 291:.\Generated_Source\PSoC5/cyfitter_cfg.c **** * Return:
 292:.\Generated_Source\PSoC5/cyfitter_cfg.c **** *  void
 293:.\Generated_Source\PSoC5/cyfitter_cfg.c **** *
 294:.\Generated_Source\PSoC5/cyfitter_cfg.c **** *******************************************************************************/
 295:.\Generated_Source\PSoC5/cyfitter_cfg.c **** void SetAnalogRoutingPumps(uint8 enabled)
 296:.\Generated_Source\PSoC5/cyfitter_cfg.c **** {
 472              		.loc 1 296 0
 473              		.cfi_startproc
 474              		@ args = 0, pretend = 0, frame = 16
 475              		@ frame_needed = 1, uses_anonymous_args = 0
 476              		@ link register save eliminated.
 477 0000 80B4     		push	{r7}
 478              	.LCFI22:
 479              		.cfi_def_cfa_offset 4
 480 0002 85B0     		sub	sp, sp, #20
 481              	.LCFI23:
 482              		.cfi_def_cfa_offset 24
 483 0004 00AF     		add	r7, sp, #0
 484              		.cfi_offset 7, -4
 485              	.LCFI24:
 486              		.cfi_def_cfa_register 7
 487 0006 0346     		mov	r3, r0
 488 0008 FB71     		strb	r3, [r7, #7]
 297:.\Generated_Source\PSoC5/cyfitter_cfg.c **** 	uint8 regValue = CY_GET_XTND_REG8((void CYFAR *)CYREG_PUMP_CR0);
 489              		.loc 1 297 0
 490 000a 45F67603 		movw	r3, #:lower16:1073764470
 491 000e C4F20003 		movt	r3, #:upper16:1073764470
 492 0012 1B78     		ldrb	r3, [r3, #0]
 493 0014 FB73     		strb	r3, [r7, #15]
 298:.\Generated_Source\PSoC5/cyfitter_cfg.c **** 	if (enabled != 0u)
 494              		.loc 1 298 0
 495 0016 FB79     		ldrb	r3, [r7, #7]	@ zero_extendqisi2
 496 0018 002B     		cmp	r3, #0
ARM GAS  C:\Users\Martin\AppData\Local\Temp\ccSl8uza.s 			page 15


 299:.\Generated_Source\PSoC5/cyfitter_cfg.c **** 	{
 300:.\Generated_Source\PSoC5/cyfitter_cfg.c **** 		regValue |= 0x00u;
 301:.\Generated_Source\PSoC5/cyfitter_cfg.c **** 	}
 302:.\Generated_Source\PSoC5/cyfitter_cfg.c **** 	else
 303:.\Generated_Source\PSoC5/cyfitter_cfg.c **** 	{
 304:.\Generated_Source\PSoC5/cyfitter_cfg.c **** 		regValue &= (uint8)~0x00u;
 305:.\Generated_Source\PSoC5/cyfitter_cfg.c **** 	}
 306:.\Generated_Source\PSoC5/cyfitter_cfg.c **** 	CY_SET_XTND_REG8((void CYFAR *)CYREG_PUMP_CR0, regValue);
 497              		.loc 1 306 0
 498 001a 45F67603 		movw	r3, #:lower16:1073764470
 499 001e C4F20003 		movt	r3, #:upper16:1073764470
 500 0022 FA7B     		ldrb	r2, [r7, #15]
 501 0024 1A70     		strb	r2, [r3, #0]
 307:.\Generated_Source\PSoC5/cyfitter_cfg.c **** }
 502              		.loc 1 307 0
 503 0026 07F11407 		add	r7, r7, #20
 504 002a BD46     		mov	sp, r7
 505 002c 80BC     		pop	{r7}
 506 002e 7047     		bx	lr
 507              		.cfi_endproc
 508              	.LFE8:
 509              		.size	SetAnalogRoutingPumps, .-SetAnalogRoutingPumps
 510              		.section	.text.cyfitter_cfg,"ax",%progbits
 511              		.align	2
 512              		.global	cyfitter_cfg
 513              		.thumb
 514              		.thumb_func
 515              		.type	cyfitter_cfg, %function
 516              	cyfitter_cfg:
 517              	.LFB9:
 308:.\Generated_Source\PSoC5/cyfitter_cfg.c **** 
 309:.\Generated_Source\PSoC5/cyfitter_cfg.c **** #define CY_AMUX_UNUSED CYREG_BOOST_SR
 310:.\Generated_Source\PSoC5/cyfitter_cfg.c **** 
 311:.\Generated_Source\PSoC5/cyfitter_cfg.c **** 
 312:.\Generated_Source\PSoC5/cyfitter_cfg.c **** /*******************************************************************************
 313:.\Generated_Source\PSoC5/cyfitter_cfg.c **** * Function Name: cyfitter_cfg
 314:.\Generated_Source\PSoC5/cyfitter_cfg.c **** ********************************************************************************
 315:.\Generated_Source\PSoC5/cyfitter_cfg.c **** * Summary:
 316:.\Generated_Source\PSoC5/cyfitter_cfg.c **** *  This function is called by the start-up code for the selected device. It
 317:.\Generated_Source\PSoC5/cyfitter_cfg.c **** *  performs all of the necessary device configuration based on the design
 318:.\Generated_Source\PSoC5/cyfitter_cfg.c **** *  settings.  This includes settings from the Design Wide Resources (DWR) such
 319:.\Generated_Source\PSoC5/cyfitter_cfg.c **** *  as Clocks and Pins as well as any component configuration that is necessary.
 320:.\Generated_Source\PSoC5/cyfitter_cfg.c **** *
 321:.\Generated_Source\PSoC5/cyfitter_cfg.c **** * Parameters:  
 322:.\Generated_Source\PSoC5/cyfitter_cfg.c **** *   void
 323:.\Generated_Source\PSoC5/cyfitter_cfg.c **** *
 324:.\Generated_Source\PSoC5/cyfitter_cfg.c **** * Return:
 325:.\Generated_Source\PSoC5/cyfitter_cfg.c **** *   void
 326:.\Generated_Source\PSoC5/cyfitter_cfg.c **** *
 327:.\Generated_Source\PSoC5/cyfitter_cfg.c **** *******************************************************************************/
 328:.\Generated_Source\PSoC5/cyfitter_cfg.c **** 
 329:.\Generated_Source\PSoC5/cyfitter_cfg.c **** void cyfitter_cfg(void)
 330:.\Generated_Source\PSoC5/cyfitter_cfg.c **** {
 518              		.loc 1 330 0
 519              		.cfi_startproc
 520              		@ args = 0, pretend = 0, frame = 8
 521              		@ frame_needed = 1, uses_anonymous_args = 0
ARM GAS  C:\Users\Martin\AppData\Local\Temp\ccSl8uza.s 			page 16


 522 0000 80B5     		push	{r7, lr}
 523              	.LCFI25:
 524              		.cfi_def_cfa_offset 8
 525 0002 82B0     		sub	sp, sp, #8
 526              	.LCFI26:
 527              		.cfi_def_cfa_offset 16
 528 0004 00AF     		add	r7, sp, #0
 529              		.cfi_offset 14, -4
 530              		.cfi_offset 7, -8
 531              	.LCFI27:
 532              		.cfi_def_cfa_register 7
 331:.\Generated_Source\PSoC5/cyfitter_cfg.c **** #ifdef CYGlobalIntDisable
 332:.\Generated_Source\PSoC5/cyfitter_cfg.c **** 	/* Disable interrupts by default. Let user enable if/when they want. */
 333:.\Generated_Source\PSoC5/cyfitter_cfg.c **** 	CYGlobalIntDisable
 533              		.loc 1 333 0
 534              	@ 333 ".\Generated_Source\PSoC5\cyfitter_cfg.c" 1
 535 0006 72B6     		CPSID   i
 536              	@ 0 "" 2
 334:.\Generated_Source\PSoC5/cyfitter_cfg.c **** #endif
 335:.\Generated_Source\PSoC5/cyfitter_cfg.c **** 
 336:.\Generated_Source\PSoC5/cyfitter_cfg.c **** 
 337:.\Generated_Source\PSoC5/cyfitter_cfg.c **** 	/* Set Flash Cycles based on max possible frequency in case a glitch occurs during ClockSetup(). *
 338:.\Generated_Source\PSoC5/cyfitter_cfg.c **** 	CY_SET_XTND_REG8((void CYFAR *)(CYREG_CACHE_CC_CTL), (((CYDEV_INSTRUCT_CACHE_ENABLED) != 0) ? 0x00
 537              		.loc 1 338 0
 538              		.thumb
 539 0008 44F60003 		movw	r3, #:lower16:1073760256
 540 000c C4F20003 		movt	r3, #:upper16:1073760256
 541 0010 4FF00002 		mov	r2, #0
 542 0014 1A70     		strb	r2, [r3, #0]
 339:.\Generated_Source\PSoC5/cyfitter_cfg.c **** 	/* Setup clocks based on selections from Clock DWR */
 340:.\Generated_Source\PSoC5/cyfitter_cfg.c **** 	ClockSetup();
 543              		.loc 1 340 0
 544 0016 FFF7FEFF 		bl	ClockSetup
 341:.\Generated_Source\PSoC5/cyfitter_cfg.c **** 	/* Set Flash Cycles based on newly configured 24.00MHz Bus Clock. */
 342:.\Generated_Source\PSoC5/cyfitter_cfg.c **** 	CY_SET_XTND_REG8((void CYFAR *)(CYREG_CACHE_CC_CTL), (((CYDEV_INSTRUCT_CACHE_ENABLED) != 0) ? 0x80
 545              		.loc 1 342 0
 546 001a 44F60003 		movw	r3, #:lower16:1073760256
 547 001e C4F20003 		movt	r3, #:upper16:1073760256
 548 0022 6FF07F02 		mvn	r2, #127
 549 0026 1A70     		strb	r2, [r3, #0]
 343:.\Generated_Source\PSoC5/cyfitter_cfg.c **** 
 344:.\Generated_Source\PSoC5/cyfitter_cfg.c **** 	/* Disable DMA channels so they can be configured for chip initialization */
 345:.\Generated_Source\PSoC5/cyfitter_cfg.c **** 	CY_SET_XTND_REG8((void CYFAR *)(CYREG_PHUB_CH0_BASIC_CFG), 0x00u);
 550              		.loc 1 345 0
 551 0028 47F21003 		movw	r3, #:lower16:1073770512
 552 002c C4F20003 		movt	r3, #:upper16:1073770512
 553 0030 4FF00002 		mov	r2, #0
 554 0034 1A70     		strb	r2, [r3, #0]
 346:.\Generated_Source\PSoC5/cyfitter_cfg.c **** 	CY_SET_XTND_REG8((void CYFAR *)(CYREG_PHUB_CH1_BASIC_CFG), 0x00u);
 555              		.loc 1 346 0
 556 0036 47F22003 		movw	r3, #:lower16:1073770528
 557 003a C4F20003 		movt	r3, #:upper16:1073770528
 558 003e 4FF00002 		mov	r2, #0
 559 0042 1A70     		strb	r2, [r3, #0]
 347:.\Generated_Source\PSoC5/cyfitter_cfg.c **** 
 348:.\Generated_Source\PSoC5/cyfitter_cfg.c **** 	/* Enable analog pulldown switches */
 349:.\Generated_Source\PSoC5/cyfitter_cfg.c **** 	CY_SET_XTND_REG8((void CYFAR *)(CYREG_ANAIF_CFG_MISC_CR0), 0x01u);
ARM GAS  C:\Users\Martin\AppData\Local\Temp\ccSl8uza.s 			page 17


 560              		.loc 1 349 0
 561 0044 45F67C03 		movw	r3, #:lower16:1073764476
 562 0048 C4F20003 		movt	r3, #:upper16:1073764476
 563 004c 4FF00102 		mov	r2, #1
 564 0050 1A70     		strb	r2, [r3, #0]
 350:.\Generated_Source\PSoC5/cyfitter_cfg.c **** 
 351:.\Generated_Source\PSoC5/cyfitter_cfg.c **** 	/* Enable/Disable Debug functionality based on settings from System DWR */
 352:.\Generated_Source\PSoC5/cyfitter_cfg.c **** 	CY_SET_XTND_REG8((void CYFAR *)CYREG_MLOGIC_DBG_DBE, (CY_GET_XTND_REG8((void CYFAR *)CYREG_MLOGIC_
 565              		.loc 1 352 0
 566 0052 44F2E863 		movw	r3, #:lower16:1073759976
 567 0056 C4F20003 		movt	r3, #:upper16:1073759976
 568 005a 44F2E862 		movw	r2, #:lower16:1073759976
 569 005e C4F20002 		movt	r2, #:upper16:1073759976
 570 0062 1278     		ldrb	r2, [r2, #0]
 571 0064 D2B2     		uxtb	r2, r2
 572 0066 42F00102 		orr	r2, r2, #1
 573 006a D2B2     		uxtb	r2, r2
 574 006c 1A70     		strb	r2, [r3, #0]
 575              	.LBB2:
 353:.\Generated_Source\PSoC5/cyfitter_cfg.c **** 
 354:.\Generated_Source\PSoC5/cyfitter_cfg.c **** 	{
 355:.\Generated_Source\PSoC5/cyfitter_cfg.c **** 
 356:.\Generated_Source\PSoC5/cyfitter_cfg.c **** 		typedef struct {
 357:.\Generated_Source\PSoC5/cyfitter_cfg.c **** 			void CYFAR *address;
 358:.\Generated_Source\PSoC5/cyfitter_cfg.c **** 			uint16 size;
 359:.\Generated_Source\PSoC5/cyfitter_cfg.c **** 		} CYPACKED cfg_memset_t;
 360:.\Generated_Source\PSoC5/cyfitter_cfg.c **** 
 361:.\Generated_Source\PSoC5/cyfitter_cfg.c **** 		static const cfg_memset_t CYCODE cfg_memset_list [] = {
 362:.\Generated_Source\PSoC5/cyfitter_cfg.c **** 			/* address, size */
 363:.\Generated_Source\PSoC5/cyfitter_cfg.c **** 			{(void CYFAR *)(CYREG_PRT0_DR), 112u},
 364:.\Generated_Source\PSoC5/cyfitter_cfg.c **** 			{(void CYFAR *)(CYREG_PRT12_DR), 16u},
 365:.\Generated_Source\PSoC5/cyfitter_cfg.c **** 			{(void CYFAR *)(CYREG_PRT15_DR), 16u},
 366:.\Generated_Source\PSoC5/cyfitter_cfg.c **** 			{(void CYFAR *)(CYDEV_UCFG_B0_P0_U0_BASE), 4096u},
 367:.\Generated_Source\PSoC5/cyfitter_cfg.c **** 			{(void CYFAR *)(CYDEV_UCFG_B1_P2_U0_BASE), 2048u},
 368:.\Generated_Source\PSoC5/cyfitter_cfg.c **** 			{(void CYFAR *)(CYDEV_UCFG_DSI0_BASE), 2560u},
 369:.\Generated_Source\PSoC5/cyfitter_cfg.c **** 			{(void CYFAR *)(CYDEV_UCFG_DSI12_BASE), 512u},
 370:.\Generated_Source\PSoC5/cyfitter_cfg.c **** 		};
 371:.\Generated_Source\PSoC5/cyfitter_cfg.c **** 
 372:.\Generated_Source\PSoC5/cyfitter_cfg.c **** 		uint8 CYDATA i;
 373:.\Generated_Source\PSoC5/cyfitter_cfg.c **** 
 374:.\Generated_Source\PSoC5/cyfitter_cfg.c **** 		/* Zero out critical memory blocks before beginning configuration */
 375:.\Generated_Source\PSoC5/cyfitter_cfg.c **** 		for (i = 0u; i < (sizeof(cfg_memset_list)/sizeof(cfg_memset_list[0])); i++)
 576              		.loc 1 375 0
 577 006e 4FF00003 		mov	r3, #0
 578 0072 FB70     		strb	r3, [r7, #3]
 579 0074 2FE0     		b	.L26
 580              	.L27:
 581              	.LBB3:
 376:.\Generated_Source\PSoC5/cyfitter_cfg.c **** 		{
 377:.\Generated_Source\PSoC5/cyfitter_cfg.c **** 			const cfg_memset_t CYCODE * CYDATA ms = &cfg_memset_list[i];
 582              		.loc 1 377 0
 583 0076 FA78     		ldrb	r2, [r7, #3]	@ zero_extendqisi2
 584 0078 1346     		mov	r3, r2
 585 007a 4FEA4303 		lsl	r3, r3, #1
 586 007e 1344     		add	r3, r3, r2
 587 0080 4FEA4303 		lsl	r3, r3, #1
 588 0084 1A46     		mov	r2, r3
ARM GAS  C:\Users\Martin\AppData\Local\Temp\ccSl8uza.s 			page 18


 589 0086 40F20003 		movw	r3, #:lower16:cfg_memset_list.2054
 590 008a C0F20003 		movt	r3, #:upper16:cfg_memset_list.2054
 591 008e 1344     		add	r3, r2, r3
 592 0090 7B60     		str	r3, [r7, #4]
 378:.\Generated_Source\PSoC5/cyfitter_cfg.c **** 			CYMEMZERO(ms->address, (uint32)(ms->size));
 593              		.loc 1 378 0
 594 0092 7B68     		ldr	r3, [r7, #4]
 595 0094 1A78     		ldrb	r2, [r3, #0]	@ zero_extendqisi2
 596 0096 5978     		ldrb	r1, [r3, #1]	@ zero_extendqisi2
 597 0098 4FEA0121 		lsl	r1, r1, #8
 598 009c 41EA0202 		orr	r2, r1, r2
 599 00a0 9978     		ldrb	r1, [r3, #2]	@ zero_extendqisi2
 600 00a2 4FEA0141 		lsl	r1, r1, #16
 601 00a6 41EA0202 		orr	r2, r1, r2
 602 00aa DB78     		ldrb	r3, [r3, #3]	@ zero_extendqisi2
 603 00ac 4FEA0363 		lsl	r3, r3, #24
 604 00b0 43EA0203 		orr	r3, r3, r2
 605 00b4 1A46     		mov	r2, r3
 606 00b6 7B68     		ldr	r3, [r7, #4]
 607 00b8 1979     		ldrb	r1, [r3, #4]	@ zero_extendqisi2
 608 00ba 5B79     		ldrb	r3, [r3, #5]	@ zero_extendqisi2
 609 00bc 4FEA0323 		lsl	r3, r3, #8
 610 00c0 43EA0103 		orr	r3, r3, r1
 611 00c4 9BB2     		uxth	r3, r3
 612 00c6 1046     		mov	r0, r2
 613 00c8 1946     		mov	r1, r3
 614 00ca FFF7FEFF 		bl	CYMEMZERO
 615              	.LBE3:
 616              		.loc 1 375 0
 617 00ce FB78     		ldrb	r3, [r7, #3]
 618 00d0 03F10103 		add	r3, r3, #1
 619 00d4 FB70     		strb	r3, [r7, #3]
 620              	.L26:
 621 00d6 FB78     		ldrb	r3, [r7, #3]	@ zero_extendqisi2
 622 00d8 062B     		cmp	r3, #6
 623 00da CCD9     		bls	.L27
 379:.\Generated_Source\PSoC5/cyfitter_cfg.c **** 		}
 380:.\Generated_Source\PSoC5/cyfitter_cfg.c **** 
 381:.\Generated_Source\PSoC5/cyfitter_cfg.c **** 		/* Perform normal device configuration. Order is not critical for these items. */
 382:.\Generated_Source\PSoC5/cyfitter_cfg.c **** 		CYMEMZERO8((void CYFAR *)(CYDEV_PRTDSI_PRT0_BASE), 7u);
 624              		.loc 1 382 0
 625 00dc 45F20020 		movw	r0, #:lower16:1073762816
 626 00e0 C4F20000 		movt	r0, #:upper16:1073762816
 627 00e4 4FF00701 		mov	r1, #7
 628 00e8 FFF7FEFF 		bl	CYMEMZERO8
 383:.\Generated_Source\PSoC5/cyfitter_cfg.c **** 		CYMEMZERO8((void CYFAR *)(CYDEV_PRTDSI_PRT1_BASE), 7u);
 629              		.loc 1 383 0
 630 00ec 45F20820 		movw	r0, #:lower16:1073762824
 631 00f0 C4F20000 		movt	r0, #:upper16:1073762824
 632 00f4 4FF00701 		mov	r1, #7
 633 00f8 FFF7FEFF 		bl	CYMEMZERO8
 384:.\Generated_Source\PSoC5/cyfitter_cfg.c **** 		CYMEMZERO8((void CYFAR *)(CYDEV_PRTDSI_PRT2_BASE), 7u);
 634              		.loc 1 384 0
 635 00fc 45F21020 		movw	r0, #:lower16:1073762832
 636 0100 C4F20000 		movt	r0, #:upper16:1073762832
 637 0104 4FF00701 		mov	r1, #7
 638 0108 FFF7FEFF 		bl	CYMEMZERO8
ARM GAS  C:\Users\Martin\AppData\Local\Temp\ccSl8uza.s 			page 19


 385:.\Generated_Source\PSoC5/cyfitter_cfg.c **** 		CYMEMZERO8((void CYFAR *)(CYDEV_PRTDSI_PRT3_BASE), 7u);
 639              		.loc 1 385 0
 640 010c 45F21820 		movw	r0, #:lower16:1073762840
 641 0110 C4F20000 		movt	r0, #:upper16:1073762840
 642 0114 4FF00701 		mov	r1, #7
 643 0118 FFF7FEFF 		bl	CYMEMZERO8
 386:.\Generated_Source\PSoC5/cyfitter_cfg.c **** 		CYMEMZERO8((void CYFAR *)(CYDEV_PRTDSI_PRT4_BASE), 7u);
 644              		.loc 1 386 0
 645 011c 45F22020 		movw	r0, #:lower16:1073762848
 646 0120 C4F20000 		movt	r0, #:upper16:1073762848
 647 0124 4FF00701 		mov	r1, #7
 648 0128 FFF7FEFF 		bl	CYMEMZERO8
 387:.\Generated_Source\PSoC5/cyfitter_cfg.c **** 		CYMEMZERO8((void CYFAR *)(CYDEV_PRTDSI_PRT5_BASE), 7u);
 649              		.loc 1 387 0
 650 012c 45F22820 		movw	r0, #:lower16:1073762856
 651 0130 C4F20000 		movt	r0, #:upper16:1073762856
 652 0134 4FF00701 		mov	r1, #7
 653 0138 FFF7FEFF 		bl	CYMEMZERO8
 388:.\Generated_Source\PSoC5/cyfitter_cfg.c **** 		CYMEMZERO8((void CYFAR *)(CYDEV_PRTDSI_PRT6_BASE), 7u);
 654              		.loc 1 388 0
 655 013c 45F23020 		movw	r0, #:lower16:1073762864
 656 0140 C4F20000 		movt	r0, #:upper16:1073762864
 657 0144 4FF00701 		mov	r1, #7
 658 0148 FFF7FEFF 		bl	CYMEMZERO8
 389:.\Generated_Source\PSoC5/cyfitter_cfg.c **** 		CYMEMZERO8((void CYFAR *)(CYDEV_PRTDSI_PRT12_BASE), 6u);
 659              		.loc 1 389 0
 660 014c 45F26020 		movw	r0, #:lower16:1073762912
 661 0150 C4F20000 		movt	r0, #:upper16:1073762912
 662 0154 4FF00601 		mov	r1, #6
 663 0158 FFF7FEFF 		bl	CYMEMZERO8
 390:.\Generated_Source\PSoC5/cyfitter_cfg.c **** 		CYMEMZERO8((void CYFAR *)(CYDEV_PRTDSI_PRT15_BASE), 7u);
 664              		.loc 1 390 0
 665 015c 45F27820 		movw	r0, #:lower16:1073762936
 666 0160 C4F20000 		movt	r0, #:upper16:1073762936
 667 0164 4FF00701 		mov	r1, #7
 668 0168 FFF7FEFF 		bl	CYMEMZERO8
 391:.\Generated_Source\PSoC5/cyfitter_cfg.c **** 
 392:.\Generated_Source\PSoC5/cyfitter_cfg.c **** 		/* Enable digital routing */
 393:.\Generated_Source\PSoC5/cyfitter_cfg.c **** 		CY_SET_XTND_REG8((void CYFAR *)CYREG_BCTL0_BANK_CTL, CY_GET_XTND_REG8((void CYFAR *)CYREG_BCTL0_B
 669              		.loc 1 393 0
 670 016c 45F20303 		movw	r3, #:lower16:1073827843
 671 0170 C4F20103 		movt	r3, #:upper16:1073827843
 672 0174 45F20302 		movw	r2, #:lower16:1073827843
 673 0178 C4F20102 		movt	r2, #:upper16:1073827843
 674 017c 1278     		ldrb	r2, [r2, #0]
 675 017e D2B2     		uxtb	r2, r2
 676 0180 42F00202 		orr	r2, r2, #2
 677 0184 D2B2     		uxtb	r2, r2
 678 0186 1A70     		strb	r2, [r3, #0]
 394:.\Generated_Source\PSoC5/cyfitter_cfg.c **** 		CY_SET_XTND_REG8((void CYFAR *)CYREG_BCTL1_BANK_CTL, CY_GET_XTND_REG8((void CYFAR *)CYREG_BCTL1_B
 679              		.loc 1 394 0
 680 0188 45F21303 		movw	r3, #:lower16:1073827859
 681 018c C4F20103 		movt	r3, #:upper16:1073827859
 682 0190 45F21302 		movw	r2, #:lower16:1073827859
 683 0194 C4F20102 		movt	r2, #:upper16:1073827859
 684 0198 1278     		ldrb	r2, [r2, #0]
 685 019a D2B2     		uxtb	r2, r2
ARM GAS  C:\Users\Martin\AppData\Local\Temp\ccSl8uza.s 			page 20


 686 019c 42F00202 		orr	r2, r2, #2
 687 01a0 D2B2     		uxtb	r2, r2
 688 01a2 1A70     		strb	r2, [r3, #0]
 395:.\Generated_Source\PSoC5/cyfitter_cfg.c **** 
 396:.\Generated_Source\PSoC5/cyfitter_cfg.c **** 		/* Enable UDB array */
 397:.\Generated_Source\PSoC5/cyfitter_cfg.c **** 		CY_SET_XTND_REG8((void CYFAR *)CYREG_PM_ACT_CFG0, CY_GET_XTND_REG8((void CYFAR *)CYREG_PM_ACT_CFG
 689              		.loc 1 397 0
 690 01a4 44F2A033 		movw	r3, #:lower16:1073759136
 691 01a8 C4F20003 		movt	r3, #:upper16:1073759136
 692 01ac 44F2A032 		movw	r2, #:lower16:1073759136
 693 01b0 C4F20002 		movt	r2, #:upper16:1073759136
 694 01b4 1278     		ldrb	r2, [r2, #0]
 695 01b6 D2B2     		uxtb	r2, r2
 696 01b8 42F04002 		orr	r2, r2, #64
 697 01bc D2B2     		uxtb	r2, r2
 698 01be 1A70     		strb	r2, [r3, #0]
 398:.\Generated_Source\PSoC5/cyfitter_cfg.c **** 		CY_SET_XTND_REG8((void CYFAR *)CYREG_PM_AVAIL_CR2, CY_GET_XTND_REG8((void CYFAR *)CYREG_PM_AVAIL_
 699              		.loc 1 398 0
 700 01c0 44F2C233 		movw	r3, #:lower16:1073759170
 701 01c4 C4F20003 		movt	r3, #:upper16:1073759170
 702 01c8 44F2C232 		movw	r2, #:lower16:1073759170
 703 01cc C4F20002 		movt	r2, #:upper16:1073759170
 704 01d0 1278     		ldrb	r2, [r2, #0]
 705 01d2 D2B2     		uxtb	r2, r2
 706 01d4 42F01002 		orr	r2, r2, #16
 707 01d8 D2B2     		uxtb	r2, r2
 708 01da 1A70     		strb	r2, [r3, #0]
 709              	.LBE2:
 399:.\Generated_Source\PSoC5/cyfitter_cfg.c **** 	}
 400:.\Generated_Source\PSoC5/cyfitter_cfg.c **** 
 401:.\Generated_Source\PSoC5/cyfitter_cfg.c **** 
 402:.\Generated_Source\PSoC5/cyfitter_cfg.c **** 	/* Perform basic analog initialization to defaults */
 403:.\Generated_Source\PSoC5/cyfitter_cfg.c **** 	AnalogSetDefault();
 710              		.loc 1 403 0
 711 01dc FFF7FEFF 		bl	AnalogSetDefault
 404:.\Generated_Source\PSoC5/cyfitter_cfg.c **** 
 405:.\Generated_Source\PSoC5/cyfitter_cfg.c **** 	/* Configure alternate active mode */
 406:.\Generated_Source\PSoC5/cyfitter_cfg.c **** 	CYCONFIGCPY((void CYFAR *)CYDEV_PM_STBY_BASE, (const void CYFAR *)CYDEV_PM_ACT_BASE, 12u);
 712              		.loc 1 406 0
 713 01e0 44F2B030 		movw	r0, #:lower16:1073759152
 714 01e4 C4F20000 		movt	r0, #:upper16:1073759152
 715 01e8 44F2A031 		movw	r1, #:lower16:1073759136
 716 01ec C4F20001 		movt	r1, #:upper16:1073759136
 717 01f0 4FF00C02 		mov	r2, #12
 718 01f4 FFF7FEFF 		bl	CYCONFIGCPY
 407:.\Generated_Source\PSoC5/cyfitter_cfg.c **** 	CY_SET_XTND_REG8((void CYFAR *)CYREG_PM_STBY_CFG0, CY_GET_XTND_REG8((void CYFAR *)CYREG_PM_STBY_CF
 719              		.loc 1 407 0
 720 01f8 44F2B033 		movw	r3, #:lower16:1073759152
 721 01fc C4F20003 		movt	r3, #:upper16:1073759152
 722 0200 44F2B032 		movw	r2, #:lower16:1073759152
 723 0204 C4F20002 		movt	r2, #:upper16:1073759152
 724 0208 1278     		ldrb	r2, [r2, #0]
 725 020a D2B2     		uxtb	r2, r2
 726 020c 02F0FD02 		and	r2, r2, #253
 727 0210 1A70     		strb	r2, [r3, #0]
 408:.\Generated_Source\PSoC5/cyfitter_cfg.c **** }
 728              		.loc 1 408 0
ARM GAS  C:\Users\Martin\AppData\Local\Temp\ccSl8uza.s 			page 21


 729 0212 07F10807 		add	r7, r7, #8
 730 0216 BD46     		mov	sp, r7
 731 0218 80BD     		pop	{r7, pc}
 732              		.cfi_endproc
 733              	.LFE9:
 734              		.size	cyfitter_cfg, .-cyfitter_cfg
 735 021a 00BF     		.section	.rodata
 736              		.align	2
 737              		.type	cfg_memset_list.2054, %object
 738              		.size	cfg_memset_list.2054, 42
 739              	cfg_memset_list.2054:
 740 0000 00510040 		.word	1073762560
 741 0004 7000     		.short	112
 742 0006 C0510040 		.4byte	1073762752
 743 000a 1000     		.short	16
 744 000c F0510040 		.word	1073762800
 745 0010 1000     		.short	16
 746 0012 00000140 		.4byte	1073807360
 747 0016 0010     		.short	4096
 748 0018 00140140 		.word	1073812480
 749 001c 0008     		.short	2048
 750 001e 00400140 		.4byte	1073823744
 751 0022 000A     		.short	2560
 752 0024 004C0140 		.word	1073826816
 753 0028 0002     		.short	512
 754 002a 0000     		.text
 755              	.Letext0: