ARM GAS  C:\Users\Martin\AppData\Local\Temp\ccshij1b.s 			page 1


   1              		.syntax unified
   2              		.cpu cortex-m3
   3              		.fpu softvfp
   4              		.eabi_attribute 20, 1
   5              		.eabi_attribute 21, 1
   6              		.eabi_attribute 23, 3
   7              		.eabi_attribute 24, 1
   8              		.eabi_attribute 25, 1
   9              		.eabi_attribute 26, 1
  10              		.eabi_attribute 30, 6
  11              		.eabi_attribute 34, 1
  12              		.eabi_attribute 18, 4
  13              		.thumb
  14              		.file	"main.c"
  15              		.text
  16              	.Ltext0:
  17              		.cfi_sections	.debug_frame
  18              		.section	.text.main,"ax",%progbits
  19              		.align	2
  20              		.global	main
  21              		.thumb
  22              		.thumb_func
  23              		.type	main, %function
  24              	main:
  25              	.LFB56:
  26              		.file 1 ".\\main.c"
   1:.\main.c      **** /* Copyright (C) <2014> <Martin Schalk>
   2:.\main.c      ****  * All rights reserved.
   3:.\main.c      ****  *
   4:.\main.c      ****  * This software may be modified and distributed under the terms
   5:.\main.c      ****  * of the BSD license.  See the LICENSE file for details.
   6:.\main.c      ****  */
   7:.\main.c      **** 
   8:.\main.c      **** #include <project.h>
   9:.\main.c      **** #include "servo_cds5500.h"
  10:.\main.c      **** #include "hal.h"
  11:.\main.c      **** #include "bpl.h"
  12:.\main.c      **** #include "tmr.h"
  13:.\main.c      **** 
  14:.\main.c      **** #include "global.h"
  15:.\main.c      **** 
  16:.\main.c      **** int main()
  17:.\main.c      **** {
  27              		.loc 1 17 0
  28              		.cfi_startproc
  29              		@ args = 0, pretend = 0, frame = 8
  30              		@ frame_needed = 1, uses_anonymous_args = 0
  31 0000 80B5     		push	{r7, lr}
  32              	.LCFI0:
  33              		.cfi_def_cfa_offset 8
  34              		.cfi_offset 7, -8
  35              		.cfi_offset 14, -4
  36 0002 82B0     		sub	sp, sp, #8
  37              	.LCFI1:
  38              		.cfi_def_cfa_offset 16
  39 0004 00AF     		add	r7, sp, #0
  40              	.LCFI2:
ARM GAS  C:\Users\Martin\AppData\Local\Temp\ccshij1b.s 			page 2


  41              		.cfi_def_cfa_register 7
  18:.\main.c      **** 	STATUS status;
  19:.\main.c      **** 	
  20:.\main.c      **** 	/* Initialization */
  21:.\main.c      **** 	/* -------------- */
  22:.\main.c      **** 	CyGlobalIntEnable; /* Enable interrupts */
  42              		.loc 1 22 0
  43              	@ 22 ".\main.c" 1
  44 0006 62B6     		CPSIE   i
  45              	@ 0 "" 2
  23:.\main.c      **** 	status = HAL_Init();
  46              		.loc 1 23 0
  47              		.thumb
  48 0008 FFF7FEFF 		bl	HAL_Init
  49 000c 0346     		mov	r3, r0
  50 000e FB71     		strb	r3, [r7, #7]
  24:.\main.c      **** 	status = TMR_Init();
  51              		.loc 1 24 0
  52 0010 FFF7FEFF 		bl	TMR_Init
  53 0014 0346     		mov	r3, r0
  54 0016 FB71     		strb	r3, [r7, #7]
  25:.\main.c      **** #ifdef TEST_UART
  26:.\main.c      **** 	status = TST_Init();
  55              		.loc 1 26 0
  56 0018 FFF7FEFF 		bl	TST_Init
  57 001c 0346     		mov	r3, r0
  58 001e FB71     		strb	r3, [r7, #7]
  59              	.L2:
  27:.\main.c      **** #endif
  28:.\main.c      **** 
  29:.\main.c      ****     for(;;)
  30:.\main.c      ****     {
  31:.\main.c      ****         /* Bus handler */
  32:.\main.c      **** 		BPL_HandleTask();
  60              		.loc 1 32 0 discriminator 1
  61 0020 FFF7FEFF 		bl	BPL_HandleTask
  33:.\main.c      **** 		
  34:.\main.c      **** 		/* Timer Handler */
  35:.\main.c      **** 		TMR_HandleTask();
  62              		.loc 1 35 0 discriminator 1
  63 0024 FFF7FEFF 		bl	TMR_HandleTask
  36:.\main.c      ****     }
  64              		.loc 1 36 0 discriminator 1
  65 0028 FAE7     		b	.L2
  66              		.cfi_endproc
  67              	.LFE56:
  68              		.size	main, .-main
  69 002a 00BF     		.text
  70              	.Letext0:
  71              		.file 2 "c:\\program files (x86)\\cypress\\psoc creator\\3.0\\psoc creator\\import\\gnu_cs\\arm\\4
  72              		.file 3 "./Generated_Source/PSoC5/cytypes.h"
  73              		.file 4 "./Generated_Source/PSoC5/core_cm3.h"